
build.riscv.pce_mpu_bios/pce_mpu_bios:     file format elf32-littleriscv


Disassembly of section .text:

00000000 <boot_vector>:
       0:	4000006f          	j	400 <boot_vector2>
       4:	0000                	unimp
	...

00000008 <ipc_vector>:
	...
      10:	5140006f          	j	524 <isr_vector>

00000014 <ipc_request>:
      14:	0000                	unimp
	...

00000018 <ipc_frame>:
	...

00000400 <boot_vector2>:
     400:	aad9                	j	5d6 <start>
	...

00000420 <arg_argc>:
     420:	00000000          	.word	0x00000000

00000424 <arg_argv>:
	...

00000524 <isr_vector>:
     524:	f7410113          	addi	sp,sp,-140
     528:	c57e                	sw	t6,136(sp)
     52a:	c37a                	sw	t5,132(sp)
     52c:	c176                	sw	t4,128(sp)
     52e:	def2                	sw	t3,124(sp)
     530:	dcee                	sw	s11,120(sp)
     532:	daea                	sw	s10,116(sp)
     534:	d8e6                	sw	s9,112(sp)
     536:	d6e2                	sw	s8,108(sp)
     538:	d4de                	sw	s7,104(sp)
     53a:	d2da                	sw	s6,100(sp)
     53c:	d0d6                	sw	s5,96(sp)
     53e:	ced2                	sw	s4,92(sp)
     540:	ccce                	sw	s3,88(sp)
     542:	caca                	sw	s2,84(sp)
     544:	c8c6                	sw	a7,80(sp)
     546:	c6c2                	sw	a6,76(sp)
     548:	c4be                	sw	a5,72(sp)
     54a:	c2ba                	sw	a4,68(sp)
     54c:	c0b6                	sw	a3,64(sp)
     54e:	de32                	sw	a2,60(sp)
     550:	dc2e                	sw	a1,56(sp)
     552:	da2a                	sw	a0,52(sp)
     554:	d826                	sw	s1,48(sp)
     556:	d622                	sw	s0,44(sp)
     558:	d41e                	sw	t2,40(sp)
     55a:	d21a                	sw	t1,36(sp)
     55c:	d016                	sw	t0,32(sp)
     55e:	ce12                	sw	tp,28(sp)
     560:	cc0e                	sw	gp,24(sp)
     562:	ca0a                	sw	sp,20(sp)
     564:	c806                	sw	ra,16(sp)
     566:	34202473          	csrr	s0,mcause
     56a:	c422                	sw	s0,8(sp)
     56c:	30002473          	csrr	s0,mstatus
     570:	c222                	sw	s0,4(sp)
     572:	34102473          	csrr	s0,mepc
     576:	c022                	sw	s0,0(sp)
     578:	850a                	mv	a0,sp
     57a:	5eb010ef          	jal	ra,2364 <_handle_trap>

0000057e <exception_return>:
     57e:	812a                	mv	sp,a0
     580:	4402                	lw	s0,0(sp)
     582:	34141073          	csrw	mepc,s0
     586:	4412                	lw	s0,4(sp)
     588:	30041073          	csrw	mstatus,s0
     58c:	40c2                	lw	ra,16(sp)
     58e:	41e2                	lw	gp,24(sp)
     590:	4272                	lw	tp,28(sp)
     592:	5282                	lw	t0,32(sp)
     594:	5312                	lw	t1,36(sp)
     596:	53a2                	lw	t2,40(sp)
     598:	5432                	lw	s0,44(sp)
     59a:	54c2                	lw	s1,48(sp)
     59c:	5552                	lw	a0,52(sp)
     59e:	55e2                	lw	a1,56(sp)
     5a0:	5672                	lw	a2,60(sp)
     5a2:	4686                	lw	a3,64(sp)
     5a4:	4716                	lw	a4,68(sp)
     5a6:	47a6                	lw	a5,72(sp)
     5a8:	4836                	lw	a6,76(sp)
     5aa:	48c6                	lw	a7,80(sp)
     5ac:	4956                	lw	s2,84(sp)
     5ae:	49e6                	lw	s3,88(sp)
     5b0:	4a76                	lw	s4,92(sp)
     5b2:	5a86                	lw	s5,96(sp)
     5b4:	5b16                	lw	s6,100(sp)
     5b6:	5ba6                	lw	s7,104(sp)
     5b8:	5c36                	lw	s8,108(sp)
     5ba:	5cc6                	lw	s9,112(sp)
     5bc:	5d56                	lw	s10,116(sp)
     5be:	5de6                	lw	s11,120(sp)
     5c0:	5e76                	lw	t3,124(sp)
     5c2:	4e8a                	lw	t4,128(sp)
     5c4:	4f1a                	lw	t5,132(sp)
     5c6:	4faa                	lw	t6,136(sp)
     5c8:	08c10113          	addi	sp,sp,140
     5cc:	30200073          	mret

000005d0 <exception_syscall>:
     5d0:	00000073          	ecall
     5d4:	8082                	ret

000005d6 <start>:
     5d6:	00005137          	lui	sp,0x5
     5da:	5c010113          	addi	sp,sp,1472 # 55c0 <_sp>
     5de:	52400293          	li	t0,1316
     5e2:	30529073          	csrw	mtvec,t0
     5e6:	6291                	lui	t0,0x4
     5e8:	a4028293          	addi	t0,t0,-1472 # 3a40 <_ZZN5cue_t11CommandExecEvE3buf>
     5ec:	6315                	lui	t1,0x5
     5ee:	5d030313          	addi	t1,t1,1488 # 55d0 <_end>

000005f2 <bss_clear>:
     5f2:	0002a023          	sw	zero,0(t0)
     5f6:	0291                	addi	t0,t0,4
     5f8:	fe62cde3          	blt	t0,t1,5f2 <bss_clear>
     5fc:	00000517          	auipc	a0,0x0
     600:	e2450513          	addi	a0,a0,-476 # 420 <arg_argc>
     604:	4108                	lw	a0,0(a0)
     606:	00000597          	auipc	a1,0x0
     60a:	e1e58593          	addi	a1,a1,-482 # 424 <arg_argv>
     60e:	1e2000ef          	jal	ra,7f0 <main>
     612:	2009                	jal	614 <_exit>

00000614 <_exit>:
     614:	0ff57513          	zext.b	a0,a0
     618:	7b251073          	csrw	dscratch0,a0

0000061c <_exit_loop>:
     61c:	2001                	jal	61c <_exit_loop>

0000061e <_Z10core_reseti>:
     61e:	85aa                	mv	a1,a0
     620:	faa02223          	sw	a0,-92(zero) # ffffffa4 <__ram_end+0xfffeffa4>
     624:	650d                	lui	a0,0x3
     626:	3b050513          	addi	a0,a0,944 # 33b0 <stream_vscanf+0x4c0>
     62a:	18a0206f          	j	27b4 <riscprintf_>

0000062e <_Z15full_core_resetv>:
     62e:	650d                	lui	a0,0x3
     630:	1141                	addi	sp,sp,-16
     632:	3bc50513          	addi	a0,a0,956 # 33bc <stream_vscanf+0x4cc>
     636:	c606                	sw	ra,12(sp)
     638:	c422                	sw	s0,8(sp)
     63a:	c226                	sw	s1,4(sp)
     63c:	640d                	lui	s0,0x3
     63e:	176020ef          	jal	ra,27b4 <riscprintf_>
     642:	fa400493          	li	s1,-92
     646:	4581                	li	a1,0
     648:	0004a023          	sw	zero,0(s1)
     64c:	3b040513          	addi	a0,s0,944 # 33b0 <stream_vscanf+0x4c0>
     650:	164020ef          	jal	ra,27b4 <riscprintf_>
     654:	0c800513          	li	a0,200
     658:	736020ef          	jal	ra,2d8e <_Z10riscusleepi>
     65c:	6515                	lui	a0,0x5
     65e:	e2050513          	addi	a0,a0,-480 # 4e20 <foo1+0x454>
     662:	f0002023          	sw	zero,-256(zero) # ffffff00 <__ram_end+0xfffeff00>
     666:	728020ef          	jal	ra,2d8e <_Z10riscusleepi>
     66a:	77c1                	lui	a5,0xffff0
     66c:	fb402703          	lw	a4,-76(zero) # ffffffb4 <__ram_end+0xfffeffb4>
     670:	5388                	lw	a0,32(a5)
     672:	53cc                	lw	a1,36(a5)
     674:	224d                	jal	816 <_Z15pcecd_set_imageii>
     676:	4585                	li	a1,1
     678:	03300513          	li	a0,51
     67c:	3d1010ef          	jal	ra,224c <_Z21HPS_spi_uio_cmd8_conthh>
     680:	2f5010ef          	jal	ra,2174 <_Z13HPS_DisableIOv>
     684:	650d                	lui	a0,0x3
     686:	3d450513          	addi	a0,a0,980 # 33d4 <stream_vscanf+0x4e4>
     68a:	12a020ef          	jal	ra,27b4 <riscprintf_>
     68e:	4785                	li	a5,1
     690:	c09c                	sw	a5,0(s1)
     692:	4585                	li	a1,1
     694:	3b040513          	addi	a0,s0,944
     698:	11c020ef          	jal	ra,27b4 <riscprintf_>
     69c:	1f400513          	li	a0,500
     6a0:	6ee020ef          	jal	ra,2d8e <_Z10riscusleepi>
     6a4:	4422                	lw	s0,8(sp)
     6a6:	40b2                	lw	ra,12(sp)
     6a8:	4492                	lw	s1,4(sp)
     6aa:	650d                	lui	a0,0x3
     6ac:	3e050513          	addi	a0,a0,992 # 33e0 <stream_vscanf+0x4f0>
     6b0:	0141                	addi	sp,sp,16
     6b2:	1020206f          	j	27b4 <riscprintf_>

000006b6 <_Z21core_update_dataslotsv>:
     6b6:	77c1                	lui	a5,0xffff0
     6b8:	fb402703          	lw	a4,-76(zero) # ffffffb4 <__ram_end+0xfffeffb4>
     6bc:	5388                	lw	a0,32(a5)
     6be:	53cc                	lw	a1,36(a5)
     6c0:	1141                	addi	sp,sp,-16
     6c2:	c606                	sw	ra,12(sp)
     6c4:	2a89                	jal	816 <_Z15pcecd_set_imageii>
     6c6:	4585                	li	a1,1
     6c8:	03300513          	li	a0,51
     6cc:	381010ef          	jal	ra,224c <_Z21HPS_spi_uio_cmd8_conthh>
     6d0:	2a5010ef          	jal	ra,2174 <_Z13HPS_DisableIOv>
     6d4:	40b2                	lw	ra,12(sp)
     6d6:	650d                	lui	a0,0x3
     6d8:	3d450513          	addi	a0,a0,980 # 33d4 <stream_vscanf+0x4e4>
     6dc:	0141                	addi	sp,sp,16
     6de:	0d60206f          	j	27b4 <riscprintf_>

000006e2 <_Z12core_poll_iov>:
     6e2:	aa75                	j	89e <_Z10pcecd_pollv>

000006e4 <_Z15core_reg_updatev>:
     6e4:	f0402783          	lw	a5,-252(zero) # ffffff04 <__ram_end+0xfffeff04>
     6e8:	1141                	addi	sp,sp,-16
     6ea:	c606                	sw	ra,12(sp)
     6ec:	8b85                	andi	a5,a5,1
     6ee:	c38d                	beqz	a5,710 <_Z15core_reg_updatev+0x2c>
     6f0:	6511                	lui	a0,0x4
     6f2:	4585                	li	a1,1
     6f4:	ae050513          	addi	a0,a0,-1312 # 3ae0 <cue>
     6f8:	618010ef          	jal	ra,1d10 <_ZN5cue_t9SetRegionEh>
     6fc:	f0402783          	lw	a5,-252(zero) # ffffff04 <__ram_end+0xfffeff04>
     700:	8b89                	andi	a5,a5,2
     702:	c38d                	beqz	a5,724 <_Z15core_reg_updatev+0x40>
     704:	40b2                	lw	ra,12(sp)
     706:	4789                	li	a5,2
     708:	f4f02a23          	sw	a5,-172(zero) # ffffff54 <__ram_end+0xfffeff54>
     70c:	0141                	addi	sp,sp,16
     70e:	8082                	ret
     710:	6511                	lui	a0,0x4
     712:	4581                	li	a1,0
     714:	ae050513          	addi	a0,a0,-1312 # 3ae0 <cue>
     718:	5f8010ef          	jal	ra,1d10 <_ZN5cue_t9SetRegionEh>
     71c:	f0402783          	lw	a5,-252(zero) # ffffff04 <__ram_end+0xfffeff04>
     720:	8b89                	andi	a5,a5,2
     722:	f3ed                	bnez	a5,704 <_Z15core_reg_updatev+0x20>
     724:	40b2                	lw	ra,12(sp)
     726:	f4002a23          	sw	zero,-172(zero) # ffffff54 <__ram_end+0xfffeff54>
     72a:	0141                	addi	sp,sp,16
     72c:	8082                	ret

0000072e <_Z18core_restart_firstv>:
     72e:	8082                	ret

00000730 <_Z16core_input_setupv>:
     730:	8082                	ret

00000732 <_Z4initv>:
     732:	1141                	addi	sp,sp,-16
     734:	4501                	li	a0,0
     736:	c606                	sw	ra,12(sp)
     738:	35dd                	jal	61e <_Z10core_reseti>
     73a:	433010ef          	jal	ra,236c <_Z17DisableInterruptsv>
     73e:	642020ef          	jal	ra,2d80 <_Z8SetTimerv>
     742:	419010ef          	jal	ra,235a <SetUART>
     746:	626020ef          	jal	ra,2d6c <_Z10ResetTimerv>
     74a:	0007a537          	lui	a0,0x7a
     74e:	12050513          	addi	a0,a0,288 # 7a120 <__ram_end+0x6a120>
     752:	63c020ef          	jal	ra,2d8e <_Z10riscusleepi>
     756:	650d                	lui	a0,0x3
     758:	3f850513          	addi	a0,a0,1016 # 33f8 <stream_vscanf+0x508>
     75c:	058020ef          	jal	ra,27b4 <riscprintf_>
     760:	40b2                	lw	ra,12(sp)
     762:	0141                	addi	sp,sp,16
     764:	b7e9                	j	72e <_Z18core_restart_firstv>

00000766 <_Z8mainloopv>:
     766:	6509                	lui	a0,0x2
     768:	1141                	addi	sp,sp,-16
     76a:	32850513          	addi	a0,a0,808 # 2328 <_Z19HPS_io_file_tx_dataPKhmi+0x3a>
     76e:	c606                	sw	ra,12(sp)
     770:	c422                	sw	s0,8(sp)
     772:	c226                	sw	s1,4(sp)
     774:	61a020ef          	jal	ra,2d8e <_Z10riscusleepi>
     778:	650d                	lui	a0,0x3
     77a:	40050513          	addi	a0,a0,1024 # 3400 <stream_vscanf+0x510>
     77e:	036020ef          	jal	ra,27b4 <riscprintf_>
     782:	650d                	lui	a0,0x3
     784:	41850513          	addi	a0,a0,1048 # 3418 <stream_vscanf+0x528>
     788:	02c020ef          	jal	ra,27b4 <riscprintf_>
     78c:	650d                	lui	a0,0x3
     78e:	43450513          	addi	a0,a0,1076 # 3434 <stream_vscanf+0x544>
     792:	022020ef          	jal	ra,27b4 <riscprintf_>
     796:	650d                	lui	a0,0x3
     798:	44450513          	addi	a0,a0,1092 # 3444 <stream_vscanf+0x554>
     79c:	018020ef          	jal	ra,27b4 <riscprintf_>
     7a0:	7d000513          	li	a0,2000
     7a4:	5ea020ef          	jal	ra,2d8e <_Z10riscusleepi>
     7a8:	4505                	li	a0,1
     7aa:	3d95                	jal	61e <_Z10core_reseti>
     7ac:	3729                	jal	6b6 <_Z21core_update_dataslotsv>
     7ae:	3749                	jal	730 <_Z16core_input_setupv>
     7b0:	3bd010ef          	jal	ra,236c <_Z17DisableInterruptsv>
     7b4:	650d                	lui	a0,0x3
     7b6:	46050513          	addi	a0,a0,1120 # 3460 <stream_vscanf+0x570>
     7ba:	7fb010ef          	jal	ra,27b4 <riscprintf_>
     7be:	648d                	lui	s1,0x3
     7c0:	640d                	lui	s0,0x3
     7c2:	fb002783          	lw	a5,-80(zero) # ffffffb0 <__ram_end+0xfffeffb0>
     7c6:	eb99                	bnez	a5,7dc <_Z8mainloopv+0x76>
     7c8:	3f29                	jal	6e2 <_Z12core_poll_iov>
     7ca:	3f29                	jal	6e4 <_Z15core_reg_updatev>
     7cc:	f0002783          	lw	a5,-256(zero) # ffffff00 <__ram_end+0xfffeff00>
     7d0:	8b85                	andi	a5,a5,1
     7d2:	dbe5                	beqz	a5,7c2 <_Z8mainloopv+0x5c>
     7d4:	3da9                	jal	62e <_Z15full_core_resetv>
     7d6:	fb002783          	lw	a5,-80(zero) # ffffffb0 <__ram_end+0xfffeffb0>
     7da:	d7fd                	beqz	a5,7c8 <_Z8mainloopv+0x62>
     7dc:	47848513          	addi	a0,s1,1144 # 3478 <stream_vscanf+0x588>
     7e0:	7d5010ef          	jal	ra,27b4 <riscprintf_>
     7e4:	3dc9                	jal	6b6 <_Z21core_update_dataslotsv>
     7e6:	48c40513          	addi	a0,s0,1164 # 348c <stream_vscanf+0x59c>
     7ea:	7cb010ef          	jal	ra,27b4 <riscprintf_>
     7ee:	bfe9                	j	7c8 <_Z8mainloopv+0x62>

000007f0 <main>:
     7f0:	1141                	addi	sp,sp,-16
     7f2:	c606                	sw	ra,12(sp)
     7f4:	3f3d                	jal	732 <_Z4initv>
     7f6:	6515                	lui	a0,0x5
     7f8:	e2050513          	addi	a0,a0,-480 # 4e20 <foo1+0x454>
     7fc:	592020ef          	jal	ra,2d8e <_Z10riscusleepi>
     800:	379d                	jal	766 <_Z8mainloopv>

00000802 <_Z15pcecd_send_dataPhih>:
     802:	1141                	addi	sp,sp,-16
     804:	03600613          	li	a2,54
     808:	c606                	sw	ra,12(sp)
     80a:	2e5010ef          	jal	ra,22ee <_Z19HPS_io_file_tx_dataPKhmi>
     80e:	40b2                	lw	ra,12(sp)
     810:	4505                	li	a0,1
     812:	0141                	addi	sp,sp,16
     814:	8082                	ret

00000816 <_Z15pcecd_set_imageii>:
     816:	1101                	addi	sp,sp,-32
     818:	cc22                	sw	s0,24(sp)
     81a:	6411                	lui	s0,0x4
     81c:	c84a                	sw	s2,16(sp)
     81e:	892a                	mv	s2,a0
     820:	ae040513          	addi	a0,s0,-1312 # 3ae0 <cue>
     824:	ce06                	sw	ra,28(sp)
     826:	ca26                	sw	s1,20(sp)
     828:	c64e                	sw	s3,12(sp)
     82a:	4bb000ef          	jal	ra,14e4 <_ZN5cue_t6UnloadEv>
     82e:	ae040513          	addi	a0,s0,-1312
     832:	509000ef          	jal	ra,153a <_ZN5cue_t5ResetEv>
     836:	ae040493          	addi	s1,s0,-1312
     83a:	4985                	li	s3,1
     83c:	85ca                	mv	a1,s2
     83e:	ae040513          	addi	a0,s0,-1312
     842:	01348423          	sb	s3,8(s1)
     846:	485000ef          	jal	ra,14ca <_ZN5cue_t4LoadEi>
     84a:	02a05863          	blez	a0,87a <_Z15pcecd_set_imageii+0x64>
     84e:	44dc                	lw	a5,12(s1)
     850:	4585                	li	a1,1
     852:	03300513          	li	a0,51
     856:	0017b793          	seqz	a5,a5
     85a:	00f48423          	sb	a5,8(s1)
     85e:	47a9                	li	a5,10
     860:	c09c                	sw	a5,0(s1)
     862:	6785                	lui	a5,0x1
     864:	4462                	lw	s0,24(sp)
     866:	80278793          	addi	a5,a5,-2046 # 802 <_Z15pcecd_send_dataPhih>
     86a:	40f2                	lw	ra,28(sp)
     86c:	4942                	lw	s2,16(sp)
     86e:	49b2                	lw	s3,12(sp)
     870:	c89c                	sw	a5,16(s1)
     872:	44d2                	lw	s1,20(sp)
     874:	6105                	addi	sp,sp,32
     876:	2170106f          	j	228c <_Z16HPS_spi_uio_cmd8hh>
     87a:	ae040513          	addi	a0,s0,-1312
     87e:	467000ef          	jal	ra,14e4 <_ZN5cue_t6UnloadEv>
     882:	4581                	li	a1,0
     884:	03300513          	li	a0,51
     888:	205010ef          	jal	ra,228c <_Z16HPS_spi_uio_cmd8hh>
     88c:	01348423          	sb	s3,8(s1)
     890:	40f2                	lw	ra,28(sp)
     892:	4462                	lw	s0,24(sp)
     894:	44d2                	lw	s1,20(sp)
     896:	4942                	lw	s2,16(sp)
     898:	49b2                	lw	s3,12(sp)
     89a:	6105                	addi	sp,sp,32
     89c:	8082                	ret

0000089e <_Z10pcecd_pollv>:
     89e:	1101                	addi	sp,sp,-32
     8a0:	cc22                	sw	s0,24(sp)
     8a2:	6415                	lui	s0,0x5
     8a4:	9a842503          	lw	a0,-1624(s0) # 49a8 <_ZZ10pcecd_pollvE10poll_timer>
     8a8:	ce06                	sw	ra,28(sp)
     8aa:	ca26                	sw	s1,20(sp)
     8ac:	c84a                	sw	s2,16(sp)
     8ae:	c161                	beqz	a0,96e <_Z10pcecd_pollv+0xd0>
     8b0:	4fe020ef          	jal	ra,2dae <_Z14RISCCheckTimerm>
     8b4:	0c051563          	bnez	a0,97e <_Z10pcecd_pollv+0xe0>
     8b8:	03400513          	li	a0,52
     8bc:	179010ef          	jal	ra,2234 <_Z20HPS_spi_uio_cmd_contt>
     8c0:	6715                	lui	a4,0x5
     8c2:	9a574683          	lbu	a3,-1627(a4) # 49a5 <_ZZ10pcecd_pollvE8last_req>
     8c6:	0ff57793          	zext.b	a5,a0
     8ca:	08f68663          	beq	a3,a5,956 <_Z10pcecd_pollv+0xb8>
     8ce:	4501                	li	a0,0
     8d0:	9af702a3          	sb	a5,-1627(a4)
     8d4:	0bd010ef          	jal	ra,2190 <_Z12HPS_fpga_spit>
     8d8:	87aa                	mv	a5,a0
     8da:	4501                	li	a0,0
     8dc:	00f11023          	sh	a5,0(sp)
     8e0:	0b1010ef          	jal	ra,2190 <_Z12HPS_fpga_spit>
     8e4:	87aa                	mv	a5,a0
     8e6:	4501                	li	a0,0
     8e8:	00f11123          	sh	a5,2(sp)
     8ec:	0a5010ef          	jal	ra,2190 <_Z12HPS_fpga_spit>
     8f0:	87aa                	mv	a5,a0
     8f2:	4501                	li	a0,0
     8f4:	00f11223          	sh	a5,4(sp)
     8f8:	099010ef          	jal	ra,2190 <_Z12HPS_fpga_spit>
     8fc:	87aa                	mv	a5,a0
     8fe:	4501                	li	a0,0
     900:	00f11323          	sh	a5,6(sp)
     904:	08d010ef          	jal	ra,2190 <_Z12HPS_fpga_spit>
     908:	87aa                	mv	a5,a0
     90a:	4501                	li	a0,0
     90c:	00f11423          	sh	a5,8(sp)
     910:	081010ef          	jal	ra,2190 <_Z12HPS_fpga_spit>
     914:	87aa                	mv	a5,a0
     916:	4501                	li	a0,0
     918:	00f11523          	sh	a5,10(sp)
     91c:	075010ef          	jal	ra,2190 <_Z12HPS_fpga_spit>
     920:	00a11623          	sh	a0,12(sp)
     924:	051010ef          	jal	ra,2174 <_Z13HPS_DisableIOv>
     928:	00c14783          	lbu	a5,12(sp)
     92c:	4705                	li	a4,1
     92e:	0ee78163          	beq	a5,a4,a10 <_Z10pcecd_pollv+0x172>
     932:	4689                	li	a3,2
     934:	6495                	lui	s1,0x5
     936:	0ad78a63          	beq	a5,a3,9ea <_Z10pcecd_pollv+0x14c>
     93a:	cfd5                	beqz	a5,9f6 <_Z10pcecd_pollv+0x158>
     93c:	9a04a623          	sw	zero,-1620(s1) # 49ac <_ZL10need_reset>
     940:	9a042423          	sw	zero,-1624(s0)
     944:	77c1                	lui	a5,0xffff0
     946:	4462                	lw	s0,24(sp)
     948:	5388                	lw	a0,32(a5)
     94a:	40f2                	lw	ra,28(sp)
     94c:	44d2                	lw	s1,20(sp)
     94e:	4942                	lw	s2,16(sp)
     950:	53cc                	lw	a1,36(a5)
     952:	6105                	addi	sp,sp,32
     954:	b5c9                	j	816 <_Z15pcecd_set_imageii>
     956:	6495                	lui	s1,0x5
     958:	01d010ef          	jal	ra,2174 <_Z13HPS_DisableIOv>
     95c:	9ac4a783          	lw	a5,-1620(s1) # 49ac <_ZL10need_reset>
     960:	fff1                	bnez	a5,93c <_Z10pcecd_pollv+0x9e>
     962:	40f2                	lw	ra,28(sp)
     964:	4462                	lw	s0,24(sp)
     966:	44d2                	lw	s1,20(sp)
     968:	4942                	lw	s2,16(sp)
     96a:	6105                	addi	sp,sp,32
     96c:	8082                	ret
     96e:	4535                	li	a0,13
     970:	42c020ef          	jal	ra,2d9c <_Z12RISCGetTimerm>
     974:	9aa42423          	sw	a0,-1624(s0)
     978:	436020ef          	jal	ra,2dae <_Z14RISCCheckTimerm>
     97c:	dd15                	beqz	a0,8b8 <_Z10pcecd_pollv+0x1a>
     97e:	6911                	lui	s2,0x4
     980:	ae090493          	addi	s1,s2,-1312 # 3ae0 <cue>
     984:	448020ef          	jal	ra,2dcc <_Z11ResetTimer2v>
     988:	4094                	lw	a3,0(s1)
     98a:	e69d                	bnez	a3,9b8 <_Z10pcecd_pollv+0x11a>
     98c:	0084c703          	lbu	a4,8(s1)
     990:	4789                	li	a5,2
     992:	02f71363          	bne	a4,a5,9b8 <_Z10pcecd_pollv+0x11a>
     996:	48dc                	lw	a5,20(s1)
     998:	4741                	li	a4,16
     99a:	9ae42423          	sw	a4,-1624(s0)
     99e:	cf95                	beqz	a5,9da <_Z10pcecd_pollv+0x13c>
     9a0:	ae090513          	addi	a0,s2,-1312
     9a4:	2f8010ef          	jal	ra,1c9c <_ZN5cue_t9GetStatusEv>
     9a8:	85aa                	mv	a1,a0
     9aa:	ae090513          	addi	a0,s2,-1312
     9ae:	30a010ef          	jal	ra,1cb8 <_ZN5cue_t10SendStatusEt>
     9b2:	0004aa23          	sw	zero,20(s1)
     9b6:	a02d                	j	9e0 <_Z10pcecd_pollv+0x142>
     9b8:	6715                	lui	a4,0x5
     9ba:	9a474783          	lbu	a5,-1628(a4) # 49a4 <_ZZ10pcecd_pollvE3adj>
     9be:	460d                	li	a2,3
     9c0:	06c78263          	beq	a5,a2,a24 <_Z10pcecd_pollv+0x186>
     9c4:	45b5                	li	a1,13
     9c6:	9ab42423          	sw	a1,-1624(s0)
     9ca:	06f67163          	bgeu	a2,a5,a2c <_Z10pcecd_pollv+0x18e>
     9ce:	4789                	li	a5,2
     9d0:	48d0                	lw	a2,20(s1)
     9d2:	9af70223          	sb	a5,-1628(a4)
     9d6:	c211                	beqz	a2,9da <_Z10pcecd_pollv+0x13c>
     9d8:	d6e1                	beqz	a3,9a0 <_Z10pcecd_pollv+0x102>
     9da:	0184c783          	lbu	a5,24(s1)
     9de:	efa9                	bnez	a5,a38 <_Z10pcecd_pollv+0x19a>
     9e0:	ae090513          	addi	a0,s2,-1312
     9e4:	3c6010ef          	jal	ra,1daa <_ZN5cue_t6UpdateEv>
     9e8:	bdc1                	j	8b8 <_Z10pcecd_pollv+0x1a>
     9ea:	6691                	lui	a3,0x4
     9ec:	9ac4a783          	lw	a5,-1620(s1)
     9f0:	aee68ca3          	sb	a4,-1287(a3) # 3af9 <cue+0x19>
     9f4:	b7b5                	j	960 <_Z10pcecd_pollv+0xc2>
     9f6:	6911                	lui	s2,0x4
     9f8:	858a                	mv	a1,sp
     9fa:	ae090513          	addi	a0,s2,-1312 # 3ae0 <cue>
     9fe:	2a4010ef          	jal	ra,1ca2 <_ZN5cue_t10SetCommandEPh>
     a02:	ae090513          	addi	a0,s2,-1312
     a06:	37f000ef          	jal	ra,1584 <_ZN5cue_t11CommandExecEv>
     a0a:	9ac4a783          	lw	a5,-1620(s1)
     a0e:	bf89                	j	960 <_Z10pcecd_pollv+0xc2>
     a10:	6511                	lui	a0,0x4
     a12:	4581                	li	a1,0
     a14:	ae050513          	addi	a0,a0,-1312 # 3ae0 <cue>
     a18:	6495                	lui	s1,0x5
     a1a:	29e010ef          	jal	ra,1cb8 <_ZN5cue_t10SendStatusEt>
     a1e:	9ac4a783          	lw	a5,-1620(s1) # 49ac <_ZL10need_reset>
     a22:	bf3d                	j	960 <_Z10pcecd_pollv+0xc2>
     a24:	47b9                	li	a5,14
     a26:	9af42423          	sw	a5,-1624(s0)
     a2a:	b755                	j	9ce <_Z10pcecd_pollv+0x130>
     a2c:	17fd                	addi	a5,a5,-1 # fffeffff <__ram_end+0xfffdffff>
     a2e:	0ff7f793          	zext.b	a5,a5
     a32:	ffd9                	bnez	a5,9d0 <_Z10pcecd_pollv+0x132>
     a34:	478d                	li	a5,3
     a36:	bf69                	j	9d0 <_Z10pcecd_pollv+0x132>
     a38:	ae090513          	addi	a0,s2,-1312
     a3c:	2a8010ef          	jal	ra,1ce4 <_ZN5cue_t15SendDataRequestEv>
     a40:	00048c23          	sb	zero,24(s1)
     a44:	bf71                	j	9e0 <_Z10pcecd_pollv+0x142>

00000a46 <_Z14dataslot_readyv>:
     a46:	1141                	addi	sp,sp,-16
     a48:	c422                	sw	s0,8(sp)
     a4a:	f9002403          	lw	s0,-112(zero) # ffffff90 <__ram_end+0xfffeff90>
     a4e:	c606                	sw	ra,12(sp)
     a50:	00747593          	andi	a1,s0,7
     a54:	e981                	bnez	a1,a64 <_Z14dataslot_readyv+0x1e>
     a56:	40b2                	lw	ra,12(sp)
     a58:	00345513          	srli	a0,s0,0x3
     a5c:	4422                	lw	s0,8(sp)
     a5e:	8905                	andi	a0,a0,1
     a60:	0141                	addi	sp,sp,16
     a62:	8082                	ret
     a64:	650d                	lui	a0,0x3
     a66:	4a050513          	addi	a0,a0,1184 # 34a0 <stream_vscanf+0x5b0>
     a6a:	54b010ef          	jal	ra,27b4 <riscprintf_>
     a6e:	40b2                	lw	ra,12(sp)
     a70:	00345513          	srli	a0,s0,0x3
     a74:	4422                	lw	s0,8(sp)
     a76:	8905                	andi	a0,a0,1
     a78:	0141                	addi	sp,sp,16
     a7a:	8082                	ret

00000a7c <_Z13dataslot_sizet>:
     a7c:	7741                	lui	a4,0xffff0
     a7e:	4781                	li	a5,0
     a80:	10200613          	li	a2,258
     a84:	a021                	j	a8c <_Z13dataslot_sizet+0x10>
     a86:	0789                	addi	a5,a5,2
     a88:	00c78c63          	beq	a5,a2,aa0 <_Z13dataslot_sizet+0x24>
     a8c:	4314                	lw	a3,0(a4)
     a8e:	0721                	addi	a4,a4,8 # ffff0008 <__ram_end+0xfffe0008>
     a90:	fea69be3          	bne	a3,a0,a86 <_Z13dataslot_sizet+0xa>
     a94:	0785                	addi	a5,a5,1
     a96:	7741                	lui	a4,0xffff0
     a98:	078a                	slli	a5,a5,0x2
     a9a:	97ba                	add	a5,a5,a4
     a9c:	4388                	lw	a0,0(a5)
     a9e:	8082                	ret
     aa0:	77c1                	lui	a5,0xffff0
     aa2:	0791                	addi	a5,a5,4 # ffff0004 <__ram_end+0xfffe0004>
     aa4:	4388                	lw	a0,0(a5)
     aa6:	8082                	ret

00000aa8 <_Z13dataslot_readtmmm>:
     aa8:	1101                	addi	sp,sp,-32
     aaa:	ca26                	sw	s1,20(sp)
     aac:	c84a                	sw	s2,16(sp)
     aae:	c64e                	sw	s3,12(sp)
     ab0:	c452                	sw	s4,8(sp)
     ab2:	ce06                	sw	ra,28(sp)
     ab4:	cc22                	sw	s0,24(sp)
     ab6:	f8a02023          	sw	a0,-128(zero) # ffffff80 <__ram_end+0xfffeff80>
     aba:	f8b02223          	sw	a1,-124(zero) # ffffff84 <__ram_end+0xfffeff84>
     abe:	f8d02423          	sw	a3,-120(zero) # ffffff88 <__ram_end+0xfffeff88>
     ac2:	f8c02623          	sw	a2,-116(zero) # ffffff8c <__ram_end+0xfffeff8c>
     ac6:	4785                	li	a5,1
     ac8:	f8f02823          	sw	a5,-112(zero) # ffffff90 <__ram_end+0xfffeff90>
     acc:	8932                	mv	s2,a2
     ace:	f8402603          	lw	a2,-124(zero) # ffffff84 <__ram_end+0xfffeff84>
     ad2:	84aa                	mv	s1,a0
     ad4:	8a2e                	mv	s4,a1
     ad6:	85aa                	mv	a1,a0
     ad8:	650d                	lui	a0,0x3
     ada:	8736                	mv	a4,a3
     adc:	89b6                	mv	s3,a3
     ade:	4c050513          	addi	a0,a0,1216 # 34c0 <stream_vscanf+0x5d0>
     ae2:	86ca                	mv	a3,s2
     ae4:	4d1010ef          	jal	ra,27b4 <riscprintf_>
     ae8:	4801                	li	a6,0
     aea:	f9002403          	lw	s0,-112(zero) # ffffff90 <__ram_end+0xfffeff90>
     aee:	0805                	addi	a6,a6,1
     af0:	3e982893          	slti	a7,a6,1001
     af4:	00445793          	srli	a5,s0,0x4
     af8:	881d                	andi	s0,s0,7
     afa:	8b85                	andi	a5,a5,1
     afc:	ec11                	bnez	s0,b18 <_Z13dataslot_readtmmm+0x70>
     afe:	d7f5                	beqz	a5,aea <_Z13dataslot_readtmmm+0x42>
     b00:	02088f63          	beqz	a7,b3e <_Z13dataslot_readtmmm+0x96>
     b04:	f9002403          	lw	s0,-112(zero) # ffffff90 <__ram_end+0xfffeff90>
     b08:	0805                	addi	a6,a6,1
     b0a:	3e982893          	slti	a7,a6,1001
     b0e:	00445793          	srli	a5,s0,0x4
     b12:	881d                	andi	s0,s0,7
     b14:	8b85                	andi	a5,a5,1
     b16:	d465                	beqz	s0,afe <_Z13dataslot_readtmmm+0x56>
     b18:	650d                	lui	a0,0x3
     b1a:	874e                	mv	a4,s3
     b1c:	86ca                	mv	a3,s2
     b1e:	8652                	mv	a2,s4
     b20:	85a6                	mv	a1,s1
     b22:	4e450513          	addi	a0,a0,1252 # 34e4 <stream_vscanf+0x5f4>
     b26:	48f010ef          	jal	ra,27b4 <riscprintf_>
     b2a:	40f2                	lw	ra,28(sp)
     b2c:	8522                	mv	a0,s0
     b2e:	4462                	lw	s0,24(sp)
     b30:	44d2                	lw	s1,20(sp)
     b32:	4942                	lw	s2,16(sp)
     b34:	49b2                	lw	s3,12(sp)
     b36:	4a22                	lw	s4,8(sp)
     b38:	6105                	addi	sp,sp,32
     b3a:	8082                	ret
     b3c:	e395                	bnez	a5,b60 <_Z13dataslot_readtmmm+0xb8>
     b3e:	f9002783          	lw	a5,-112(zero) # ffffff90 <__ram_end+0xfffeff90>
     b42:	0077f413          	andi	s0,a5,7
     b46:	8ba1                	andi	a5,a5,8
     b48:	d875                	beqz	s0,b3c <_Z13dataslot_readtmmm+0x94>
     b4a:	650d                	lui	a0,0x3
     b4c:	87a2                	mv	a5,s0
     b4e:	874e                	mv	a4,s3
     b50:	86ca                	mv	a3,s2
     b52:	8652                	mv	a2,s4
     b54:	85a6                	mv	a1,s1
     b56:	54850513          	addi	a0,a0,1352 # 3548 <stream_vscanf+0x658>
     b5a:	45b010ef          	jal	ra,27b4 <riscprintf_>
     b5e:	b7f1                	j	b2a <_Z13dataslot_readtmmm+0x82>
     b60:	650d                	lui	a0,0x3
     b62:	5b850513          	addi	a0,a0,1464 # 35b8 <stream_vscanf+0x6c8>
     b66:	44f010ef          	jal	ra,27b4 <riscprintf_>
     b6a:	b7c1                	j	b2a <_Z13dataslot_readtmmm+0x82>

00000b6c <_Z21dataslot_read_lba_settmm>:
     b6c:	800007b7          	lui	a5,0x80000
     b70:	f8a02023          	sw	a0,-128(zero) # ffffff80 <__ram_end+0xfffeff80>
     b74:	8ddd                	or	a1,a1,a5
     b76:	f8b02223          	sw	a1,-124(zero) # ffffff84 <__ram_end+0xfffeff84>
     b7a:	f8c02623          	sw	a2,-116(zero) # ffffff8c <__ram_end+0xfffeff8c>
     b7e:	4501                	li	a0,0
     b80:	8082                	ret

00000b82 <_Z17dataslot_read_lbam>:
     b82:	1141                	addi	sp,sp,-16
     b84:	c606                	sw	ra,12(sp)
     b86:	c422                	sw	s0,8(sp)
     b88:	f8a02423          	sw	a0,-120(zero) # ffffff88 <__ram_end+0xfffeff88>
     b8c:	4785                	li	a5,1
     b8e:	85aa                	mv	a1,a0
     b90:	f8f02823          	sw	a5,-112(zero) # ffffff90 <__ram_end+0xfffeff90>
     b94:	4701                	li	a4,0
     b96:	f9002783          	lw	a5,-112(zero) # ffffff90 <__ram_end+0xfffeff90>
     b9a:	0705                	addi	a4,a4,1 # ffff0001 <__ram_end+0xfffe0001>
     b9c:	06572693          	slti	a3,a4,101
     ba0:	8391                	srli	a5,a5,0x4
     ba2:	8b85                	andi	a5,a5,1
     ba4:	dbed                	beqz	a5,b96 <_Z17dataslot_read_lbam+0x14>
     ba6:	fae5                	bnez	a3,b96 <_Z17dataslot_read_lbam+0x14>
     ba8:	f9002783          	lw	a5,-112(zero) # ffffff90 <__ram_end+0xfffeff90>
     bac:	0077f413          	andi	s0,a5,7
     bb0:	8ba1                	andi	a5,a5,8
     bb2:	e801                	bnez	s0,bc2 <_Z17dataslot_read_lbam+0x40>
     bb4:	e38d                	bnez	a5,bd6 <_Z17dataslot_read_lbam+0x54>
     bb6:	f9002783          	lw	a5,-112(zero) # ffffff90 <__ram_end+0xfffeff90>
     bba:	0077f413          	andi	s0,a5,7
     bbe:	8ba1                	andi	a5,a5,8
     bc0:	d875                	beqz	s0,bb4 <_Z17dataslot_read_lbam+0x32>
     bc2:	650d                	lui	a0,0x3
     bc4:	5cc50513          	addi	a0,a0,1484 # 35cc <stream_vscanf+0x6dc>
     bc8:	3ed010ef          	jal	ra,27b4 <riscprintf_>
     bcc:	40b2                	lw	ra,12(sp)
     bce:	8522                	mv	a0,s0
     bd0:	4422                	lw	s0,8(sp)
     bd2:	0141                	addi	sp,sp,16
     bd4:	8082                	ret
     bd6:	f8c02783          	lw	a5,-116(zero) # ffffff8c <__ram_end+0xfffeff8c>
     bda:	40b2                	lw	ra,12(sp)
     bdc:	8522                	mv	a0,s0
     bde:	4422                	lw	s0,8(sp)
     be0:	97ae                	add	a5,a5,a1
     be2:	f8f02623          	sw	a5,-116(zero) # ffffff8c <__ram_end+0xfffeff8c>
     be6:	0141                	addi	sp,sp,16
     be8:	8082                	ret

00000bea <_Z22dataslot_read_lba_fastmb>:
     bea:	c905                	beqz	a0,c1a <_Z22dataslot_read_lba_fastmb+0x30>
     bec:	f8a02423          	sw	a0,-120(zero) # ffffff88 <__ram_end+0xfffeff88>
     bf0:	4785                	li	a5,1
     bf2:	f8f02823          	sw	a5,-112(zero) # ffffff90 <__ram_end+0xfffeff90>
     bf6:	c195                	beqz	a1,c1a <_Z22dataslot_read_lba_fastmb+0x30>
     bf8:	6689                	lui	a3,0x2
     bfa:	4701                	li	a4,0
     bfc:	71168693          	addi	a3,a3,1809 # 2711 <_ZL10_ntoa_longPFvcPvjjEPcjjmbmjjj.constprop.0+0x399>
     c00:	f9002783          	lw	a5,-112(zero) # ffffff90 <__ram_end+0xfffeff90>
     c04:	0705                	addi	a4,a4,1
     c06:	8391                	srli	a5,a5,0x4
     c08:	8b85                	andi	a5,a5,1
     c0a:	dbfd                	beqz	a5,c00 <_Z22dataslot_read_lba_fastmb+0x16>
     c0c:	fed74ae3          	blt	a4,a3,c00 <_Z22dataslot_read_lba_fastmb+0x16>
     c10:	f8c02783          	lw	a5,-116(zero) # ffffff8c <__ram_end+0xfffeff8c>
     c14:	97aa                	add	a5,a5,a0
     c16:	f8f02623          	sw	a5,-116(zero) # ffffff8c <__ram_end+0xfffeff8c>
     c1a:	4501                	li	a0,0
     c1c:	8082                	ret

00000c1e <_Z14clearbufferramv>:
     c1e:	67a1                	lui	a5,0x8
     c20:	6741                	lui	a4,0x10
     c22:	0007a023          	sw	zero,0(a5) # 8000 <sector_buffer0>
     c26:	0791                	addi	a5,a5,4
     c28:	fee79de3          	bne	a5,a4,c22 <_Z14clearbufferramv+0x4>
     c2c:	8082                	ret

00000c2e <_Z12RISCFileSeekimm>:
     c2e:	715d                	addi	sp,sp,-80
     c30:	ce6e                	sw	s11,28(sp)
     c32:	6d95                	lui	s11,0x5
     c34:	9c8da703          	lw	a4,-1592(s11) # 49c8 <sector_buffer_dataslot>
     c38:	c4a2                	sw	s0,72(sp)
     c3a:	c2a6                	sw	s1,68(sp)
     c3c:	c0ca                	sw	s2,64(sp)
     c3e:	dc52                	sw	s4,56(sp)
     c40:	da56                	sw	s5,52(sp)
     c42:	d85a                	sw	s6,48(sp)
     c44:	d462                	sw	s8,40(sp)
     c46:	6a15                	lui	s4,0x5
     c48:	6a95                	lui	s5,0x5
     c4a:	842a                	mv	s0,a0
     c4c:	6b21                	lui	s6,0x8
     c4e:	6c31                	lui	s8,0xc
     c50:	c686                	sw	ra,76(sp)
     c52:	de4e                	sw	s3,60(sp)
     c54:	d65e                	sw	s7,44(sp)
     c56:	d266                	sw	s9,36(sp)
     c58:	d06a                	sw	s10,32(sp)
     c5a:	9c4a2783          	lw	a5,-1596(s4) # 49c4 <sector_buffer0_address>
     c5e:	9c0aa503          	lw	a0,-1600(s5) # 49c0 <sector_buffer1_address>
     c62:	84ae                	mv	s1,a1
     c64:	8932                	mv	s2,a2
     c66:	000b0b13          	mv	s6,s6
     c6a:	000c0c13          	mv	s8,s8
     c6e:	06870e63          	beq	a4,s0,cea <_Z12RISCFileSeekimm+0xbc>
     c72:	6715                	lui	a4,0x5
     c74:	6795                	lui	a5,0x5
     c76:	9b27ae23          	sw	s2,-1604(a5) # 49bc <sector_buffer_size>
     c7a:	6795                	lui	a5,0x5
     c7c:	9c8da423          	sw	s0,-1592(s11)
     c80:	9c9a2223          	sw	s1,-1596(s4)
     c84:	9c0aa023          	sw	zero,-1600(s5)
     c88:	9a072c23          	sw	zero,-1608(a4) # 49b8 <sector_buffer_selector>
     c8c:	9a07aa23          	sw	zero,-1612(a5) # 49b4 <sector_buffer_offset>
     c90:	3b5d                	jal	a46 <_Z14dataslot_readyv>
     c92:	dd7d                	beqz	a0,c90 <_Z12RISCFileSeekimm+0x62>
     c94:	9c4a2603          	lw	a2,-1596(s4)
     c98:	0442                	slli	s0,s0,0x10
     c9a:	8041                	srli	s0,s0,0x10
     c9c:	85da                	mv	a1,s6
     c9e:	8522                	mv	a0,s0
     ca0:	35f1                	jal	b6c <_Z21dataslot_read_lba_settmm>
     ca2:	9c4a2903          	lw	s2,-1596(s4)
     ca6:	8522                	mv	a0,s0
     ca8:	3bd1                	jal	a7c <_Z13dataslot_sizet>
     caa:	41250533          	sub	a0,a0,s2
     cae:	6791                	lui	a5,0x4
     cb0:	00f54363          	blt	a0,a5,cb6 <_Z12RISCFileSeekimm+0x88>
     cb4:	6511                	lui	a0,0x4
     cb6:	35f1                	jal	b82 <_Z17dataslot_read_lbam>
     cb8:	8522                	mv	a0,s0
     cba:	33c9                	jal	a7c <_Z13dataslot_sizet>
     cbc:	6911                	lui	s2,0x4
     cbe:	10a96763          	bltu	s2,a0,dcc <_Z12RISCFileSeekimm+0x19e>
     cc2:	6795                	lui	a5,0x5
     cc4:	4705                	li	a4,1
     cc6:	9ae7a823          	sw	a4,-1616(a5) # 49b0 <sector_buffer_processing>
     cca:	40b6                	lw	ra,76(sp)
     ccc:	4426                	lw	s0,72(sp)
     cce:	4496                	lw	s1,68(sp)
     cd0:	4906                	lw	s2,64(sp)
     cd2:	59f2                	lw	s3,60(sp)
     cd4:	5a62                	lw	s4,56(sp)
     cd6:	5ad2                	lw	s5,52(sp)
     cd8:	5b42                	lw	s6,48(sp)
     cda:	5bb2                	lw	s7,44(sp)
     cdc:	5c22                	lw	s8,40(sp)
     cde:	5c92                	lw	s9,36(sp)
     ce0:	5d02                	lw	s10,32(sp)
     ce2:	4df2                	lw	s11,28(sp)
     ce4:	4505                	li	a0,1
     ce6:	6161                	addi	sp,sp,80
     ce8:	8082                	ret
     cea:	6715                	lui	a4,0x5
     cec:	9b872303          	lw	t1,-1608(a4) # 49b8 <sector_buffer_selector>
     cf0:	95b2                	add	a1,a1,a2
     cf2:	6611                	lui	a2,0x4
     cf4:	963e                	add	a2,a2,a5
     cf6:	00f4b6b3          	sltu	a3,s1,a5
     cfa:	00c5be33          	sltu	t3,a1,a2
     cfe:	0016c693          	xori	a3,a3,1
     d02:	fff30893          	addi	a7,t1,-1
     d06:	00de7833          	and	a6,t3,a3
     d0a:	04089763          	bnez	a7,d58 <_Z12RISCFileSeekimm+0x12a>
     d0e:	04080563          	beqz	a6,d58 <_Z12RISCFileSeekimm+0x12a>
     d12:	8c9d                	sub	s1,s1,a5
     d14:	9a072c23          	sw	zero,-1608(a4)
     d18:	6715                	lui	a4,0x5
     d1a:	9a972a23          	sw	s1,-1612(a4) # 49b4 <sector_buffer_offset>
     d1e:	6695                	lui	a3,0x5
     d20:	6711                	lui	a4,0x4
     d22:	97ba                	add	a5,a5,a4
     d24:	4705                	li	a4,1
     d26:	9ae6a823          	sw	a4,-1616(a3) # 49b0 <sector_buffer_processing>
     d2a:	9cfaa023          	sw	a5,-1600(s5)
     d2e:	3b21                	jal	a46 <_Z14dataslot_readyv>
     d30:	dd7d                	beqz	a0,d2e <_Z12RISCFileSeekimm+0x100>
     d32:	9c0aa603          	lw	a2,-1600(s5)
     d36:	0442                	slli	s0,s0,0x10
     d38:	8041                	srli	s0,s0,0x10
     d3a:	85e2                	mv	a1,s8
     d3c:	8522                	mv	a0,s0
     d3e:	353d                	jal	b6c <_Z21dataslot_read_lba_settmm>
     d40:	9c0aa483          	lw	s1,-1600(s5)
     d44:	8522                	mv	a0,s0
     d46:	3b1d                	jal	a7c <_Z13dataslot_sizet>
     d48:	8d05                	sub	a0,a0,s1
     d4a:	6791                	lui	a5,0x4
     d4c:	00f54363          	blt	a0,a5,d52 <_Z12RISCFileSeekimm+0x124>
     d50:	6511                	lui	a0,0x4
     d52:	4581                	li	a1,0
     d54:	3d59                	jal	bea <_Z22dataslot_read_lba_fastmb>
     d56:	bf95                	j	cca <_Z12RISCFileSeekimm+0x9c>
     d58:	6e91                	lui	t4,0x4
     d5a:	00a4b8b3          	sltu	a7,s1,a0
     d5e:	9eaa                	add	t4,t4,a0
     d60:	8e09                	sub	a2,a2,a0
     d62:	01d5b5b3          	sltu	a1,a1,t4
     d66:	ffe8ed13          	ori	s10,a7,-2
     d6a:	00163613          	seqz	a2,a2
     d6e:	00cd7d33          	and	s10,s10,a2
     d72:	00b6f633          	and	a2,a3,a1
     d76:	0018c893          	xori	a7,a7,1
     d7a:	00cd7cb3          	and	s9,s10,a2
     d7e:	8d66                	mv	s10,s9
     d80:	0115f5b3          	and	a1,a1,a7
     d84:	06031663          	bnez	t1,df0 <_Z12RISCFileSeekimm+0x1c2>
     d88:	c5a5                	beqz	a1,df0 <_Z12RISCFileSeekimm+0x1c2>
     d8a:	6695                	lui	a3,0x5
     d8c:	9a06a823          	sw	zero,-1616(a3) # 49b0 <sector_buffer_processing>
     d90:	10081963          	bnez	a6,ea2 <_Z12RISCFileSeekimm+0x274>
     d94:	100d1763          	bnez	s10,ea2 <_Z12RISCFileSeekimm+0x274>
     d98:	4785                	li	a5,1
     d9a:	8c89                	sub	s1,s1,a0
     d9c:	9af72c23          	sw	a5,-1608(a4) # 39b8 <sector_list+0xb0>
     da0:	6795                	lui	a5,0x5
     da2:	9a97aa23          	sw	s1,-1612(a5) # 49b4 <sector_buffer_offset>
     da6:	6791                	lui	a5,0x4
     da8:	953e                	add	a0,a0,a5
     daa:	4785                	li	a5,1
     dac:	9af6a823          	sw	a5,-1616(a3)
     db0:	9caa2223          	sw	a0,-1596(s4)
     db4:	3949                	jal	a46 <_Z14dataslot_readyv>
     db6:	dd7d                	beqz	a0,db4 <_Z12RISCFileSeekimm+0x186>
     db8:	9c4a2603          	lw	a2,-1596(s4)
     dbc:	0442                	slli	s0,s0,0x10
     dbe:	8041                	srli	s0,s0,0x10
     dc0:	85da                	mv	a1,s6
     dc2:	8522                	mv	a0,s0
     dc4:	3365                	jal	b6c <_Z21dataslot_read_lba_settmm>
     dc6:	9c4a2483          	lw	s1,-1596(s4)
     dca:	bfad                	j	d44 <_Z12RISCFileSeekimm+0x116>
     dcc:	01248633          	add	a2,s1,s2
     dd0:	85e2                	mv	a1,s8
     dd2:	8522                	mv	a0,s0
     dd4:	9ccaa023          	sw	a2,-1600(s5)
     dd8:	3b51                	jal	b6c <_Z21dataslot_read_lba_settmm>
     dda:	9c0aa483          	lw	s1,-1600(s5)
     dde:	8522                	mv	a0,s0
     de0:	3971                	jal	a7c <_Z13dataslot_sizet>
     de2:	8d05                	sub	a0,a0,s1
     de4:	01254363          	blt	a0,s2,dea <_Z12RISCFileSeekimm+0x1bc>
     de8:	6511                	lui	a0,0x4
     dea:	4581                	li	a1,0
     dec:	3bfd                	jal	bea <_Z22dataslot_read_lba_fastmb>
     dee:	bdd1                	j	cc2 <_Z12RISCFileSeekimm+0x94>
     df0:	41d78eb3          	sub	t4,a5,t4
     df4:	fff6c993          	not	s3,a3
     df8:	001ebe93          	seqz	t4,t4
     dfc:	01d9f9b3          	and	s3,s3,t4
     e00:	011e7e33          	and	t3,t3,a7
     e04:	0105e5b3          	or	a1,a1,a6
     e08:	01c9f9b3          	and	s3,s3,t3
     e0c:	0015cb93          	xori	s7,a1,1
     e10:	060d0c63          	beqz	s10,e88 <_Z12RISCFileSeekimm+0x25a>
     e14:	060b8a63          	beqz	s7,e88 <_Z12RISCFileSeekimm+0x25a>
     e18:	c63a                	sw	a4,12(sp)
     e1a:	c442                	sw	a6,8(sp)
     e1c:	312d                	jal	a46 <_Z14dataslot_readyv>
     e1e:	4822                	lw	a6,8(sp)
     e20:	4732                	lw	a4,12(sp)
     e22:	d97d                	beqz	a0,e18 <_Z12RISCFileSeekimm+0x1ea>
     e24:	9c8da783          	lw	a5,-1592(s11)
     e28:	001ccc93          	xori	s9,s9,1
     e2c:	0019c993          	xori	s3,s3,1
     e30:	013cfcb3          	and	s9,s9,s3
     e34:	40f407b3          	sub	a5,s0,a5
     e38:	019bfbb3          	and	s7,s7,s9
     e3c:	0017b693          	seqz	a3,a5
     e40:	0176f6b3          	and	a3,a3,s7
     e44:	e20698e3          	bnez	a3,c74 <_Z12RISCFileSeekimm+0x46>
     e48:	e20796e3          	bnez	a5,c74 <_Z12RISCFileSeekimm+0x46>
     e4c:	6695                	lui	a3,0x5
     e4e:	9b06a603          	lw	a2,-1616(a3) # 49b0 <sector_buffer_processing>
     e52:	02081063          	bnez	a6,e72 <_Z12RISCFileSeekimm+0x244>
     e56:	000d1e63          	bnez	s10,e72 <_Z12RISCFileSeekimm+0x244>
     e5a:	9c0aa503          	lw	a0,-1600(s5)
     e5e:	4785                	li	a5,1
     e60:	9af72c23          	sw	a5,-1608(a4)
     e64:	8c89                	sub	s1,s1,a0
     e66:	6795                	lui	a5,0x5
     e68:	9a97aa23          	sw	s1,-1612(a5) # 49b4 <sector_buffer_offset>
     e6c:	e4061fe3          	bnez	a2,cca <_Z12RISCFileSeekimm+0x9c>
     e70:	bf1d                	j	da6 <_Z12RISCFileSeekimm+0x178>
     e72:	9c4a2783          	lw	a5,-1596(s4)
     e76:	9a072c23          	sw	zero,-1608(a4)
     e7a:	6715                	lui	a4,0x5
     e7c:	8c9d                	sub	s1,s1,a5
     e7e:	9a972a23          	sw	s1,-1612(a4) # 49b4 <sector_buffer_offset>
     e82:	e40614e3          	bnez	a2,cca <_Z12RISCFileSeekimm+0x9c>
     e86:	bd69                	j	d20 <_Z12RISCFileSeekimm+0xf2>
     e88:	00098b63          	beqz	s3,e9e <_Z12RISCFileSeekimm+0x270>
     e8c:	000b8963          	beqz	s7,e9e <_Z12RISCFileSeekimm+0x270>
     e90:	c63a                	sw	a4,12(sp)
     e92:	c442                	sw	a6,8(sp)
     e94:	3e4d                	jal	a46 <_Z14dataslot_readyv>
     e96:	4822                	lw	a6,8(sp)
     e98:	4732                	lw	a4,12(sp)
     e9a:	d97d                	beqz	a0,e90 <_Z12RISCFileSeekimm+0x262>
     e9c:	b761                	j	e24 <_Z12RISCFileSeekimm+0x1f6>
     e9e:	87a2                	mv	a5,s0
     ea0:	b761                	j	e28 <_Z12RISCFileSeekimm+0x1fa>
     ea2:	8c9d                	sub	s1,s1,a5
     ea4:	9a072c23          	sw	zero,-1608(a4)
     ea8:	6715                	lui	a4,0x5
     eaa:	9a972a23          	sw	s1,-1612(a4) # 49b4 <sector_buffer_offset>
     eae:	bd8d                	j	d20 <_Z12RISCFileSeekimm+0xf2>

00000eb0 <_Z15RISCFileReadAdvihhhm>:
     eb0:	1101                	addi	sp,sp,-32
     eb2:	c452                	sw	s4,8(sp)
     eb4:	6795                	lui	a5,0x5
     eb6:	6a15                	lui	s4,0x5
     eb8:	9bc7a783          	lw	a5,-1604(a5) # 49bc <sector_buffer_size>
     ebc:	c64e                	sw	s3,12(sp)
     ebe:	9b4a2983          	lw	s3,-1612(s4) # 49b4 <sector_buffer_offset>
     ec2:	cc22                	sw	s0,24(sp)
     ec4:	ca26                	sw	s1,20(sp)
     ec6:	c84a                	sw	s2,16(sp)
     ec8:	0622                	slli	a2,a2,0x8
     eca:	ce06                	sw	ra,28(sp)
     ecc:	c256                	sw	s5,4(sp)
     ece:	97ce                	add	a5,a5,s3
     ed0:	6511                	lui	a0,0x4
     ed2:	8936                	mv	s2,a3
     ed4:	84ba                	mv	s1,a4
     ed6:	00b66433          	or	s0,a2,a1
     eda:	02a7f863          	bgeu	a5,a0,f0a <_Z15RISCFileReadAdvihhhm+0x5a>
     ede:	6795                	lui	a5,0x5
     ee0:	9b87a783          	lw	a5,-1608(a5) # 49b8 <sector_buffer_selector>
     ee4:	cfc9                	beqz	a5,f7e <_Z15RISCFileReadAdvihhhm+0xce>
     ee6:	67b1                	lui	a5,0xc
     ee8:	00078793          	mv	a5,a5
     eec:	99be                	add	s3,s3,a5
     eee:	272010ef          	jal	ra,2160 <_Z12HPS_EnableIOv>
     ef2:	854a                	mv	a0,s2
     ef4:	29c010ef          	jal	ra,2190 <_Z12HPS_fpga_spit>
     ef8:	8522                	mv	a0,s0
     efa:	296010ef          	jal	ra,2190 <_Z12HPS_fpga_spit>
     efe:	4605                	li	a2,1
     f00:	85a6                	mv	a1,s1
     f02:	854e                	mv	a0,s3
     f04:	2d0010ef          	jal	ra,21d4 <_Z13HPS_spi_writePKhmi>
     f08:	a0b9                	j	f56 <_Z15RISCFileReadAdvihhhm+0xa6>
     f0a:	3e35                	jal	a46 <_Z14dataslot_readyv>
     f0c:	dd7d                	beqz	a0,f0a <_Z15RISCFileReadAdvihhhm+0x5a>
     f0e:	6795                	lui	a5,0x5
     f10:	9b87a703          	lw	a4,-1608(a5) # 49b8 <sector_buffer_selector>
     f14:	77f1                	lui	a5,0xffffc
     f16:	97ce                	add	a5,a5,s3
     f18:	9b4a2a83          	lw	s5,-1612(s4)
     f1c:	94be                	add	s1,s1,a5
     f1e:	cb21                	beqz	a4,f6e <_Z15RISCFileReadAdvihhhm+0xbe>
     f20:	67b1                	lui	a5,0xc
     f22:	00078793          	mv	a5,a5
     f26:	6a21                	lui	s4,0x8
     f28:	9abe                	add	s5,s5,a5
     f2a:	000a0a13          	mv	s4,s4
     f2e:	232010ef          	jal	ra,2160 <_Z12HPS_EnableIOv>
     f32:	854a                	mv	a0,s2
     f34:	25c010ef          	jal	ra,2190 <_Z12HPS_fpga_spit>
     f38:	8522                	mv	a0,s0
     f3a:	256010ef          	jal	ra,2190 <_Z12HPS_fpga_spit>
     f3e:	6591                	lui	a1,0x4
     f40:	413585b3          	sub	a1,a1,s3
     f44:	8556                	mv	a0,s5
     f46:	4605                	li	a2,1
     f48:	28c010ef          	jal	ra,21d4 <_Z13HPS_spi_writePKhmi>
     f4c:	4605                	li	a2,1
     f4e:	85a6                	mv	a1,s1
     f50:	8552                	mv	a0,s4
     f52:	282010ef          	jal	ra,21d4 <_Z13HPS_spi_writePKhmi>
     f56:	21e010ef          	jal	ra,2174 <_Z13HPS_DisableIOv>
     f5a:	40f2                	lw	ra,28(sp)
     f5c:	4462                	lw	s0,24(sp)
     f5e:	44d2                	lw	s1,20(sp)
     f60:	4942                	lw	s2,16(sp)
     f62:	49b2                	lw	s3,12(sp)
     f64:	4a22                	lw	s4,8(sp)
     f66:	4a92                	lw	s5,4(sp)
     f68:	4505                	li	a0,1
     f6a:	6105                	addi	sp,sp,32
     f6c:	8082                	ret
     f6e:	67a1                	lui	a5,0x8
     f70:	00078793          	mv	a5,a5
     f74:	6a31                	lui	s4,0xc
     f76:	9abe                	add	s5,s5,a5
     f78:	000a0a13          	mv	s4,s4
     f7c:	bf4d                	j	f2e <_Z15RISCFileReadAdvihhhm+0x7e>
     f7e:	67a1                	lui	a5,0x8
     f80:	00078793          	mv	a5,a5
     f84:	99be                	add	s3,s3,a5
     f86:	b7a5                	j	eee <_Z15RISCFileReadAdvihhhm+0x3e>

00000f88 <_ZN5cue_t7LoadCUEEi>:
     f88:	715d                	addi	sp,sp,-80
     f8a:	de4e                	sw	s3,60(sp)
     f8c:	89aa                	mv	s3,a0
     f8e:	06400513          	li	a0,100
     f92:	c686                	sw	ra,76(sp)
     f94:	c4a2                	sw	s0,72(sp)
     f96:	c2a6                	sw	s1,68(sp)
     f98:	c0ca                	sw	s2,64(sp)
     f9a:	84ae                	mv	s1,a1
     f9c:	dc52                	sw	s4,56(sp)
     f9e:	da56                	sw	s5,52(sp)
     fa0:	d85a                	sw	s6,48(sp)
     fa2:	d462                	sw	s8,40(sp)
     fa4:	d266                	sw	s9,36(sp)
     fa6:	d06a                	sw	s10,32(sp)
     fa8:	d65e                	sw	s7,44(sp)
     faa:	ce6e                	sw	s11,28(sp)
     fac:	3cc1                	jal	a7c <_Z13dataslot_sizet>
     fae:	842a                	mv	s0,a0
     fb0:	06600513          	li	a0,102
     fb4:	34e1                	jal	a7c <_Z13dataslot_sizet>
     fb6:	6785                	lui	a5,0x1
     fb8:	7741                	lui	a4,0xffff0
     fba:	80078793          	addi	a5,a5,-2048 # 800 <main+0x10>
     fbe:	cb5c                	sw	a5,20(a4)
     fc0:	6c15                	lui	s8,0x5
     fc2:	67a1                	lui	a5,0x8
     fc4:	8b2a                	mv	s6,a0
     fc6:	9cfc2623          	sw	a5,-1588(s8) # 49cc <foo1>
     fca:	3991                	jal	c1e <_Z14clearbufferramv>
     fcc:	9ccc2783          	lw	a5,-1588(s8)
     fd0:	01049513          	slli	a0,s1,0x10
     fd4:	800005b7          	lui	a1,0x80000
     fd8:	86a2                	mv	a3,s0
     fda:	4601                	li	a2,0
     fdc:	8ddd                	or	a1,a1,a5
     fde:	8141                	srli	a0,a0,0x10
     fe0:	34e1                	jal	aa8 <_Z13dataslot_readtmmm>
     fe2:	4a01                	li	s4,0
     fe4:	4a81                	li	s5,0
     fe6:	6911                	lui	s2,0x4
     fe8:	4cb5                	li	s9,13
     fea:	07e00d13          	li	s10,126
     fee:	648d                	lui	s1,0x3
     ff0:	9ccc2783          	lw	a5,-1588(s8)
     ff4:	a6090023          	sb	zero,-1440(s2) # 3a60 <_ZZN5cue_t7LoadCUEEiE4line>
     ff8:	a6090b93          	addi	s7,s2,-1440
     ffc:	c63e                	sw	a5,12(sp)
     ffe:	0007c703          	lbu	a4,0(a5) # 8000 <sector_buffer0>
    1002:	cf31                	beqz	a4,105e <_ZN5cue_t7LoadCUEEi+0xd6>
    1004:	9ccc2683          	lw	a3,-1588(s8)
    1008:	4601                	li	a2,0
    100a:	48a9                	li	a7,10
    100c:	15170563          	beq	a4,a7,1156 <_ZN5cue_t7LoadCUEEi+0x1ce>
    1010:	0785                	addi	a5,a5,1
    1012:	0685                	addi	a3,a3,1
    1014:	01970f63          	beq	a4,s9,1032 <_ZN5cue_t7LoadCUEEi+0xaa>
    1018:	00160593          	addi	a1,a2,1 # 4001 <cue+0x521>
    101c:	01760833          	add	a6,a2,s7
    1020:	01758533          	add	a0,a1,s7
    1024:	00cd4763          	blt	s10,a2,1032 <_ZN5cue_t7LoadCUEEi+0xaa>
    1028:	00e80023          	sb	a4,0(a6)
    102c:	00050023          	sb	zero,0(a0) # 4000 <cue+0x520>
    1030:	862e                	mv	a2,a1
    1032:	c63e                	sw	a5,12(sp)
    1034:	9cdc2623          	sw	a3,-1588(s8)
    1038:	0007c703          	lbu	a4,0(a5)
    103c:	fb61                	bnez	a4,100c <_ZN5cue_t7LoadCUEEi+0x84>
    103e:	0007c783          	lbu	a5,0(a5)
    1042:	cf91                	beqz	a5,105e <_ZN5cue_t7LoadCUEEi+0xd6>
    1044:	9ccc2583          	lw	a1,-1588(s8)
    1048:	0074                	addi	a3,sp,12
    104a:	6d848513          	addi	a0,s1,1752 # 36d8 <stream_vscanf+0x7e8>
    104e:	766010ef          	jal	ra,27b4 <riscprintf_>
    1052:	9ccc2783          	lw	a5,-1588(s8)
    1056:	7761                	lui	a4,0xffff8
    1058:	973e                	add	a4,a4,a5
    105a:	fa8771e3          	bgeu	a4,s0,ffc <_ZN5cue_t7LoadCUEEi+0x74>
    105e:	a6094783          	lbu	a5,-1440(s2)
    1062:	22078263          	beqz	a5,1286 <_ZN5cue_t7LoadCUEEi+0x2fe>
    1066:	650d                	lui	a0,0x3
    1068:	a6090593          	addi	a1,s2,-1440
    106c:	5fc50513          	addi	a0,a0,1532 # 35fc <stream_vscanf+0x70c>
    1070:	744010ef          	jal	ra,27b4 <riscprintf_>
    1074:	a6094703          	lbu	a4,-1440(s2)
    1078:	02000793          	li	a5,32
    107c:	a6090b93          	addi	s7,s2,-1440
    1080:	00f71963          	bne	a4,a5,1092 <_ZN5cue_t7LoadCUEEi+0x10a>
    1084:	02000713          	li	a4,32
    1088:	001bc783          	lbu	a5,1(s7)
    108c:	0b85                	addi	s7,s7,1
    108e:	fee78de3          	beq	a5,a4,1088 <_ZN5cue_t7LoadCUEEi+0x100>
    1092:	000bc703          	lbu	a4,0(s7)
    1096:	04600793          	li	a5,70
    109a:	0cf70663          	beq	a4,a5,1166 <_ZN5cue_t7LoadCUEEi+0x1de>
    109e:	6d8d                	lui	s11,0x3
    10a0:	0030                	addi	a2,sp,8
    10a2:	630d8593          	addi	a1,s11,1584 # 3630 <stream_vscanf+0x740>
    10a6:	855e                	mv	a0,s7
    10a8:	58b010ef          	jal	ra,2e32 <sscanf>
    10ac:	16050363          	beqz	a0,1212 <_ZN5cue_t7LoadCUEEi+0x28a>
    10b0:	0209a783          	lw	a5,32(s3)
    10b4:	46a2                	lw	a3,8(sp)
    10b6:	00178713          	addi	a4,a5,1
    10ba:	1cd71863          	bne	a4,a3,128a <_ZN5cue_t7LoadCUEEi+0x302>
    10be:	120b0363          	beqz	s6,11e4 <_ZN5cue_t7LoadCUEEi+0x25c>
    10c2:	02c00693          	li	a3,44
    10c6:	02d78633          	mul	a2,a5,a3
    10ca:	0742                	slli	a4,a4,0x10
    10cc:	06578793          	addi	a5,a5,101
    10d0:	8341                	srli	a4,a4,0x10
    10d2:	01079513          	slli	a0,a5,0x10
    10d6:	06470713          	addi	a4,a4,100 # ffff8064 <__ram_end+0xfffe8064>
    10da:	8141                	srli	a0,a0,0x10
    10dc:	964e                	add	a2,a2,s3
    10de:	d258                	sw	a4,36(a2)
    10e0:	99dff0ef          	jal	ra,a7c <_Z13dataslot_sizet>
    10e4:	0209ad83          	lw	s11,32(s3)
    10e8:	02c00693          	li	a3,44
    10ec:	02dd87b3          	mul	a5,s11,a3
    10f0:	97ce                	add	a5,a5,s3
    10f2:	d7c8                	sw	a0,44(a5)
    10f4:	0207a423          	sw	zero,40(a5)
    10f8:	02c00793          	li	a5,44
    10fc:	02fd87b3          	mul	a5,s11,a5
    1100:	97ce                	add	a5,a5,s3
    1102:	57d8                	lw	a4,44(a5)
    1104:	00e05463          	blez	a4,110c <_ZN5cue_t7LoadCUEEi+0x184>
    1108:	4705                	li	a4,1
    110a:	d798                	sw	a4,40(a5)
    110c:	658d                	lui	a1,0x3
    110e:	65858593          	addi	a1,a1,1624 # 3658 <stream_vscanf+0x768>
    1112:	855e                	mv	a0,s7
    1114:	5a5010ef          	jal	ra,2eb8 <strstr>
    1118:	14050363          	beqz	a0,125e <_ZN5cue_t7LoadCUEEi+0x2d6>
    111c:	02c00793          	li	a5,44
    1120:	02fd87b3          	mul	a5,s11,a5
    1124:	6705                	lui	a4,0x1
    1126:	80070713          	addi	a4,a4,-2048 # 800 <main+0x10>
    112a:	97ce                	add	a5,a5,s3
    112c:	c3f8                	sw	a4,68(a5)
    112e:	4705                	li	a4,1
    1130:	c3b8                	sw	a4,64(a5)
    1132:	ea0d8fe3          	beqz	s11,ff0 <_ZN5cue_t7LoadCUEEi+0x68>
    1136:	02c00713          	li	a4,44
    113a:	02ed87b3          	mul	a5,s11,a4
    113e:	97ce                	add	a5,a5,s3
    1140:	579c                	lw	a5,40(a5)
    1142:	ea0797e3          	bnez	a5,ff0 <_ZN5cue_t7LoadCUEEi+0x68>
    1146:	fffd8793          	addi	a5,s11,-1
    114a:	02e787b3          	mul	a5,a5,a4
    114e:	97ce                	add	a5,a5,s3
    1150:	0207ae23          	sw	zero,60(a5)
    1154:	bd71                	j	ff0 <_ZN5cue_t7LoadCUEEi+0x68>
    1156:	9ccc2703          	lw	a4,-1588(s8)
    115a:	0785                	addi	a5,a5,1
    115c:	c63e                	sw	a5,12(sp)
    115e:	0705                	addi	a4,a4,1
    1160:	9cec2623          	sw	a4,-1588(s8)
    1164:	bde9                	j	103e <_ZN5cue_t7LoadCUEEi+0xb6>
    1166:	001bc703          	lbu	a4,1(s7)
    116a:	04900793          	li	a5,73
    116e:	f2f718e3          	bne	a4,a5,109e <_ZN5cue_t7LoadCUEEi+0x116>
    1172:	002bc703          	lbu	a4,2(s7)
    1176:	04c00793          	li	a5,76
    117a:	f2f712e3          	bne	a4,a5,109e <_ZN5cue_t7LoadCUEEi+0x116>
    117e:	003bc703          	lbu	a4,3(s7)
    1182:	04500793          	li	a5,69
    1186:	f0f71ce3          	bne	a4,a5,109e <_ZN5cue_t7LoadCUEEi+0x116>
    118a:	658d                	lui	a1,0x3
    118c:	60c58593          	addi	a1,a1,1548 # 360c <stream_vscanf+0x71c>
    1190:	855e                	mv	a0,s7
    1192:	527010ef          	jal	ra,2eb8 <strstr>
    1196:	4a01                	li	s4,0
    1198:	c119                	beqz	a0,119e <_ZN5cue_t7LoadCUEEi+0x216>
    119a:	02c00a93          	li	s5,44
    119e:	0209a783          	lw	a5,32(s3)
    11a2:	02c00713          	li	a4,44
    11a6:	658d                	lui	a1,0x3
    11a8:	02e787b3          	mul	a5,a5,a4
    11ac:	61458593          	addi	a1,a1,1556 # 3614 <stream_vscanf+0x724>
    11b0:	855e                	mv	a0,s7
    11b2:	97ce                	add	a5,a5,s3
    11b4:	0207a823          	sw	zero,48(a5)
    11b8:	501010ef          	jal	ra,2eb8 <strstr>
    11bc:	e2051ae3          	bnez	a0,ff0 <_ZN5cue_t7LoadCUEEi+0x68>
    11c0:	658d                	lui	a1,0x3
    11c2:	61c58593          	addi	a1,a1,1564 # 361c <stream_vscanf+0x72c>
    11c6:	855e                	mv	a0,s7
    11c8:	4f1010ef          	jal	ra,2eb8 <strstr>
    11cc:	e20512e3          	bnez	a0,ff0 <_ZN5cue_t7LoadCUEEi+0x68>
    11d0:	658d                	lui	a1,0x3
    11d2:	62858593          	addi	a1,a1,1576 # 3628 <stream_vscanf+0x738>
    11d6:	855e                	mv	a0,s7
    11d8:	4e1010ef          	jal	ra,2eb8 <strstr>
    11dc:	e0051ae3          	bnez	a0,ff0 <_ZN5cue_t7LoadCUEEi+0x68>
    11e0:	557d                	li	a0,-1
    11e2:	aaa9                	j	133c <_ZN5cue_t7LoadCUEEi+0x3b4>
    11e4:	02c00713          	li	a4,44
    11e8:	02e787b3          	mul	a5,a5,a4
    11ec:	06500693          	li	a3,101
    11f0:	06500513          	li	a0,101
    11f4:	97ce                	add	a5,a5,s3
    11f6:	d3d4                	sw	a3,36(a5)
    11f8:	885ff0ef          	jal	ra,a7c <_Z13dataslot_sizet>
    11fc:	0209ad83          	lw	s11,32(s3)
    1200:	02c00713          	li	a4,44
    1204:	02ed87b3          	mul	a5,s11,a4
    1208:	97ce                	add	a5,a5,s3
    120a:	d7c8                	sw	a0,44(a5)
    120c:	0207a423          	sw	zero,40(a5)
    1210:	b5e5                	j	10f8 <_ZN5cue_t7LoadCUEEi+0x170>
    1212:	0030                	addi	a2,sp,8
    1214:	630d8593          	addi	a1,s11,1584
    1218:	855e                	mv	a0,s7
    121a:	419010ef          	jal	ra,2e32 <sscanf>
    121e:	e80519e3          	bnez	a0,10b0 <_ZN5cue_t7LoadCUEEi+0x128>
    1222:	658d                	lui	a1,0x3
    1224:	0038                	addi	a4,sp,8
    1226:	0054                	addi	a3,sp,4
    1228:	860a                	mv	a2,sp
    122a:	64058593          	addi	a1,a1,1600 # 3640 <stream_vscanf+0x750>
    122e:	855e                	mv	a0,s7
    1230:	403010ef          	jal	ra,2e32 <sscanf>
    1234:	4d8d                	li	s11,3
    1236:	15b51663          	bne	a0,s11,1382 <_ZN5cue_t7LoadCUEEi+0x3fa>
    123a:	4682                	lw	a3,0(sp)
    123c:	6785                	lui	a5,0x1
    123e:	19478793          	addi	a5,a5,404 # 1194 <_ZN5cue_t7LoadCUEEi+0x20c>
    1242:	02f686b3          	mul	a3,a3,a5
    1246:	4792                	lw	a5,4(sp)
    1248:	00279713          	slli	a4,a5,0x2
    124c:	973e                	add	a4,a4,a5
    124e:	00471793          	slli	a5,a4,0x4
    1252:	8f99                	sub	a5,a5,a4
    1254:	4722                	lw	a4,8(sp)
    1256:	97ba                	add	a5,a5,a4
    1258:	97b6                	add	a5,a5,a3
    125a:	9a3e                	add	s4,s4,a5
    125c:	bb51                	j	ff0 <_ZN5cue_t7LoadCUEEi+0x68>
    125e:	658d                	lui	a1,0x3
    1260:	66458593          	addi	a1,a1,1636 # 3664 <stream_vscanf+0x774>
    1264:	855e                	mv	a0,s7
    1266:	453010ef          	jal	ra,2eb8 <strstr>
    126a:	0e050863          	beqz	a0,135a <_ZN5cue_t7LoadCUEEi+0x3d2>
    126e:	02c00793          	li	a5,44
    1272:	02fd87b3          	mul	a5,s11,a5
    1276:	6705                	lui	a4,0x1
    1278:	93070713          	addi	a4,a4,-1744 # 930 <_Z10pcecd_pollv+0x92>
    127c:	97ce                	add	a5,a5,s3
    127e:	c3f8                	sw	a4,68(a5)
    1280:	4705                	li	a4,1
    1282:	c3b8                	sw	a4,64(a5)
    1284:	b57d                	j	1132 <_ZN5cue_t7LoadCUEEi+0x1aa>
    1286:	0209a783          	lw	a5,32(s3)
    128a:	cbb9                	beqz	a5,12e0 <_ZN5cue_t7LoadCUEEi+0x358>
    128c:	02c00693          	li	a3,44
    1290:	fff78713          	addi	a4,a5,-1
    1294:	02d70733          	mul	a4,a4,a3
    1298:	974e                	add	a4,a4,s3
    129a:	5f54                	lw	a3,60(a4)
    129c:	ea81                	bnez	a3,12ac <_ZN5cue_t7LoadCUEEi+0x324>
    129e:	01c9a683          	lw	a3,28(s3)
    12a2:	9a36                	add	s4,s4,a3
    12a4:	0149ae23          	sw	s4,28(s3)
    12a8:	03472e23          	sw	s4,60(a4)
    12ac:	02f05a63          	blez	a5,12e0 <_ZN5cue_t7LoadCUEEi+0x358>
    12b0:	02498413          	addi	s0,s3,36
    12b4:	4481                	li	s1,0
    12b6:	690d                	lui	s2,0x3
    12b8:	501c                	lw	a5,32(s0)
    12ba:	00042883          	lw	a7,0(s0)
    12be:	01c42803          	lw	a6,28(s0)
    12c2:	4458                	lw	a4,12(s0)
    12c4:	4c14                	lw	a3,24(s0)
    12c6:	4850                	lw	a2,20(s0)
    12c8:	85a6                	mv	a1,s1
    12ca:	77890513          	addi	a0,s2,1912 # 3778 <stream_vscanf+0x888>
    12ce:	4e6010ef          	jal	ra,27b4 <riscprintf_>
    12d2:	0209a783          	lw	a5,32(s3)
    12d6:	0485                	addi	s1,s1,1
    12d8:	02c40413          	addi	s0,s0,44
    12dc:	fcf4cee3          	blt	s1,a5,12b8 <_ZN5cue_t7LoadCUEEi+0x330>
    12e0:	7441                	lui	s0,0xffff0
    12e2:	400c                	lw	a1,0(s0)
    12e4:	4050                	lw	a2,4(s0)
    12e6:	650d                	lui	a0,0x3
    12e8:	6f850513          	addi	a0,a0,1784 # 36f8 <stream_vscanf+0x808>
    12ec:	4c8010ef          	jal	ra,27b4 <riscprintf_>
    12f0:	440c                	lw	a1,8(s0)
    12f2:	4450                	lw	a2,12(s0)
    12f4:	650d                	lui	a0,0x3
    12f6:	70c50513          	addi	a0,a0,1804 # 370c <stream_vscanf+0x81c>
    12fa:	4ba010ef          	jal	ra,27b4 <riscprintf_>
    12fe:	480c                	lw	a1,16(s0)
    1300:	4850                	lw	a2,20(s0)
    1302:	650d                	lui	a0,0x3
    1304:	72050513          	addi	a0,a0,1824 # 3720 <stream_vscanf+0x830>
    1308:	4ac010ef          	jal	ra,27b4 <riscprintf_>
    130c:	4c0c                	lw	a1,24(s0)
    130e:	4c50                	lw	a2,28(s0)
    1310:	650d                	lui	a0,0x3
    1312:	73450513          	addi	a0,a0,1844 # 3734 <stream_vscanf+0x844>
    1316:	49e010ef          	jal	ra,27b4 <riscprintf_>
    131a:	500c                	lw	a1,32(s0)
    131c:	5050                	lw	a2,36(s0)
    131e:	650d                	lui	a0,0x3
    1320:	74850513          	addi	a0,a0,1864 # 3748 <stream_vscanf+0x858>
    1324:	490010ef          	jal	ra,27b4 <riscprintf_>
    1328:	540c                	lw	a1,40(s0)
    132a:	5450                	lw	a2,44(s0)
    132c:	650d                	lui	a0,0x3
    132e:	76050513          	addi	a0,a0,1888 # 3760 <stream_vscanf+0x870>
    1332:	482010ef          	jal	ra,27b4 <riscprintf_>
    1336:	8e9ff0ef          	jal	ra,c1e <_Z14clearbufferramv>
    133a:	4505                	li	a0,1
    133c:	40b6                	lw	ra,76(sp)
    133e:	4426                	lw	s0,72(sp)
    1340:	4496                	lw	s1,68(sp)
    1342:	4906                	lw	s2,64(sp)
    1344:	59f2                	lw	s3,60(sp)
    1346:	5a62                	lw	s4,56(sp)
    1348:	5ad2                	lw	s5,52(sp)
    134a:	5b42                	lw	s6,48(sp)
    134c:	5bb2                	lw	s7,44(sp)
    134e:	5c22                	lw	s8,40(sp)
    1350:	5c92                	lw	s9,36(sp)
    1352:	5d02                	lw	s10,32(sp)
    1354:	4df2                	lw	s11,28(sp)
    1356:	6161                	addi	sp,sp,80
    1358:	8082                	ret
    135a:	658d                	lui	a1,0x3
    135c:	67058593          	addi	a1,a1,1648 # 3670 <stream_vscanf+0x780>
    1360:	855e                	mv	a0,s7
    1362:	357010ef          	jal	ra,2eb8 <strstr>
    1366:	dc0506e3          	beqz	a0,1132 <_ZN5cue_t7LoadCUEEi+0x1aa>
    136a:	02c00793          	li	a5,44
    136e:	02fd87b3          	mul	a5,s11,a5
    1372:	6705                	lui	a4,0x1
    1374:	93070713          	addi	a4,a4,-1744 # 930 <_Z10pcecd_pollv+0x92>
    1378:	97ce                	add	a5,a5,s3
    137a:	c3f8                	sw	a4,68(a5)
    137c:	0407a023          	sw	zero,64(a5)
    1380:	bb4d                	j	1132 <_ZN5cue_t7LoadCUEEi+0x1aa>
    1382:	658d                	lui	a1,0x3
    1384:	0038                	addi	a4,sp,8
    1386:	0054                	addi	a3,sp,4
    1388:	860a                	mv	a2,sp
    138a:	67858593          	addi	a1,a1,1656 # 3678 <stream_vscanf+0x788>
    138e:	855e                	mv	a0,s7
    1390:	2a3010ef          	jal	ra,2e32 <sscanf>
    1394:	05b51263          	bne	a0,s11,13d8 <_ZN5cue_t7LoadCUEEi+0x450>
    1398:	0209a783          	lw	a5,32(s3)
    139c:	c4078ae3          	beqz	a5,ff0 <_ZN5cue_t7LoadCUEEi+0x68>
    13a0:	02c00713          	li	a4,44
    13a4:	17fd                	addi	a5,a5,-1
    13a6:	02e787b3          	mul	a5,a5,a4
    13aa:	97ce                	add	a5,a5,s3
    13ac:	5fd8                	lw	a4,60(a5)
    13ae:	c40711e3          	bnez	a4,ff0 <_ZN5cue_t7LoadCUEEi+0x68>
    13b2:	4602                	lw	a2,0(sp)
    13b4:	6705                	lui	a4,0x1
    13b6:	19470713          	addi	a4,a4,404 # 1194 <_ZN5cue_t7LoadCUEEi+0x20c>
    13ba:	02e60633          	mul	a2,a2,a4
    13be:	4712                	lw	a4,4(sp)
    13c0:	00271693          	slli	a3,a4,0x2
    13c4:	96ba                	add	a3,a3,a4
    13c6:	00469713          	slli	a4,a3,0x4
    13ca:	8f15                	sub	a4,a4,a3
    13cc:	46a2                	lw	a3,8(sp)
    13ce:	9736                	add	a4,a4,a3
    13d0:	9732                	add	a4,a4,a2
    13d2:	9752                	add	a4,a4,s4
    13d4:	dfd8                	sw	a4,60(a5)
    13d6:	b929                	j	ff0 <_ZN5cue_t7LoadCUEEi+0x68>
    13d8:	658d                	lui	a1,0x3
    13da:	0038                	addi	a4,sp,8
    13dc:	0054                	addi	a3,sp,4
    13de:	860a                	mv	a2,sp
    13e0:	69058593          	addi	a1,a1,1680 # 3690 <stream_vscanf+0x7a0>
    13e4:	855e                	mv	a0,s7
    13e6:	24d010ef          	jal	ra,2e32 <sscanf>
    13ea:	fbb507e3          	beq	a0,s11,1398 <_ZN5cue_t7LoadCUEEi+0x410>
    13ee:	658d                	lui	a1,0x3
    13f0:	0038                	addi	a4,sp,8
    13f2:	0054                	addi	a3,sp,4
    13f4:	860a                	mv	a2,sp
    13f6:	6a858593          	addi	a1,a1,1704 # 36a8 <stream_vscanf+0x7b8>
    13fa:	855e                	mv	a0,s7
    13fc:	237010ef          	jal	ra,2e32 <sscanf>
    1400:	01b50d63          	beq	a0,s11,141a <_ZN5cue_t7LoadCUEEi+0x492>
    1404:	658d                	lui	a1,0x3
    1406:	0038                	addi	a4,sp,8
    1408:	0054                	addi	a3,sp,4
    140a:	860a                	mv	a2,sp
    140c:	6c058593          	addi	a1,a1,1728 # 36c0 <stream_vscanf+0x7d0>
    1410:	855e                	mv	a0,s7
    1412:	221010ef          	jal	ra,2e32 <sscanf>
    1416:	bdb51de3          	bne	a0,s11,ff0 <_ZN5cue_t7LoadCUEEi+0x68>
    141a:	4712                	lw	a4,4(sp)
    141c:	0209a783          	lw	a5,32(s3)
    1420:	02c00513          	li	a0,44
    1424:	00271693          	slli	a3,a4,0x2
    1428:	96ba                	add	a3,a3,a4
    142a:	00469713          	slli	a4,a3,0x4
    142e:	02a78633          	mul	a2,a5,a0
    1432:	8f15                	sub	a4,a4,a3
    1434:	4682                	lw	a3,0(sp)
    1436:	6585                	lui	a1,0x1
    1438:	19458593          	addi	a1,a1,404 # 1194 <_ZN5cue_t7LoadCUEEi+0x20c>
    143c:	4822                	lw	a6,8(sp)
    143e:	9742                	add	a4,a4,a6
    1440:	02b686b3          	mul	a3,a3,a1
    1444:	964e                	add	a2,a2,s3
    1446:	560c                	lw	a1,40(a2)
    1448:	9736                	add	a4,a4,a3
    144a:	c1b9                	beqz	a1,1490 <_ZN5cue_t7LoadCUEEi+0x508>
    144c:	5654                	lw	a3,44(a2)
    144e:	426c                	lw	a1,68(a2)
    1450:	01c9a503          	lw	a0,28(s3)
    1454:	415686b3          	sub	a3,a3,s5
    1458:	96ae                	add	a3,a3,a1
    145a:	16fd                	addi	a3,a3,-1
    145c:	02b6c6b3          	div	a3,a3,a1
    1460:	9552                	add	a0,a0,s4
    1462:	972a                	add	a4,a4,a0
    1464:	de18                	sw	a4,56(a2)
    1466:	02b505b3          	mul	a1,a0,a1
    146a:	00a68733          	add	a4,a3,a0
    146e:	de58                	sw	a4,60(a2)
    1470:	415586b3          	sub	a3,a1,s5
    1474:	da14                	sw	a3,48(a2)
    1476:	00e9ae23          	sw	a4,28(s3)
    147a:	0785                	addi	a5,a5,1
    147c:	02f9a023          	sw	a5,32(s3)
    1480:	020b0563          	beqz	s6,14aa <_ZN5cue_t7LoadCUEEi+0x522>
    1484:	4775                	li	a4,29
    1486:	b6f755e3          	bge	a4,a5,ff0 <_ZN5cue_t7LoadCUEEi+0x68>
    148a:	e00791e3          	bnez	a5,128c <_ZN5cue_t7LoadCUEEi+0x304>
    148e:	bd89                	j	12e0 <_ZN5cue_t7LoadCUEEi+0x358>
    1490:	4274                	lw	a3,68(a2)
    1492:	9752                	add	a4,a4,s4
    1494:	de18                	sw	a4,56(a2)
    1496:	02da06b3          	mul	a3,s4,a3
    149a:	415686b3          	sub	a3,a3,s5
    149e:	da14                	sw	a3,48(a2)
    14a0:	ef81                	bnez	a5,14b8 <_ZN5cue_t7LoadCUEEi+0x530>
    14a2:	4785                	li	a5,1
    14a4:	02f9a023          	sw	a5,32(s3)
    14a8:	b6a1                	j	ff0 <_ZN5cue_t7LoadCUEEi+0x68>
    14aa:	06300713          	li	a4,99
    14ae:	b4f751e3          	bge	a4,a5,ff0 <_ZN5cue_t7LoadCUEEi+0x68>
    14b2:	dc079de3          	bnez	a5,128c <_ZN5cue_t7LoadCUEEi+0x304>
    14b6:	b52d                	j	12e0 <_ZN5cue_t7LoadCUEEi+0x358>
    14b8:	fff78693          	addi	a3,a5,-1
    14bc:	02a686b3          	mul	a3,a3,a0
    14c0:	96ce                	add	a3,a3,s3
    14c2:	5ed0                	lw	a2,60(a3)
    14c4:	fa5d                	bnez	a2,147a <_ZN5cue_t7LoadCUEEi+0x4f2>
    14c6:	ded8                	sw	a4,60(a3)
    14c8:	bf4d                	j	147a <_ZN5cue_t7LoadCUEEi+0x4f2>

000014ca <_ZN5cue_t4LoadEi>:
    14ca:	1141                	addi	sp,sp,-16
    14cc:	c422                	sw	s0,8(sp)
    14ce:	c606                	sw	ra,12(sp)
    14d0:	842a                	mv	s0,a0
    14d2:	ab7ff0ef          	jal	ra,f88 <_ZN5cue_t7LoadCUEEi>
    14d6:	00a03533          	snez	a0,a0
    14da:	40b2                	lw	ra,12(sp)
    14dc:	c448                	sw	a0,12(s0)
    14de:	4422                	lw	s0,8(sp)
    14e0:	0141                	addi	sp,sp,16
    14e2:	8082                	ret

000014e4 <_ZN5cue_t6UnloadEv>:
    14e4:	455c                	lw	a5,12(a0)
    14e6:	cba9                	beqz	a5,1538 <_ZN5cue_t6UnloadEv+0x54>
    14e8:	5118                	lw	a4,32(a0)
    14ea:	04e05163          	blez	a4,152c <_ZN5cue_t6UnloadEv+0x48>
    14ee:	02c00793          	li	a5,44
    14f2:	02f70733          	mul	a4,a4,a5
    14f6:	02450793          	addi	a5,a0,36
    14fa:	973e                	add	a4,a4,a5
    14fc:	0007a023          	sw	zero,0(a5)
    1500:	0007a223          	sw	zero,4(a5)
    1504:	0007a423          	sw	zero,8(a5)
    1508:	0007a623          	sw	zero,12(a5)
    150c:	0007a823          	sw	zero,16(a5)
    1510:	0007aa23          	sw	zero,20(a5)
    1514:	0007ac23          	sw	zero,24(a5)
    1518:	0007ae23          	sw	zero,28(a5)
    151c:	0207a023          	sw	zero,32(a5)
    1520:	0207a223          	sw	zero,36(a5)
    1524:	02c78793          	addi	a5,a5,44
    1528:	fce79ae3          	bne	a5,a4,14fc <_ZN5cue_t6UnloadEv+0x18>
    152c:	00052623          	sw	zero,12(a0)
    1530:	00052e23          	sw	zero,28(a0)
    1534:	02052023          	sw	zero,32(a0)
    1538:	8082                	ret

0000153a <_ZN5cue_t5ResetEv>:
    153a:	455c                	lw	a5,12(a0)
    153c:	4705                	li	a4,1
    153e:	00052023          	sw	zero,0(a0)
    1542:	0017b793          	seqz	a5,a5
    1546:	00052223          	sw	zero,4(a0)
    154a:	54052623          	sw	zero,1356(a0)
    154e:	54052823          	sw	zero,1360(a0)
    1552:	54052c23          	sw	zero,1368(a0)
    1556:	00e504a3          	sb	a4,9(a0)
    155a:	00f50423          	sb	a5,8(a0)
    155e:	54052e23          	sw	zero,1372(a0)
    1562:	56052023          	sw	zero,1376(a0)
    1566:	00052a23          	sw	zero,20(a0)
    156a:	00051c23          	sh	zero,24(a0)
    156e:	56052223          	sw	zero,1380(a0)
    1572:	56052423          	sw	zero,1384(a0)
    1576:	56050823          	sb	zero,1392(a0)
    157a:	02052023          	sw	zero,32(a0)
    157e:	58051023          	sh	zero,1408(a0)
    1582:	8082                	ret

00001584 <_ZN5cue_t11CommandExecEv>:
    1584:	1141                	addi	sp,sp,-16
    1586:	c422                	sw	s0,8(sp)
    1588:	c606                	sw	ra,12(sp)
    158a:	c226                	sw	s1,4(sp)
    158c:	c04a                	sw	s2,0(sp)
    158e:	842a                	mv	s0,a0
    1590:	58244783          	lbu	a5,1410(s0) # ffff0582 <__ram_end+0xfffe0582>
    1594:	6511                	lui	a0,0x4
    1596:	a4050713          	addi	a4,a0,-1472 # 3a40 <_ZZN5cue_t11CommandExecEvE3buf>
    159a:	00072023          	sw	zero,0(a4)
    159e:	00072223          	sw	zero,4(a4)
    15a2:	00072423          	sw	zero,8(a4)
    15a6:	00072623          	sw	zero,12(a4)
    15aa:	00072823          	sw	zero,16(a4)
    15ae:	00072a23          	sw	zero,20(a4)
    15b2:	00072c23          	sw	zero,24(a4)
    15b6:	00072e23          	sw	zero,28(a4)
    15ba:	0de00693          	li	a3,222
    15be:	10f6e663          	bltu	a3,a5,16ca <_ZN5cue_t11CommandExecEv+0x146>
    15c2:	0d700693          	li	a3,215
    15c6:	02f6f063          	bgeu	a3,a5,15e6 <_ZN5cue_t11CommandExecEv+0x62>
    15ca:	02878793          	addi	a5,a5,40
    15ce:	0ff7f793          	zext.b	a5,a5
    15d2:	4699                	li	a3,6
    15d4:	0ef6eb63          	bltu	a3,a5,16ca <_ZN5cue_t11CommandExecEv+0x146>
    15d8:	668d                	lui	a3,0x3
    15da:	078a                	slli	a5,a5,0x2
    15dc:	7e468693          	addi	a3,a3,2020 # 37e4 <stream_vscanf+0x8f4>
    15e0:	97b6                	add	a5,a5,a3
    15e2:	439c                	lw	a5,0(a5)
    15e4:	8782                	jr	a5
    15e6:	46a1                	li	a3,8
    15e8:	36d78b63          	beq	a5,a3,195e <_ZN5cue_t11CommandExecEv+0x3da>
    15ec:	02f6f163          	bgeu	a3,a5,160e <_ZN5cue_t11CommandExecEv+0x8a>
    15f0:	4755                	li	a4,21
    15f2:	0ce79c63          	bne	a5,a4,16ca <_ZN5cue_t11CommandExecEv+0x146>
    15f6:	58644783          	lbu	a5,1414(s0)
    15fa:	c3bd                	beqz	a5,1660 <_ZN5cue_t11CommandExecEv+0xdc>
    15fc:	4785                	li	a5,1
    15fe:	00f40c23          	sb	a5,24(s0)
    1602:	40b2                	lw	ra,12(sp)
    1604:	4422                	lw	s0,8(sp)
    1606:	4492                	lw	s1,4(sp)
    1608:	4902                	lw	s2,0(sp)
    160a:	0141                	addi	sp,sp,16
    160c:	8082                	ret
    160e:	32078a63          	beqz	a5,1942 <_ZN5cue_t11CommandExecEv+0x3be>
    1612:	468d                	li	a3,3
    1614:	0ad79b63          	bne	a5,a3,16ca <_ZN5cue_t11CommandExecEv+0x146>
    1618:	57444783          	lbu	a5,1396(s0)
    161c:	57144583          	lbu	a1,1393(s0)
    1620:	57245603          	lhu	a2,1394(s0)
    1624:	00f70823          	sb	a5,16(a4)
    1628:	77e1                	lui	a5,0xffff8
    162a:	07c9                	addi	a5,a5,18 # ffff8012 <__ram_end+0xfffe8012>
    162c:	a4f51023          	sh	a5,-1472(a0)
    1630:	4814                	lw	a3,16(s0)
    1632:	07000793          	li	a5,112
    1636:	00f70123          	sb	a5,2(a4)
    163a:	47a9                	li	a5,10
    163c:	00b70223          	sb	a1,4(a4)
    1640:	00f704a3          	sb	a5,9(a4)
    1644:	00c71723          	sh	a2,14(a4)
    1648:	560408a3          	sb	zero,1393(s0)
    164c:	56041923          	sh	zero,1394(s0)
    1650:	56040a23          	sb	zero,1396(s0)
    1654:	c691                	beqz	a3,1660 <_ZN5cue_t11CommandExecEv+0xdc>
    1656:	4609                	li	a2,2
    1658:	45d1                	li	a1,20
    165a:	a4050513          	addi	a0,a0,-1472
    165e:	9682                	jalr	a3
    1660:	03500513          	li	a0,53
    1664:	3d1000ef          	jal	ra,2234 <_Z20HPS_spi_uio_cmd_contt>
    1668:	4501                	li	a0,0
    166a:	327000ef          	jal	ra,2190 <_Z12HPS_fpga_spit>
    166e:	57544503          	lbu	a0,1397(s0)
    1672:	00a03533          	snez	a0,a0
    1676:	0506                	slli	a0,a0,0x1
    1678:	319000ef          	jal	ra,2190 <_Z12HPS_fpga_spit>
    167c:	4422                	lw	s0,8(sp)
    167e:	40b2                	lw	ra,12(sp)
    1680:	4492                	lw	s1,4(sp)
    1682:	4902                	lw	s2,0(sp)
    1684:	0141                	addi	sp,sp,16
    1686:	2ef0006f          	j	2174 <_Z13HPS_DisableIOv>
    168a:	58344783          	lbu	a5,1411(s0)
    168e:	4685                	li	a3,1
    1690:	46d78a63          	beq	a5,a3,1b04 <_ZN5cue_t11CommandExecEv+0x580>
    1694:	4609                	li	a2,2
    1696:	50c78d63          	beq	a5,a2,1bb0 <_ZN5cue_t11CommandExecEv+0x62c>
    169a:	5010                	lw	a2,32(s0)
    169c:	4829                	li	a6,10
    169e:	75e1                	lui	a1,0xffff8
    16a0:	030647b3          	div	a5,a2,a6
    16a4:	0591                	addi	a1,a1,4 # ffff8004 <__ram_end+0xfffe8004>
    16a6:	a4b51023          	sh	a1,-1472(a0)
    16aa:	00d70123          	sb	a3,2(a4)
    16ae:	03066633          	rem	a2,a2,a6
    16b2:	0792                	slli	a5,a5,0x4
    16b4:	8fd1                	or	a5,a5,a2
    16b6:	00f701a3          	sb	a5,3(a4)
    16ba:	481c                	lw	a5,16(s0)
    16bc:	d3d5                	beqz	a5,1660 <_ZN5cue_t11CommandExecEv+0xdc>
    16be:	4609                	li	a2,2
    16c0:	4599                	li	a1,6
    16c2:	a4050513          	addi	a0,a0,-1472
    16c6:	9782                	jalr	a5
    16c8:	bf61                	j	1660 <_ZN5cue_t11CommandExecEv+0xdc>
    16ca:	4795                	li	a5,5
    16cc:	56f408a3          	sb	a5,1393(s0)
    16d0:	02000793          	li	a5,32
    16d4:	56f41923          	sh	a5,1394(s0)
    16d8:	56040a23          	sb	zero,1396(s0)
    16dc:	00042a23          	sw	zero,20(s0)
    16e0:	03500513          	li	a0,53
    16e4:	351000ef          	jal	ra,2234 <_Z20HPS_spi_uio_cmd_contt>
    16e8:	4505                	li	a0,1
    16ea:	b741                	j	166a <_ZN5cue_t11CommandExecEv+0xe6>
    16ec:	58b44783          	lbu	a5,1419(s0)
    16f0:	04000713          	li	a4,64
    16f4:	0c07f793          	andi	a5,a5,192
    16f8:	3ae78063          	beq	a5,a4,1a98 <_ZN5cue_t11CommandExecEv+0x514>
    16fc:	08000713          	li	a4,128
    1700:	46e78e63          	beq	a5,a4,1b7c <_ZN5cue_t11CommandExecEv+0x5f8>
    1704:	58544483          	lbu	s1,1413(s0)
    1708:	58644783          	lbu	a5,1414(s0)
    170c:	58744703          	lbu	a4,1415(s0)
    1710:	04c2                	slli	s1,s1,0x10
    1712:	07a2                	slli	a5,a5,0x8
    1714:	8cdd                	or	s1,s1,a5
    1716:	8cd9                	or	s1,s1,a4
    1718:	58f40783          	lb	a5,1423(s0)
    171c:	2e07d063          	bgez	a5,19fc <_ZN5cue_t11CommandExecEv+0x478>
    1720:	00042023          	sw	zero,0(s0)
    1724:	00042223          	sw	zero,4(s0)
    1728:	5c5c                	lw	a5,60(s0)
    172a:	54942823          	sw	s1,1360(s0)
    172e:	56f4c363          	blt	s1,a5,1c94 <_ZN5cue_t11CommandExecEv+0x710>
    1732:	5010                	lw	a2,32(s0)
    1734:	06840713          	addi	a4,s0,104
    1738:	4781                	li	a5,0
    173a:	00c7d863          	bge	a5,a2,174a <_ZN5cue_t11CommandExecEv+0x1c6>
    173e:	4314                	lw	a3,0(a4)
    1740:	0785                	addi	a5,a5,1
    1742:	02c70713          	addi	a4,a4,44
    1746:	fed4dae3          	bge	s1,a3,173a <_ZN5cue_t11CommandExecEv+0x1b6>
    174a:	58344603          	lbu	a2,1411(s0)
    174e:	4c4c                	lw	a1,28(s0)
    1750:	4685                	li	a3,1
    1752:	00163713          	seqz	a4,a2
    1756:	070d                	addi	a4,a4,3
    1758:	56c40823          	sb	a2,1392(s0)
    175c:	00e40423          	sb	a4,8(s0)
    1760:	56942223          	sw	s1,1380(s0)
    1764:	40b2                	lw	ra,12(sp)
    1766:	54f42623          	sw	a5,1356(s0)
    176a:	56b42423          	sw	a1,1384(s0)
    176e:	56d42623          	sw	a3,1388(s0)
    1772:	58041023          	sh	zero,1408(s0)
    1776:	c854                	sw	a3,20(s0)
    1778:	4422                	lw	s0,8(sp)
    177a:	4492                	lw	s1,4(sp)
    177c:	4902                	lw	s2,0(sp)
    177e:	0141                	addi	sp,sp,16
    1780:	8082                	ret
    1782:	58b44783          	lbu	a5,1419(s0)
    1786:	04000713          	li	a4,64
    178a:	0c07f793          	andi	a5,a5,192
    178e:	2ae78063          	beq	a5,a4,1a2e <_ZN5cue_t11CommandExecEv+0x4aa>
    1792:	08000713          	li	a4,128
    1796:	4ae78e63          	beq	a5,a4,1c52 <_ZN5cue_t11CommandExecEv+0x6ce>
    179a:	58544783          	lbu	a5,1413(s0)
    179e:	58644703          	lbu	a4,1414(s0)
    17a2:	58744683          	lbu	a3,1415(s0)
    17a6:	07c2                	slli	a5,a5,0x10
    17a8:	0722                	slli	a4,a4,0x8
    17aa:	8fd9                	or	a5,a5,a4
    17ac:	8fd5                	or	a5,a5,a3
    17ae:	58344703          	lbu	a4,1411(s0)
    17b2:	56f42423          	sw	a5,1384(s0)
    17b6:	56e40823          	sb	a4,1392(s0)
    17ba:	22071163          	bnez	a4,19dc <_ZN5cue_t11CommandExecEv+0x458>
    17be:	00040423          	sb	zero,8(s0)
    17c2:	bd79                	j	1660 <_ZN5cue_t11CommandExecEv+0xdc>
    17c4:	4791                	li	a5,4
    17c6:	00f40423          	sb	a5,8(s0)
    17ca:	03500513          	li	a0,53
    17ce:	267000ef          	jal	ra,2234 <_Z20HPS_spi_uio_cmd_contt>
    17d2:	4501                	li	a0,0
    17d4:	bd59                	j	166a <_ZN5cue_t11CommandExecEv+0xe6>
    17d6:	54c42803          	lw	a6,1356(s0)
    17da:	02c00693          	li	a3,44
    17de:	75e1                	lui	a1,0xffff8
    17e0:	02d806b3          	mul	a3,a6,a3
    17e4:	05a9                	addi	a1,a1,10 # ffff800a <__ram_end+0xfffe800a>
    17e6:	55042603          	lw	a2,1360(s0)
    17ea:	a4b51023          	sh	a1,-1472(a0)
    17ee:	00844783          	lbu	a5,8(s0)
    17f2:	4891                	li	a7,4
    17f4:	4e89                	li	t4,2
    17f6:	96a2                	add	a3,a3,s0
    17f8:	5e8c                	lw	a1,56(a3)
    17fa:	40b605b3          	sub	a1,a2,a1
    17fe:	01178963          	beq	a5,a7,1810 <_ZN5cue_t11CommandExecEv+0x28c>
    1802:	17f5                	addi	a5,a5,-3
    1804:	00f037b3          	snez	a5,a5
    1808:	40f007b3          	neg	a5,a5
    180c:	0037fe93          	andi	t4,a5,3
    1810:	04b00e13          	li	t3,75
    1814:	09660613          	addi	a2,a2,150
    1818:	03c64fb3          	div	t6,a2,t3
    181c:	01d70123          	sb	t4,2(a4)
    1820:	6785                	lui	a5,0x1
    1822:	19478793          	addi	a5,a5,404 # 1194 <_ZN5cue_t7LoadCUEEi+0x20c>
    1826:	46a9                	li	a3,10
    1828:	03c00893          	li	a7,60
    182c:	00180913          	addi	s2,a6,1
    1830:	ff0102b7          	lui	t0,0xff010
    1834:	12fd                	addi	t0,t0,-1 # ff00ffff <__ram_end+0xfeffffff>
    1836:	01000f37          	lui	t5,0x1000
    183a:	1f7d                	addi	t5,t5,-1 # ffffff <__ram_end+0xfeffff>
    183c:	01042303          	lw	t1,16(s0)
    1840:	03c5ceb3          	div	t4,a1,t3
    1844:	02f640b3          	div	ra,a2,a5
    1848:	03c5e4b3          	rem	s1,a1,t3
    184c:	0ff0f093          	zext.b	ra,ra
    1850:	02f5c5b3          	div	a1,a1,a5
    1854:	0ff4f493          	zext.b	s1,s1
    1858:	031fefb3          	rem	t6,t6,a7
    185c:	0ff5f593          	zext.b	a1,a1
    1860:	031eeeb3          	rem	t4,t4,a7
    1864:	0fffff93          	zext.b	t6,t6
    1868:	02d848b3          	div	a7,a6,a3
    186c:	0ffefe93          	zext.b	t4,t4
    1870:	02d86833          	rem	a6,a6,a3
    1874:	0892                	slli	a7,a7,0x4
    1876:	02d943b3          	div	t2,s2,a3
    187a:	0108e8b3          	or	a7,a7,a6
    187e:	0ff8f893          	zext.b	a7,a7
    1882:	08a2                	slli	a7,a7,0x8
    1884:	03c66633          	rem	a2,a2,t3
    1888:	0392                	slli	t2,t2,0x4
    188a:	02d0de33          	divu	t3,ra,a3
    188e:	0ff67613          	zext.b	a2,a2
    1892:	02d4d7b3          	divu	a5,s1,a3
    1896:	0e12                	slli	t3,t3,0x4
    1898:	02d0f0b3          	remu	ra,ra,a3
    189c:	0792                	slli	a5,a5,0x4
    189e:	02d96933          	rem	s2,s2,a3
    18a2:	001e6e33          	or	t3,t3,ra
    18a6:	0ffe7e13          	zext.b	t3,t3
    18aa:	0e22                	slli	t3,t3,0x8
    18ac:	02d4f4b3          	remu	s1,s1,a3
    18b0:	0123e3b3          	or	t2,t2,s2
    18b4:	0ff3f393          	zext.b	t2,t2
    18b8:	0113e3b3          	or	t2,t2,a7
    18bc:	0053f3b3          	and	t2,t2,t0
    18c0:	02d5d833          	divu	a6,a1,a3
    18c4:	8fc5                	or	a5,a5,s1
    18c6:	0ff7f793          	zext.b	a5,a5
    18ca:	01c7e7b3          	or	a5,a5,t3
    18ce:	0057f7b3          	and	a5,a5,t0
    18d2:	00481893          	slli	a7,a6,0x4
    18d6:	02dfd833          	divu	a6,t6,a3
    18da:	02d5fe33          	remu	t3,a1,a3
    18de:	00481593          	slli	a1,a6,0x4
    18e2:	02dfffb3          	remu	t6,t6,a3
    18e6:	01c8e833          	or	a6,a7,t3
    18ea:	0ff87813          	zext.b	a6,a6
    18ee:	0842                	slli	a6,a6,0x10
    18f0:	0103e833          	or	a6,t2,a6
    18f4:	01e87833          	and	a6,a6,t5
    18f8:	02ded8b3          	divu	a7,t4,a3
    18fc:	01f5e5b3          	or	a1,a1,t6
    1900:	0ff5f593          	zext.b	a1,a1
    1904:	05c2                	slli	a1,a1,0x10
    1906:	8fcd                	or	a5,a5,a1
    1908:	01e7f7b3          	and	a5,a5,t5
    190c:	02defeb3          	remu	t4,t4,a3
    1910:	0892                	slli	a7,a7,0x4
    1912:	02d655b3          	divu	a1,a2,a3
    1916:	02d67633          	remu	a2,a2,a3
    191a:	01d8e6b3          	or	a3,a7,t4
    191e:	06e2                	slli	a3,a3,0x18
    1920:	00d866b3          	or	a3,a6,a3
    1924:	0592                	slli	a1,a1,0x4
    1926:	c354                	sw	a3,4(a4)
    1928:	00c5e6b3          	or	a3,a1,a2
    192c:	06e2                	slli	a3,a3,0x18
    192e:	8fd5                	or	a5,a5,a3
    1930:	c71c                	sw	a5,8(a4)
    1932:	d20307e3          	beqz	t1,1660 <_ZN5cue_t11CommandExecEv+0xdc>
    1936:	4609                	li	a2,2
    1938:	45b1                	li	a1,12
    193a:	a4050513          	addi	a0,a0,-1472
    193e:	9302                	jalr	t1
    1940:	b305                	j	1660 <_ZN5cue_t11CommandExecEv+0xdc>
    1942:	00844703          	lbu	a4,8(s0)
    1946:	4785                	li	a5,1
    1948:	d0f71ce3          	bne	a4,a5,1660 <_ZN5cue_t11CommandExecEv+0xdc>
    194c:	4789                	li	a5,2
    194e:	56f408a3          	sb	a5,1393(s0)
    1952:	47ad                	li	a5,11
    1954:	56f41923          	sh	a5,1394(s0)
    1958:	56040a23          	sb	zero,1396(s0)
    195c:	b351                	j	16e0 <_ZN5cue_t11CommandExecEv+0x15c>
    195e:	58344483          	lbu	s1,1411(s0)
    1962:	58444783          	lbu	a5,1412(s0)
    1966:	58544703          	lbu	a4,1413(s0)
    196a:	04c2                	slli	s1,s1,0x10
    196c:	07a2                	slli	a5,a5,0x8
    196e:	8cdd                	or	s1,s1,a5
    1970:	58644783          	lbu	a5,1414(s0)
    1974:	8cd9                	or	s1,s1,a4
    1976:	04ae                	slli	s1,s1,0xb
    1978:	80ad                	srli	s1,s1,0xb
    197a:	10000913          	li	s2,256
    197e:	c391                	beqz	a5,1982 <_ZN5cue_t11CommandExecEv+0x3fe>
    1980:	893e                	mv	s2,a5
    1982:	5c5c                	lw	a5,60(s0)
    1984:	30f4ca63          	blt	s1,a5,1c98 <_ZN5cue_t11CommandExecEv+0x714>
    1988:	5010                	lw	a2,32(s0)
    198a:	06840713          	addi	a4,s0,104
    198e:	4781                	li	a5,0
    1990:	00c7d863          	bge	a5,a2,19a0 <_ZN5cue_t11CommandExecEv+0x41c>
    1994:	4314                	lw	a3,0(a4)
    1996:	0785                	addi	a5,a5,1
    1998:	02c70713          	addi	a4,a4,44
    199c:	fed4dae3          	bge	s1,a3,1990 <_ZN5cue_t11CommandExecEv+0x40c>
    19a0:	55042503          	lw	a0,1360(s0)
    19a4:	54f42623          	sw	a5,1356(s0)
    19a8:	06a48863          	beq	s1,a0,1a18 <_ZN5cue_t11CommandExecEv+0x494>
    19ac:	58f40783          	lb	a5,1423(s0)
    19b0:	0207dd63          	bgez	a5,19ea <_ZN5cue_t11CommandExecEv+0x466>
    19b4:	00042023          	sw	zero,0(s0)
    19b8:	4785                	li	a5,1
    19ba:	00f40ca3          	sb	a5,25(s0)
    19be:	4789                	li	a5,2
    19c0:	00f40423          	sb	a5,8(s0)
    19c4:	54942823          	sw	s1,1360(s0)
    19c8:	55242a23          	sw	s2,1364(s0)
    19cc:	40b2                	lw	ra,12(sp)
    19ce:	56042023          	sw	zero,1376(s0)
    19d2:	4422                	lw	s0,8(sp)
    19d4:	4492                	lw	s1,4(sp)
    19d6:	4902                	lw	s2,0(sp)
    19d8:	0141                	addi	sp,sp,16
    19da:	8082                	ret
    19dc:	478d                	li	a5,3
    19de:	00f40423          	sb	a5,8(s0)
    19e2:	4789                	li	a5,2
    19e4:	c0f70fe3          	beq	a4,a5,1602 <_ZN5cue_t11CommandExecEv+0x7e>
    19e8:	b9a5                	j	1660 <_ZN5cue_t11CommandExecEv+0xdc>
    19ea:	85a6                	mv	a1,s1
    19ec:	23cd                	jal	1fce <_Z14get_cd_seek_msii>
    19ee:	47b5                	li	a5,13
    19f0:	02f54533          	div	a0,a0,a5
    19f4:	00042223          	sw	zero,4(s0)
    19f8:	c008                	sw	a0,0(s0)
    19fa:	bf7d                	j	19b8 <_ZN5cue_t11CommandExecEv+0x434>
    19fc:	55042503          	lw	a0,1360(s0)
    1a00:	85a6                	mv	a1,s1
    1a02:	23f1                	jal	1fce <_Z14get_cd_seek_msii>
    1a04:	47b5                	li	a5,13
    1a06:	02f54533          	div	a0,a0,a5
    1a0a:	47c1                	li	a5,16
    1a0c:	c05c                	sw	a5,4(s0)
    1a0e:	26a7f763          	bgeu	a5,a0,1c7c <_ZN5cue_t11CommandExecEv+0x6f8>
    1a12:	1541                	addi	a0,a0,-16
    1a14:	c008                	sw	a0,0(s0)
    1a16:	bb09                	j	1728 <_ZN5cue_t11CommandExecEv+0x1a4>
    1a18:	07800793          	li	a5,120
    1a1c:	f8f90ce3          	beq	s2,a5,19b4 <_ZN5cue_t11CommandExecEv+0x430>
    1a20:	0fc00793          	li	a5,252
    1a24:	f8f914e3          	bne	s2,a5,19ac <_ZN5cue_t11CommandExecEv+0x428>
    1a28:	4795                	li	a5,5
    1a2a:	c01c                	sw	a5,0(s0)
    1a2c:	b771                	j	19b8 <_ZN5cue_t11CommandExecEv+0x434>
    1a2e:	58444603          	lbu	a2,1412(s0)
    1a32:	58544683          	lbu	a3,1413(s0)
    1a36:	58644583          	lbu	a1,1414(s0)
    1a3a:	00465793          	srli	a5,a2,0x4
    1a3e:	00279713          	slli	a4,a5,0x2
    1a42:	973e                	add	a4,a4,a5
    1a44:	8a3d                	andi	a2,a2,15
    1a46:	0706                	slli	a4,a4,0x1
    1a48:	9732                	add	a4,a4,a2
    1a4a:	6605                	lui	a2,0x1
    1a4c:	0046d793          	srli	a5,a3,0x4
    1a50:	19460613          	addi	a2,a2,404 # 1194 <_ZN5cue_t7LoadCUEEi+0x20c>
    1a54:	0ff77713          	zext.b	a4,a4
    1a58:	02c70733          	mul	a4,a4,a2
    1a5c:	00279613          	slli	a2,a5,0x2
    1a60:	97b2                	add	a5,a5,a2
    1a62:	0786                	slli	a5,a5,0x1
    1a64:	00f6f613          	andi	a2,a3,15
    1a68:	97b2                	add	a5,a5,a2
    1a6a:	0045d693          	srli	a3,a1,0x4
    1a6e:	0ff7f793          	zext.b	a5,a5
    1a72:	00269513          	slli	a0,a3,0x2
    1a76:	00279613          	slli	a2,a5,0x2
    1a7a:	96aa                	add	a3,a3,a0
    1a7c:	963e                	add	a2,a2,a5
    1a7e:	0686                	slli	a3,a3,0x1
    1a80:	89bd                	andi	a1,a1,15
    1a82:	00461793          	slli	a5,a2,0x4
    1a86:	96ae                	add	a3,a3,a1
    1a88:	8f91                	sub	a5,a5,a2
    1a8a:	0ff6f693          	zext.b	a3,a3
    1a8e:	97b6                	add	a5,a5,a3
    1a90:	97ba                	add	a5,a5,a4
    1a92:	f6a78793          	addi	a5,a5,-150
    1a96:	bb21                	j	17ae <_ZN5cue_t11CommandExecEv+0x22a>
    1a98:	58444703          	lbu	a4,1412(s0)
    1a9c:	58544683          	lbu	a3,1413(s0)
    1aa0:	58644583          	lbu	a1,1414(s0)
    1aa4:	00475793          	srli	a5,a4,0x4
    1aa8:	00279613          	slli	a2,a5,0x2
    1aac:	97b2                	add	a5,a5,a2
    1aae:	8b3d                	andi	a4,a4,15
    1ab0:	0786                	slli	a5,a5,0x1
    1ab2:	97ba                	add	a5,a5,a4
    1ab4:	6605                	lui	a2,0x1
    1ab6:	0046d713          	srli	a4,a3,0x4
    1aba:	19460613          	addi	a2,a2,404 # 1194 <_ZN5cue_t7LoadCUEEi+0x20c>
    1abe:	0ff7f793          	zext.b	a5,a5
    1ac2:	02c787b3          	mul	a5,a5,a2
    1ac6:	00271613          	slli	a2,a4,0x2
    1aca:	9732                	add	a4,a4,a2
    1acc:	0706                	slli	a4,a4,0x1
    1ace:	00f6f613          	andi	a2,a3,15
    1ad2:	9732                	add	a4,a4,a2
    1ad4:	0045d693          	srli	a3,a1,0x4
    1ad8:	0ff77713          	zext.b	a4,a4
    1adc:	00269513          	slli	a0,a3,0x2
    1ae0:	00271613          	slli	a2,a4,0x2
    1ae4:	96aa                	add	a3,a3,a0
    1ae6:	963a                	add	a2,a2,a4
    1ae8:	89bd                	andi	a1,a1,15
    1aea:	00169713          	slli	a4,a3,0x1
    1aee:	00461493          	slli	s1,a2,0x4
    1af2:	972e                	add	a4,a4,a1
    1af4:	8c91                	sub	s1,s1,a2
    1af6:	0ff77713          	zext.b	a4,a4
    1afa:	94ba                	add	s1,s1,a4
    1afc:	94be                	add	s1,s1,a5
    1afe:	f6a48493          	addi	s1,s1,-150
    1b02:	b919                	j	1718 <_ZN5cue_t11CommandExecEv+0x194>
    1b04:	4c5c                	lw	a5,28(s0)
    1b06:	04b00613          	li	a2,75
    1b0a:	76e1                	lui	a3,0xffff8
    1b0c:	09678793          	addi	a5,a5,150
    1b10:	02c7c833          	div	a6,a5,a2
    1b14:	0691                	addi	a3,a3,4 # ffff8004 <__ram_end+0xfffe8004>
    1b16:	a4d51023          	sh	a3,-1472(a0)
    1b1a:	03c00693          	li	a3,60
    1b1e:	48a9                	li	a7,10
    1b20:	02d86833          	rem	a6,a6,a3
    1b24:	6685                	lui	a3,0x1
    1b26:	19468693          	addi	a3,a3,404 # 1194 <_ZN5cue_t7LoadCUEEi+0x20c>
    1b2a:	02d7c6b3          	div	a3,a5,a3
    1b2e:	0ff87813          	zext.b	a6,a6
    1b32:	02c7e7b3          	rem	a5,a5,a2
    1b36:	0ff6f693          	zext.b	a3,a3
    1b3a:	031855b3          	divu	a1,a6,a7
    1b3e:	0ff7f793          	zext.b	a5,a5
    1b42:	03187833          	remu	a6,a6,a7
    1b46:	0592                	slli	a1,a1,0x4
    1b48:	0316d633          	divu	a2,a3,a7
    1b4c:	0105e5b3          	or	a1,a1,a6
    1b50:	0ff5f593          	zext.b	a1,a1
    1b54:	05a2                	slli	a1,a1,0x8
    1b56:	0316f6b3          	remu	a3,a3,a7
    1b5a:	0612                	slli	a2,a2,0x4
    1b5c:	0317d833          	divu	a6,a5,a7
    1b60:	8ed1                	or	a3,a3,a2
    1b62:	0ff6f693          	zext.b	a3,a3
    1b66:	8ecd                	or	a3,a3,a1
    1b68:	00d71123          	sh	a3,2(a4)
    1b6c:	0317f7b3          	remu	a5,a5,a7
    1b70:	00481693          	slli	a3,a6,0x4
    1b74:	8fd5                	or	a5,a5,a3
    1b76:	00f70223          	sb	a5,4(a4)
    1b7a:	b681                	j	16ba <_ZN5cue_t11CommandExecEv+0x136>
    1b7c:	58444683          	lbu	a3,1412(s0)
    1b80:	4701                	li	a4,0
    1b82:	0046d793          	srli	a5,a3,0x4
    1b86:	00279613          	slli	a2,a5,0x2
    1b8a:	97b2                	add	a5,a5,a2
    1b8c:	0786                	slli	a5,a5,0x1
    1b8e:	8abd                	andi	a3,a3,15
    1b90:	97b6                	add	a5,a5,a3
    1b92:	0ff7f793          	zext.b	a5,a5
    1b96:	c791                	beqz	a5,1ba2 <_ZN5cue_t11CommandExecEv+0x61e>
    1b98:	5018                	lw	a4,32(s0)
    1b9a:	00e7d363          	bge	a5,a4,1ba0 <_ZN5cue_t11CommandExecEv+0x61c>
    1b9e:	873e                	mv	a4,a5
    1ba0:	177d                	addi	a4,a4,-1
    1ba2:	02c00793          	li	a5,44
    1ba6:	02f70733          	mul	a4,a4,a5
    1baa:	9722                	add	a4,a4,s0
    1bac:	5f04                	lw	s1,56(a4)
    1bae:	b6ad                	j	1718 <_ZN5cue_t11CommandExecEv+0x194>
    1bb0:	58444683          	lbu	a3,1412(s0)
    1bb4:	04b00893          	li	a7,75
    1bb8:	45a9                	li	a1,10
    1bba:	0046d793          	srli	a5,a3,0x4
    1bbe:	00279613          	slli	a2,a5,0x2
    1bc2:	97b2                	add	a5,a5,a2
    1bc4:	8abd                	andi	a3,a3,15
    1bc6:	0786                	slli	a5,a5,0x1
    1bc8:	97b6                	add	a5,a5,a3
    1bca:	0ff7f793          	zext.b	a5,a5
    1bce:	02c00693          	li	a3,44
    1bd2:	17fd                	addi	a5,a5,-1
    1bd4:	02d787b3          	mul	a5,a5,a3
    1bd8:	76e1                	lui	a3,0xffff8
    1bda:	0691                	addi	a3,a3,4 # ffff8004 <__ram_end+0xfffe8004>
    1bdc:	a4d51023          	sh	a3,-1472(a0)
    1be0:	97a2                	add	a5,a5,s0
    1be2:	5f94                	lw	a3,56(a5)
    1be4:	0407a803          	lw	a6,64(a5)
    1be8:	09668793          	addi	a5,a3,150
    1bec:	0317c633          	div	a2,a5,a7
    1bf0:	00281693          	slli	a3,a6,0x2
    1bf4:	00d702a3          	sb	a3,5(a4)
    1bf8:	6685                	lui	a3,0x1
    1bfa:	19468693          	addi	a3,a3,404 # 1194 <_ZN5cue_t7LoadCUEEi+0x20c>
    1bfe:	03c00813          	li	a6,60
    1c02:	02d7c6b3          	div	a3,a5,a3
    1c06:	03066633          	rem	a2,a2,a6
    1c0a:	0ff6f693          	zext.b	a3,a3
    1c0e:	0317e7b3          	rem	a5,a5,a7
    1c12:	0ff67613          	zext.b	a2,a2
    1c16:	02b6d333          	divu	t1,a3,a1
    1c1a:	0ff7f793          	zext.b	a5,a5
    1c1e:	02b658b3          	divu	a7,a2,a1
    1c22:	0312                	slli	t1,t1,0x4
    1c24:	02b7d833          	divu	a6,a5,a1
    1c28:	0892                	slli	a7,a7,0x4
    1c2a:	02b6f6b3          	remu	a3,a3,a1
    1c2e:	0812                	slli	a6,a6,0x4
    1c30:	02b67633          	remu	a2,a2,a1
    1c34:	00d366b3          	or	a3,t1,a3
    1c38:	00d70123          	sb	a3,2(a4)
    1c3c:	02b7f7b3          	remu	a5,a5,a1
    1c40:	00c8e6b3          	or	a3,a7,a2
    1c44:	00d701a3          	sb	a3,3(a4)
    1c48:	00f867b3          	or	a5,a6,a5
    1c4c:	00f70223          	sb	a5,4(a4)
    1c50:	b4ad                	j	16ba <_ZN5cue_t11CommandExecEv+0x136>
    1c52:	58444703          	lbu	a4,1412(s0)
    1c56:	00475793          	srli	a5,a4,0x4
    1c5a:	00279693          	slli	a3,a5,0x2
    1c5e:	97b6                	add	a5,a5,a3
    1c60:	8b3d                	andi	a4,a4,15
    1c62:	0786                	slli	a5,a5,0x1
    1c64:	97ba                	add	a5,a5,a4
    1c66:	0ff7f713          	zext.b	a4,a5
    1c6a:	e311                	bnez	a4,1c6e <_ZN5cue_t11CommandExecEv+0x6ea>
    1c6c:	4785                	li	a5,1
    1c6e:	5018                	lw	a4,32(s0)
    1c70:	0ff7f793          	zext.b	a5,a5
    1c74:	00f75863          	bge	a4,a5,1c84 <_ZN5cue_t11CommandExecEv+0x700>
    1c78:	4c5c                	lw	a5,28(s0)
    1c7a:	be15                	j	17ae <_ZN5cue_t11CommandExecEv+0x22a>
    1c7c:	c008                	sw	a0,0(s0)
    1c7e:	00042223          	sw	zero,4(s0)
    1c82:	b45d                	j	1728 <_ZN5cue_t11CommandExecEv+0x1a4>
    1c84:	17fd                	addi	a5,a5,-1
    1c86:	02c00713          	li	a4,44
    1c8a:	02e787b3          	mul	a5,a5,a4
    1c8e:	97a2                	add	a5,a5,s0
    1c90:	5f9c                	lw	a5,56(a5)
    1c92:	be31                	j	17ae <_ZN5cue_t11CommandExecEv+0x22a>
    1c94:	4781                	li	a5,0
    1c96:	bc55                	j	174a <_ZN5cue_t11CommandExecEv+0x1c6>
    1c98:	4781                	li	a5,0
    1c9a:	b319                	j	19a0 <_ZN5cue_t11CommandExecEv+0x41c>

00001c9c <_ZN5cue_t9GetStatusEv>:
    1c9c:	58055503          	lhu	a0,1408(a0)
    1ca0:	8082                	ret

00001ca2 <_ZN5cue_t10SetCommandEPh>:
    1ca2:	1141                	addi	sp,sp,-16
    1ca4:	4639                	li	a2,14
    1ca6:	58250513          	addi	a0,a0,1410
    1caa:	c606                	sw	ra,12(sp)
    1cac:	132010ef          	jal	ra,2dde <memcpy>
    1cb0:	40b2                	lw	ra,12(sp)
    1cb2:	4501                	li	a0,0
    1cb4:	0141                	addi	sp,sp,16
    1cb6:	8082                	ret

00001cb8 <_ZN5cue_t10SendStatusEt>:
    1cb8:	1141                	addi	sp,sp,-16
    1cba:	c422                	sw	s0,8(sp)
    1cbc:	842a                	mv	s0,a0
    1cbe:	03500513          	li	a0,53
    1cc2:	c606                	sw	ra,12(sp)
    1cc4:	c226                	sw	s1,4(sp)
    1cc6:	84ae                	mv	s1,a1
    1cc8:	23b5                	jal	2234 <_Z20HPS_spi_uio_cmd_contt>
    1cca:	8526                	mv	a0,s1
    1ccc:	21d1                	jal	2190 <_Z12HPS_fpga_spit>
    1cce:	57544503          	lbu	a0,1397(s0)
    1cd2:	00a03533          	snez	a0,a0
    1cd6:	0506                	slli	a0,a0,0x1
    1cd8:	2965                	jal	2190 <_Z12HPS_fpga_spit>
    1cda:	4422                	lw	s0,8(sp)
    1cdc:	40b2                	lw	ra,12(sp)
    1cde:	4492                	lw	s1,4(sp)
    1ce0:	0141                	addi	sp,sp,16
    1ce2:	a949                	j	2174 <_Z13HPS_DisableIOv>

00001ce4 <_ZN5cue_t15SendDataRequestEv>:
    1ce4:	1141                	addi	sp,sp,-16
    1ce6:	c422                	sw	s0,8(sp)
    1ce8:	842a                	mv	s0,a0
    1cea:	03500513          	li	a0,53
    1cee:	c606                	sw	ra,12(sp)
    1cf0:	2391                	jal	2234 <_Z20HPS_spi_uio_cmd_contt>
    1cf2:	4501                	li	a0,0
    1cf4:	2971                	jal	2190 <_Z12HPS_fpga_spit>
    1cf6:	57544503          	lbu	a0,1397(s0)
    1cfa:	00153513          	seqz	a0,a0
    1cfe:	40a00533          	neg	a0,a0
    1d02:	9979                	andi	a0,a0,-2
    1d04:	050d                	addi	a0,a0,3
    1d06:	2169                	jal	2190 <_Z12HPS_fpga_spit>
    1d08:	4422                	lw	s0,8(sp)
    1d0a:	40b2                	lw	ra,12(sp)
    1d0c:	0141                	addi	sp,sp,16
    1d0e:	a19d                	j	2174 <_Z13HPS_DisableIOv>

00001d10 <_ZN5cue_t9SetRegionEh>:
    1d10:	56b50aa3          	sb	a1,1397(a0)
    1d14:	8082                	ret

00001d16 <_ZN5cue_t8ReadDataEv>:
    1d16:	54c52783          	lw	a5,1356(a0)
    1d1a:	1141                	addi	sp,sp,-16
    1d1c:	c226                	sw	s1,4(sp)
    1d1e:	02c00493          	li	s1,44
    1d22:	029787b3          	mul	a5,a5,s1
    1d26:	c606                	sw	ra,12(sp)
    1d28:	c422                	sw	s0,8(sp)
    1d2a:	c04a                	sw	s2,0(sp)
    1d2c:	97aa                	add	a5,a5,a0
    1d2e:	43b8                	lw	a4,64(a5)
    1d30:	cb31                	beqz	a4,1d84 <_ZN5cue_t8ReadDataEv+0x6e>
    1d32:	55052683          	lw	a3,1360(a0)
    1d36:	842a                	mv	s0,a0
    1d38:	0406c663          	bltz	a3,1d84 <_ZN5cue_t8ReadDataEv+0x6e>
    1d3c:	43f8                	lw	a4,68(a5)
    1d3e:	53c8                	lw	a0,36(a5)
    1d40:	5b8c                	lw	a1,48(a5)
    1d42:	80070793          	addi	a5,a4,-2048
    1d46:	c7a9                	beqz	a5,1d90 <_ZN5cue_t8ReadDataEv+0x7a>
    1d48:	6905                	lui	s2,0x1
    1d4a:	93090913          	addi	s2,s2,-1744 # 930 <_Z10pcecd_pollv+0x92>
    1d4e:	032686b3          	mul	a3,a3,s2
    1d52:	864a                	mv	a2,s2
    1d54:	06c1                	addi	a3,a3,16
    1d56:	40b685b3          	sub	a1,a3,a1
    1d5a:	ed5fe0ef          	jal	ra,c2e <_Z12RISCFileSeekimm>
    1d5e:	54c42783          	lw	a5,1356(s0)
    1d62:	874a                	mv	a4,s2
    1d64:	029787b3          	mul	a5,a5,s1
    1d68:	40b2                	lw	ra,12(sp)
    1d6a:	4492                	lw	s1,4(sp)
    1d6c:	4902                	lw	s2,0(sp)
    1d6e:	03600693          	li	a3,54
    1d72:	08800613          	li	a2,136
    1d76:	4581                	li	a1,0
    1d78:	943e                	add	s0,s0,a5
    1d7a:	5048                	lw	a0,36(s0)
    1d7c:	4422                	lw	s0,8(sp)
    1d7e:	0141                	addi	sp,sp,16
    1d80:	930ff06f          	j	eb0 <_Z15RISCFileReadAdvihhhm>
    1d84:	40b2                	lw	ra,12(sp)
    1d86:	4422                	lw	s0,8(sp)
    1d88:	4492                	lw	s1,4(sp)
    1d8a:	4902                	lw	s2,0(sp)
    1d8c:	0141                	addi	sp,sp,16
    1d8e:	8082                	ret
    1d90:	06ae                	slli	a3,a3,0xb
    1d92:	6905                	lui	s2,0x1
    1d94:	80090613          	addi	a2,s2,-2048 # 800 <main+0x10>
    1d98:	40b685b3          	sub	a1,a3,a1
    1d9c:	e93fe0ef          	jal	ra,c2e <_Z12RISCFileSeekimm>
    1da0:	54c42783          	lw	a5,1356(s0)
    1da4:	80090713          	addi	a4,s2,-2048
    1da8:	bf75                	j	1d64 <_ZN5cue_t8ReadDataEv+0x4e>

00001daa <_ZN5cue_t6UpdateEv>:
    1daa:	1101                	addi	sp,sp,-32
    1dac:	cc22                	sw	s0,24(sp)
    1dae:	ce06                	sw	ra,28(sp)
    1db0:	ca26                	sw	s1,20(sp)
    1db2:	c84a                	sw	s2,16(sp)
    1db4:	c64e                	sw	s3,12(sp)
    1db6:	00854783          	lbu	a5,8(a0)
    1dba:	4709                	li	a4,2
    1dbc:	842a                	mv	s0,a0
    1dbe:	0ee78363          	beq	a5,a4,1ea4 <_ZN5cue_t6UpdateEv+0xfa>
    1dc2:	470d                	li	a4,3
    1dc4:	00e78c63          	beq	a5,a4,1ddc <_ZN5cue_t6UpdateEv+0x32>
    1dc8:	4711                	li	a4,4
    1dca:	0ce78263          	beq	a5,a4,1e8e <_ZN5cue_t6UpdateEv+0xe4>
    1dce:	40f2                	lw	ra,28(sp)
    1dd0:	4462                	lw	s0,24(sp)
    1dd2:	44d2                	lw	s1,20(sp)
    1dd4:	4942                	lw	s2,16(sp)
    1dd6:	49b2                	lw	s3,12(sp)
    1dd8:	6105                	addi	sp,sp,32
    1dda:	8082                	ret
    1ddc:	411c                	lw	a5,0(a0)
    1dde:	ebd5                	bnez	a5,1e92 <_ZN5cue_t6UpdateEv+0xe8>
    1de0:	415c                	lw	a5,4(a0)
    1de2:	1a079963          	bnez	a5,1f94 <_ZN5cue_t6UpdateEv+0x1ea>
    1de6:	55052583          	lw	a1,1360(a0)
    1dea:	5d5c                	lw	a5,60(a0)
    1dec:	1cf5cf63          	blt	a1,a5,1fca <_ZN5cue_t6UpdateEv+0x220>
    1df0:	5110                	lw	a2,32(a0)
    1df2:	06850713          	addi	a4,a0,104
    1df6:	4781                	li	a5,0
    1df8:	a031                	j	1e04 <_ZN5cue_t6UpdateEv+0x5a>
    1dfa:	fd472683          	lw	a3,-44(a4)
    1dfe:	0785                	addi	a5,a5,1
    1e00:	00d5c663          	blt	a1,a3,1e0c <_ZN5cue_t6UpdateEv+0x62>
    1e04:	02c70713          	addi	a4,a4,44
    1e08:	fec7c9e3          	blt	a5,a2,1dfa <_ZN5cue_t6UpdateEv+0x50>
    1e0c:	56c42683          	lw	a3,1388(s0)
    1e10:	54f42623          	sw	a5,1356(s0)
    1e14:	1206ce63          	bltz	a3,1f50 <_ZN5cue_t6UpdateEv+0x1a6>
    1e18:	6905                	lui	s2,0x1
    1e1a:	4481                	li	s1,0
    1e1c:	02c00993          	li	s3,44
    1e20:	93090913          	addi	s2,s2,-1744 # 930 <_Z10pcecd_pollv+0x92>
    1e24:	a829                	j	1e3e <_ZN5cue_t6UpdateEv+0x94>
    1e26:	55242e23          	sw	s2,1372(s0)
    1e2a:	56042023          	sw	zero,1376(s0)
    1e2e:	0585                	addi	a1,a1,1
    1e30:	0485                	addi	s1,s1,1
    1e32:	54b42823          	sw	a1,1360(s0)
    1e36:	1096cd63          	blt	a3,s1,1f50 <_ZN5cue_t6UpdateEv+0x1a6>
    1e3a:	54c42783          	lw	a5,1356(s0)
    1e3e:	033787b3          	mul	a5,a5,s3
    1e42:	97a2                	add	a5,a5,s0
    1e44:	43b8                	lw	a4,64(a5)
    1e46:	f765                	bnez	a4,1e2e <_ZN5cue_t6UpdateEv+0x84>
    1e48:	5798                	lw	a4,40(a5)
    1e4a:	df71                	beqz	a4,1e26 <_ZN5cue_t6UpdateEv+0x7c>
    1e4c:	032585b3          	mul	a1,a1,s2
    1e50:	5b98                	lw	a4,48(a5)
    1e52:	53c8                	lw	a0,36(a5)
    1e54:	864a                	mv	a2,s2
    1e56:	8d99                	sub	a1,a1,a4
    1e58:	dd7fe0ef          	jal	ra,c2e <_Z12RISCFileSeekimm>
    1e5c:	54c42783          	lw	a5,1356(s0)
    1e60:	874a                	mv	a4,s2
    1e62:	03600693          	li	a3,54
    1e66:	033787b3          	mul	a5,a5,s3
    1e6a:	4625                	li	a2,9
    1e6c:	03000593          	li	a1,48
    1e70:	97a2                	add	a5,a5,s0
    1e72:	5788                	lw	a0,40(a5)
    1e74:	55242e23          	sw	s2,1372(s0)
    1e78:	56042023          	sw	zero,1376(s0)
    1e7c:	c501                	beqz	a0,1e84 <_ZN5cue_t6UpdateEv+0xda>
    1e7e:	53c8                	lw	a0,36(a5)
    1e80:	830ff0ef          	jal	ra,eb0 <_Z15RISCFileReadAdvihhhm>
    1e84:	55042583          	lw	a1,1360(s0)
    1e88:	56c42683          	lw	a3,1388(s0)
    1e8c:	b74d                	j	1e2e <_ZN5cue_t6UpdateEv+0x84>
    1e8e:	411c                	lw	a5,0(a0)
    1e90:	df9d                	beqz	a5,1dce <_ZN5cue_t6UpdateEv+0x24>
    1e92:	17fd                	addi	a5,a5,-1
    1e94:	40f2                	lw	ra,28(sp)
    1e96:	c01c                	sw	a5,0(s0)
    1e98:	4462                	lw	s0,24(sp)
    1e9a:	44d2                	lw	s1,20(sp)
    1e9c:	4942                	lw	s2,16(sp)
    1e9e:	49b2                	lw	s3,12(sp)
    1ea0:	6105                	addi	sp,sp,32
    1ea2:	8082                	ret
    1ea4:	411c                	lw	a5,0(a0)
    1ea6:	f7f5                	bnez	a5,1e92 <_ZN5cue_t6UpdateEv+0xe8>
    1ea8:	54c52783          	lw	a5,1356(a0)
    1eac:	5118                	lw	a4,32(a0)
    1eae:	08e7de63          	bge	a5,a4,1f4a <_ZN5cue_t6UpdateEv+0x1a0>
    1eb2:	01954703          	lbu	a4,25(a0)
    1eb6:	df01                	beqz	a4,1dce <_ZN5cue_t6UpdateEv+0x24>
    1eb8:	02c00713          	li	a4,44
    1ebc:	02e78733          	mul	a4,a5,a4
    1ec0:	00050ca3          	sb	zero,25(a0)
    1ec4:	972a                	add	a4,a4,a0
    1ec6:	4334                	lw	a3,64(a4)
    1ec8:	0e069663          	bnez	a3,1fb4 <_ZN5cue_t6UpdateEv+0x20a>
    1ecc:	55052683          	lw	a3,1360(a0)
    1ed0:	5f18                	lw	a4,56(a4)
    1ed2:	00e6c463          	blt	a3,a4,1eda <_ZN5cue_t6UpdateEv+0x130>
    1ed6:	000504a3          	sb	zero,9(a0)
    1eda:	55442703          	lw	a4,1364(s0)
    1ede:	177d                	addi	a4,a4,-1
    1ee0:	54e42a23          	sw	a4,1364(s0)
    1ee4:	e719                	bnez	a4,1ef2 <_ZN5cue_t6UpdateEv+0x148>
    1ee6:	4705                	li	a4,1
    1ee8:	58041023          	sh	zero,1408(s0)
    1eec:	c858                	sw	a4,20(s0)
    1eee:	00040423          	sb	zero,8(s0)
    1ef2:	02c00613          	li	a2,44
    1ef6:	02c785b3          	mul	a1,a5,a2
    1efa:	00168713          	addi	a4,a3,1
    1efe:	54e42823          	sw	a4,1360(s0)
    1f02:	00b406b3          	add	a3,s0,a1
    1f06:	5ed4                	lw	a3,60(a3)
    1f08:	ecd743e3          	blt	a4,a3,1dce <_ZN5cue_t6UpdateEv+0x24>
    1f0c:	0785                	addi	a5,a5,1
    1f0e:	02c78633          	mul	a2,a5,a2
    1f12:	54f42623          	sw	a5,1356(s0)
    1f16:	4785                	li	a5,1
    1f18:	00f404a3          	sb	a5,9(s0)
    1f1c:	00c407b3          	add	a5,s0,a2
    1f20:	5798                	lw	a4,40(a5)
    1f22:	ea0706e3          	beqz	a4,1dce <_ZN5cue_t6UpdateEv+0x24>
    1f26:	5f98                	lw	a4,56(a5)
    1f28:	6605                	lui	a2,0x1
    1f2a:	93060613          	addi	a2,a2,-1744 # 930 <_Z10pcecd_pollv+0x92>
    1f2e:	02c70733          	mul	a4,a4,a2
    1f32:	5b8c                	lw	a1,48(a5)
    1f34:	4462                	lw	s0,24(sp)
    1f36:	40f2                	lw	ra,28(sp)
    1f38:	44d2                	lw	s1,20(sp)
    1f3a:	4942                	lw	s2,16(sp)
    1f3c:	49b2                	lw	s3,12(sp)
    1f3e:	53c8                	lw	a0,36(a5)
    1f40:	6105                	addi	sp,sp,32
    1f42:	40b705b3          	sub	a1,a4,a1
    1f46:	ce9fe06f          	j	c2e <_Z12RISCFileSeekimm>
    1f4a:	00050423          	sb	zero,8(a0)
    1f4e:	b541                	j	1dce <_ZN5cue_t6UpdateEv+0x24>
    1f50:	56842783          	lw	a5,1384(s0)
    1f54:	56042623          	sw	zero,1388(s0)
    1f58:	04b7d163          	bge	a5,a1,1f9a <_ZN5cue_t6UpdateEv+0x1f0>
    1f5c:	57044783          	lbu	a5,1392(s0)
    1f60:	4705                	li	a4,1
    1f62:	04e78f63          	beq	a5,a4,1fc0 <_ZN5cue_t6UpdateEv+0x216>
    1f66:	00040423          	sb	zero,8(s0)
    1f6a:	4709                	li	a4,2
    1f6c:	e6e791e3          	bne	a5,a4,1dce <_ZN5cue_t6UpdateEv+0x24>
    1f70:	03500513          	li	a0,53
    1f74:	24c1                	jal	2234 <_Z20HPS_spi_uio_cmd_contt>
    1f76:	4501                	li	a0,0
    1f78:	2c21                	jal	2190 <_Z12HPS_fpga_spit>
    1f7a:	57544503          	lbu	a0,1397(s0)
    1f7e:	00a03533          	snez	a0,a0
    1f82:	0506                	slli	a0,a0,0x1
    1f84:	2431                	jal	2190 <_Z12HPS_fpga_spit>
    1f86:	4462                	lw	s0,24(sp)
    1f88:	40f2                	lw	ra,28(sp)
    1f8a:	44d2                	lw	s1,20(sp)
    1f8c:	4942                	lw	s2,16(sp)
    1f8e:	49b2                	lw	s3,12(sp)
    1f90:	6105                	addi	sp,sp,32
    1f92:	a2cd                	j	2174 <_Z13HPS_DisableIOv>
    1f94:	17fd                	addi	a5,a5,-1
    1f96:	c15c                	sw	a5,4(a0)
    1f98:	bd1d                	j	1dce <_ZN5cue_t6UpdateEv+0x24>
    1f9a:	54c42703          	lw	a4,1356(s0)
    1f9e:	02c00793          	li	a5,44
    1fa2:	02f707b3          	mul	a5,a4,a5
    1fa6:	97a2                	add	a5,a5,s0
    1fa8:	43bc                	lw	a5,64(a5)
    1faa:	fbcd                	bnez	a5,1f5c <_ZN5cue_t6UpdateEv+0x1b2>
    1fac:	501c                	lw	a5,32(s0)
    1fae:	e2e7d0e3          	bge	a5,a4,1dce <_ZN5cue_t6UpdateEv+0x24>
    1fb2:	b76d                	j	1f5c <_ZN5cue_t6UpdateEv+0x1b2>
    1fb4:	338d                	jal	1d16 <_ZN5cue_t8ReadDataEv>
    1fb6:	55042683          	lw	a3,1360(s0)
    1fba:	54c42783          	lw	a5,1356(s0)
    1fbe:	bf31                	j	1eda <_ZN5cue_t6UpdateEv+0x130>
    1fc0:	56442783          	lw	a5,1380(s0)
    1fc4:	54f42823          	sw	a5,1360(s0)
    1fc8:	b519                	j	1dce <_ZN5cue_t6UpdateEv+0x24>
    1fca:	4781                	li	a5,0
    1fcc:	b581                	j	1e0c <_ZN5cue_t6UpdateEv+0x62>

00001fce <_Z14get_cd_seek_msii>:
    1fce:	1141                	addi	sp,sp,-16
    1fd0:	6791                	lui	a5,0x4
    1fd2:	90c78693          	addi	a3,a5,-1780 # 390c <sector_list+0x4>
    1fd6:	c606                	sw	ra,12(sp)
    1fd8:	c422                	sw	s0,8(sp)
    1fda:	862e                	mv	a2,a1
    1fdc:	90c78793          	addi	a5,a5,-1780
    1fe0:	4701                	li	a4,0
    1fe2:	4839                	li	a6,14
    1fe4:	438c                	lw	a1,0(a5)
    1fe6:	00b54563          	blt	a0,a1,1ff0 <_Z14get_cd_seek_msii+0x22>
    1fea:	43cc                	lw	a1,4(a5)
    1fec:	00a5d763          	bge	a1,a0,1ffa <_Z14get_cd_seek_msii+0x2c>
    1ff0:	0705                	addi	a4,a4,1
    1ff2:	07d1                	addi	a5,a5,20
    1ff4:	ff0718e3          	bne	a4,a6,1fe4 <_Z14get_cd_seek_msii+0x16>
    1ff8:	4701                	li	a4,0
    1ffa:	4781                	li	a5,0
    1ffc:	4839                	li	a6,14
    1ffe:	428c                	lw	a1,0(a3)
    2000:	00b64563          	blt	a2,a1,200a <_Z14get_cd_seek_msii+0x3c>
    2004:	42cc                	lw	a1,4(a3)
    2006:	0ac5df63          	bge	a1,a2,20c4 <_Z14get_cd_seek_msii+0xf6>
    200a:	0785                	addi	a5,a5,1
    200c:	06d1                	addi	a3,a3,20
    200e:	ff0798e3          	bne	a5,a6,1ffe <_Z14get_cd_seek_msii+0x30>
    2012:	6591                	lui	a1,0x4
    2014:	90858593          	addi	a1,a1,-1784 # 3908 <sector_list>
    2018:	0005ae83          	lw	t4,0(a1)
    201c:	40a60833          	sub	a6,a2,a0
    2020:	cb51                	beqz	a4,20b4 <_Z14get_cd_seek_msii+0xe6>
    2022:	00271693          	slli	a3,a4,0x2
    2026:	00e687b3          	add	a5,a3,a4
    202a:	078a                	slli	a5,a5,0x2
    202c:	97ae                	add	a5,a5,a1
    202e:	0007af03          	lw	t5,0(a5)
    2032:	4881                	li	a7,0
    2034:	4781                	li	a5,0
    2036:	96ba                	add	a3,a3,a4
    2038:	98be                	add	a7,a7,a5
    203a:	068a                	slli	a3,a3,0x2
    203c:	088a                	slli	a7,a7,0x2
    203e:	96ae                	add	a3,a3,a1
    2040:	98ae                	add	a7,a7,a1
    2042:	0046a303          	lw	t1,4(a3)
    2046:	0088a883          	lw	a7,8(a7)
    204a:	40f706b3          	sub	a3,a4,a5
    204e:	40650333          	sub	t1,a0,t1
    2052:	40c888b3          	sub	a7,a7,a2
    2056:	03e34333          	div	t1,t1,t5
    205a:	16fd                	addi	a3,a3,-1
    205c:	873e                	mv	a4,a5
    205e:	64700793          	li	a5,1607
    2062:	03d8c8b3          	div	a7,a7,t4
    2066:	02f687b3          	mul	a5,a3,a5
    206a:	006886b3          	add	a3,a7,t1
    206e:	97b6                	add	a5,a5,a3
    2070:	00380693          	addi	a3,a6,3
    2074:	4899                	li	a7,6
    2076:	02100413          	li	s0,33
    207a:	00d8fe63          	bgeu	a7,a3,2096 <_Z14get_cd_seek_msii+0xc8>
    207e:	00271693          	slli	a3,a4,0x2
    2082:	9736                	add	a4,a4,a3
    2084:	070a                	slli	a4,a4,0x2
    2086:	972e                	add	a4,a4,a1
    2088:	0819                	addi	a6,a6,6
    208a:	46b1                	li	a3,12
    208c:	4740                	lw	s0,12(a4)
    208e:	0706ef63          	bltu	a3,a6,210c <_Z14get_cd_seek_msii+0x13e>
    2092:	09640413          	addi	s0,s0,150
    2096:	85aa                	mv	a1,a0
    2098:	6511                	lui	a0,0x4
    209a:	80050513          	addi	a0,a0,-2048 # 3800 <stream_vscanf+0x910>
    209e:	2f19                	jal	27b4 <riscprintf_>
    20a0:	6511                	lui	a0,0x4
    20a2:	85a2                	mv	a1,s0
    20a4:	82050513          	addi	a0,a0,-2016 # 3820 <stream_vscanf+0x930>
    20a8:	2731                	jal	27b4 <riscprintf_>
    20aa:	40b2                	lw	ra,12(sp)
    20ac:	8522                	mv	a0,s0
    20ae:	4422                	lw	s0,8(sp)
    20b0:	0141                	addi	sp,sp,16
    20b2:	8082                	ret
    20b4:	41f85693          	srai	a3,a6,0x1f
    20b8:	0106c7b3          	xor	a5,a3,a6
    20bc:	8f95                	sub	a5,a5,a3
    20be:	03d7c7b3          	div	a5,a5,t4
    20c2:	b77d                	j	2070 <_Z14get_cd_seek_msii+0xa2>
    20c4:	00279893          	slli	a7,a5,0x2
    20c8:	6591                	lui	a1,0x4
    20ca:	00f88333          	add	t1,a7,a5
    20ce:	90858593          	addi	a1,a1,-1784 # 3908 <sector_list>
    20d2:	030a                	slli	t1,t1,0x2
    20d4:	932e                	add	t1,t1,a1
    20d6:	00032e83          	lw	t4,0(t1)
    20da:	40a60833          	sub	a6,a2,a0
    20de:	fcf70be3          	beq	a4,a5,20b4 <_Z14get_cd_seek_msii+0xe6>
    20e2:	00271693          	slli	a3,a4,0x2
    20e6:	00e68e33          	add	t3,a3,a4
    20ea:	0e0a                	slli	t3,t3,0x2
    20ec:	9e2e                	add	t3,t3,a1
    20ee:	000e2f03          	lw	t5,0(t3)
    20f2:	f4f752e3          	bge	a4,a5,2036 <_Z14get_cd_seek_msii+0x68>
    20f6:	00432883          	lw	a7,4(t1)
    20fa:	008e2e03          	lw	t3,8(t3)
    20fe:	40e786b3          	sub	a3,a5,a4
    2102:	411608b3          	sub	a7,a2,a7
    2106:	40ae0333          	sub	t1,t3,a0
    210a:	b7b1                	j	2056 <_Z14get_cd_seek_msii+0x88>
    210c:	05000713          	li	a4,80
    2110:	00f75963          	bge	a4,a5,2122 <_Z14get_cd_seek_msii+0x154>
    2114:	0a000693          	li	a3,160
    2118:	00f6c863          	blt	a3,a5,2128 <_Z14get_cd_seek_msii+0x15a>
    211c:	16e40413          	addi	s0,s0,366
    2120:	bf9d                	j	2096 <_Z14get_cd_seek_msii+0xc8>
    2122:	11b40413          	addi	s0,s0,283
    2126:	bf85                	j	2096 <_Z14get_cd_seek_msii+0xc8>
    2128:	28400693          	li	a3,644
    212c:	00f6cd63          	blt	a3,a5,2146 <_Z14get_cd_seek_msii+0x178>
    2130:	f5f78793          	addi	a5,a5,-161
    2134:	00479693          	slli	a3,a5,0x4
    2138:	97b6                	add	a5,a5,a3
    213a:	02e7c7b3          	div	a5,a5,a4
    213e:	16e40413          	addi	s0,s0,366
    2142:	943e                	add	s0,s0,a5
    2144:	bf89                	j	2096 <_Z14get_cd_seek_msii+0xc8>
    2146:	d7c78793          	addi	a5,a5,-644
    214a:	00479713          	slli	a4,a5,0x4
    214e:	97ba                	add	a5,a5,a4
    2150:	0c300713          	li	a4,195
    2154:	02e7c7b3          	div	a5,a5,a4
    2158:	25840413          	addi	s0,s0,600
    215c:	943e                	add	s0,s0,a5
    215e:	bf25                	j	2096 <_Z14get_cd_seek_msii+0xc8>

00002160 <_Z12HPS_EnableIOv>:
    2160:	fd000713          	li	a4,-48
    2164:	431c                	lw	a5,0(a4)
    2166:	0001                	nop
    2168:	0001                	nop
    216a:	801006b7          	lui	a3,0x80100
    216e:	8fd5                	or	a5,a5,a3
    2170:	c31c                	sw	a5,0(a4)
    2172:	8082                	ret

00002174 <_Z13HPS_DisableIOv>:
    2174:	fd000693          	li	a3,-48
    2178:	429c                	lw	a5,0(a3)
    217a:	0001                	nop
    217c:	0001                	nop
    217e:	fff00737          	lui	a4,0xfff00
    2182:	177d                	addi	a4,a4,-1 # ffefffff <__ram_end+0xffeeffff>
    2184:	8ff9                	and	a5,a5,a4
    2186:	80000737          	lui	a4,0x80000
    218a:	8fd9                	or	a5,a5,a4
    218c:	c29c                	sw	a5,0(a3)
    218e:	8082                	ret

00002190 <_Z12HPS_fpga_spit>:
    2190:	fd002683          	lw	a3,-48(zero) # ffffffd0 <__ram_end+0xfffeffd0>
    2194:	0001                	nop
    2196:	0001                	nop
    2198:	fffd07b7          	lui	a5,0xfffd0
    219c:	8efd                	and	a3,a3,a5
    219e:	8ec9                	or	a3,a3,a0
    21a0:	0001                	nop
    21a2:	000207b7          	lui	a5,0x20
    21a6:	fcd02823          	sw	a3,-48(zero) # ffffffd0 <__ram_end+0xfffeffd0>
    21aa:	8fd5                	or	a5,a5,a3
    21ac:	fcf02823          	sw	a5,-48(zero) # ffffffd0 <__ram_end+0xfffeffd0>
    21b0:	00020737          	lui	a4,0x20
    21b4:	fd402783          	lw	a5,-44(zero) # ffffffd4 <__ram_end+0xfffeffd4>
    21b8:	8ff9                	and	a5,a5,a4
    21ba:	dfed                	beqz	a5,21b4 <_Z12HPS_fpga_spit+0x24>
    21bc:	fcd02823          	sw	a3,-48(zero) # ffffffd0 <__ram_end+0xfffeffd0>
    21c0:	00020737          	lui	a4,0x20
    21c4:	fd402503          	lw	a0,-44(zero) # ffffffd4 <__ram_end+0xfffeffd4>
    21c8:	00e577b3          	and	a5,a0,a4
    21cc:	ffe5                	bnez	a5,21c4 <_Z12HPS_fpga_spit+0x34>
    21ce:	0542                	slli	a0,a0,0x10
    21d0:	8141                	srli	a0,a0,0x10
    21d2:	8082                	ret

000021d4 <_Z13HPS_spi_writePKhmi>:
    21d4:	1141                	addi	sp,sp,-16
    21d6:	c422                	sw	s0,8(sp)
    21d8:	c04a                	sw	s2,0(sp)
    21da:	c606                	sw	ra,12(sp)
    21dc:	c226                	sw	s1,4(sp)
    21de:	842a                	mv	s0,a0
    21e0:	892e                	mv	s2,a1
    21e2:	e205                	bnez	a2,2202 <_Z13HPS_spi_writePKhmi+0x2e>
    21e4:	00b504b3          	add	s1,a0,a1
    21e8:	c599                	beqz	a1,21f6 <_Z13HPS_spi_writePKhmi+0x22>
    21ea:	00044503          	lbu	a0,0(s0)
    21ee:	0405                	addi	s0,s0,1
    21f0:	3745                	jal	2190 <_Z12HPS_fpga_spit>
    21f2:	fe941ce3          	bne	s0,s1,21ea <_Z13HPS_spi_writePKhmi+0x16>
    21f6:	40b2                	lw	ra,12(sp)
    21f8:	4422                	lw	s0,8(sp)
    21fa:	4492                	lw	s1,4(sp)
    21fc:	4902                	lw	s2,0(sp)
    21fe:	0141                	addi	sp,sp,16
    2200:	8082                	ret
    2202:	0015d493          	srli	s1,a1,0x1
    2206:	c48d                	beqz	s1,2230 <_Z13HPS_spi_writePKhmi+0x5c>
    2208:	0486                	slli	s1,s1,0x1
    220a:	94aa                	add	s1,s1,a0
    220c:	00045503          	lhu	a0,0(s0)
    2210:	0409                	addi	s0,s0,2
    2212:	3fbd                	jal	2190 <_Z12HPS_fpga_spit>
    2214:	fe941ce3          	bne	s0,s1,220c <_Z13HPS_spi_writePKhmi+0x38>
    2218:	00197913          	andi	s2,s2,1
    221c:	fc090de3          	beqz	s2,21f6 <_Z13HPS_spi_writePKhmi+0x22>
    2220:	4422                	lw	s0,8(sp)
    2222:	0004c503          	lbu	a0,0(s1)
    2226:	40b2                	lw	ra,12(sp)
    2228:	4492                	lw	s1,4(sp)
    222a:	4902                	lw	s2,0(sp)
    222c:	0141                	addi	sp,sp,16
    222e:	b78d                	j	2190 <_Z12HPS_fpga_spit>
    2230:	84aa                	mv	s1,a0
    2232:	b7dd                	j	2218 <_Z13HPS_spi_writePKhmi+0x44>

00002234 <_Z20HPS_spi_uio_cmd_contt>:
    2234:	fd000713          	li	a4,-48
    2238:	431c                	lw	a5,0(a4)
    223a:	0001                	nop
    223c:	0001                	nop
    223e:	801006b7          	lui	a3,0x80100
    2242:	8fd5                	or	a5,a5,a3
    2244:	c31c                	sw	a5,0(a4)
    2246:	0001                	nop
    2248:	0001                	nop
    224a:	b799                	j	2190 <_Z12HPS_fpga_spit>

0000224c <_Z21HPS_spi_uio_cmd8_conthh>:
    224c:	1141                	addi	sp,sp,-16
    224e:	fd000713          	li	a4,-48
    2252:	c422                	sw	s0,8(sp)
    2254:	c226                	sw	s1,4(sp)
    2256:	c606                	sw	ra,12(sp)
    2258:	431c                	lw	a5,0(a4)
    225a:	84aa                	mv	s1,a0
    225c:	842e                	mv	s0,a1
    225e:	0001                	nop
    2260:	0001                	nop
    2262:	801006b7          	lui	a3,0x80100
    2266:	8fd5                	or	a5,a5,a3
    2268:	c31c                	sw	a5,0(a4)
    226a:	4505                	li	a0,1
    226c:	323000ef          	jal	ra,2d8e <_Z10riscusleepi>
    2270:	8526                	mv	a0,s1
    2272:	3f39                	jal	2190 <_Z12HPS_fpga_spit>
    2274:	4505                	li	a0,1
    2276:	319000ef          	jal	ra,2d8e <_Z10riscusleepi>
    227a:	8522                	mv	a0,s0
    227c:	3f11                	jal	2190 <_Z12HPS_fpga_spit>
    227e:	40b2                	lw	ra,12(sp)
    2280:	4422                	lw	s0,8(sp)
    2282:	4492                	lw	s1,4(sp)
    2284:	0ff57513          	zext.b	a0,a0
    2288:	0141                	addi	sp,sp,16
    228a:	8082                	ret

0000228c <_Z16HPS_spi_uio_cmd8hh>:
    228c:	1141                	addi	sp,sp,-16
    228e:	c422                	sw	s0,8(sp)
    2290:	fd000413          	li	s0,-48
    2294:	c226                	sw	s1,4(sp)
    2296:	c04a                	sw	s2,0(sp)
    2298:	c606                	sw	ra,12(sp)
    229a:	401c                	lw	a5,0(s0)
    229c:	892a                	mv	s2,a0
    229e:	84ae                	mv	s1,a1
    22a0:	0001                	nop
    22a2:	0001                	nop
    22a4:	80100737          	lui	a4,0x80100
    22a8:	8fd9                	or	a5,a5,a4
    22aa:	c01c                	sw	a5,0(s0)
    22ac:	4505                	li	a0,1
    22ae:	2e1000ef          	jal	ra,2d8e <_Z10riscusleepi>
    22b2:	854a                	mv	a0,s2
    22b4:	3df1                	jal	2190 <_Z12HPS_fpga_spit>
    22b6:	4505                	li	a0,1
    22b8:	2d7000ef          	jal	ra,2d8e <_Z10riscusleepi>
    22bc:	8526                	mv	a0,s1
    22be:	3dc9                	jal	2190 <_Z12HPS_fpga_spit>
    22c0:	84aa                	mv	s1,a0
    22c2:	4505                	li	a0,1
    22c4:	2cb000ef          	jal	ra,2d8e <_Z10riscusleepi>
    22c8:	401c                	lw	a5,0(s0)
    22ca:	0001                	nop
    22cc:	0001                	nop
    22ce:	fff00737          	lui	a4,0xfff00
    22d2:	177d                	addi	a4,a4,-1 # ffefffff <__ram_end+0xffeeffff>
    22d4:	8ff9                	and	a5,a5,a4
    22d6:	80000737          	lui	a4,0x80000
    22da:	8fd9                	or	a5,a5,a4
    22dc:	40b2                	lw	ra,12(sp)
    22de:	c01c                	sw	a5,0(s0)
    22e0:	4422                	lw	s0,8(sp)
    22e2:	4902                	lw	s2,0(sp)
    22e4:	0ff4f513          	zext.b	a0,s1
    22e8:	4492                	lw	s1,4(sp)
    22ea:	0141                	addi	sp,sp,16
    22ec:	8082                	ret

000022ee <_Z19HPS_io_file_tx_dataPKhmi>:
    22ee:	1101                	addi	sp,sp,-32
    22f0:	cc22                	sw	s0,24(sp)
    22f2:	fd000413          	li	s0,-48
    22f6:	ca26                	sw	s1,20(sp)
    22f8:	c84a                	sw	s2,16(sp)
    22fa:	c64e                	sw	s3,12(sp)
    22fc:	ce06                	sw	ra,28(sp)
    22fe:	401c                	lw	a5,0(s0)
    2300:	84aa                	mv	s1,a0
    2302:	892e                	mv	s2,a1
    2304:	89b2                	mv	s3,a2
    2306:	0001                	nop
    2308:	0001                	nop
    230a:	80100737          	lui	a4,0x80100
    230e:	8fd9                	or	a5,a5,a4
    2310:	c01c                	sw	a5,0(s0)
    2312:	4505                	li	a0,1
    2314:	27b000ef          	jal	ra,2d8e <_Z10riscusleepi>
    2318:	0ff9f513          	zext.b	a0,s3
    231c:	3d95                	jal	2190 <_Z12HPS_fpga_spit>
    231e:	4605                	li	a2,1
    2320:	85ca                	mv	a1,s2
    2322:	8526                	mv	a0,s1
    2324:	3d45                	jal	21d4 <_Z13HPS_spi_writePKhmi>
    2326:	401c                	lw	a5,0(s0)
    2328:	0001                	nop
    232a:	0001                	nop
    232c:	fff00737          	lui	a4,0xfff00
    2330:	177d                	addi	a4,a4,-1 # ffefffff <__ram_end+0xffeeffff>
    2332:	8ff9                	and	a5,a5,a4
    2334:	80000737          	lui	a4,0x80000
    2338:	8fd9                	or	a5,a5,a4
    233a:	40f2                	lw	ra,28(sp)
    233c:	c01c                	sw	a5,0(s0)
    233e:	4462                	lw	s0,24(sp)
    2340:	44d2                	lw	s1,20(sp)
    2342:	4942                	lw	s2,16(sp)
    2344:	49b2                	lw	s3,12(sp)
    2346:	6105                	addi	sp,sp,32
    2348:	8082                	ret

0000234a <riscputchar>:
    234a:	fc002783          	lw	a5,-64(zero) # ffffffc0 <__ram_end+0xfffeffc0>
    234e:	1007f793          	andi	a5,a5,256
    2352:	ffe5                	bnez	a5,234a <riscputchar>
    2354:	fca02023          	sw	a0,-64(zero) # ffffffc0 <__ram_end+0xfffeffc0>
    2358:	8082                	ret

0000235a <SetUART>:
    235a:	0a100793          	li	a5,161
    235e:	f8f02a23          	sw	a5,-108(zero) # ffffff94 <__ram_end+0xfffeff94>
    2362:	8082                	ret

00002364 <_handle_trap>:
    2364:	6511                	lui	a0,0x4
    2366:	83850513          	addi	a0,a0,-1992 # 3838 <stream_vscanf+0x948>
    236a:	a1a9                	j	27b4 <riscprintf_>

0000236c <_Z17DisableInterruptsv>:
    236c:	fe002a23          	sw	zero,-12(zero) # fffffff4 <__ram_end+0xfffefff4>
    2370:	8082                	ret

00002372 <_ZL9_out_charcPvjj>:
    2372:	e111                	bnez	a0,2376 <_ZL9_out_charcPvjj+0x4>
    2374:	8082                	ret
    2376:	bfd1                	j	234a <riscputchar>

00002378 <_ZL10_ntoa_longPFvcPvjjEPcjjmbmjjj.constprop.0>:
    2378:	715d                	addi	sp,sp,-80
    237a:	4346                	lw	t1,80(sp)
    237c:	c0ca                	sw	s2,64(sp)
    237e:	de4e                	sw	s3,60(sp)
    2380:	dc52                	sw	s4,56(sp)
    2382:	da56                	sw	s5,52(sp)
    2384:	c686                	sw	ra,76(sp)
    2386:	c4a2                	sw	s0,72(sp)
    2388:	c2a6                	sw	s1,68(sp)
    238a:	d85a                	sw	s6,48(sp)
    238c:	d65e                	sw	s7,44(sp)
    238e:	d462                	sw	s8,40(sp)
    2390:	892a                	mv	s2,a0
    2392:	89ae                	mv	s3,a1
    2394:	8a32                	mv	s4,a2
    2396:	8ac6                	mv	s5,a7
    2398:	40037f13          	andi	t5,t1,1024
    239c:	cac5                	beqz	a3,244c <_ZL10_ntoa_longPFvcPvjjEPcjjmbmjjj.constprop.0+0xd4>
    239e:	01037f93          	andi	t6,t1,16
    23a2:	8e9a                	mv	t4,t1
    23a4:	020ef613          	andi	a2,t4,32
    23a8:	06100513          	li	a0,97
    23ac:	12061263          	bnez	a2,24d0 <_ZL10_ntoa_longPFvcPvjjEPcjjmbmjjj.constprop.0+0x158>
    23b0:	4401                	li	s0,0
    23b2:	848a                	mv	s1,sp
    23b4:	48a5                	li	a7,9
    23b6:	1559                	addi	a0,a0,-10
    23b8:	02000e13          	li	t3,32
    23bc:	a021                	j	23c4 <_ZL10_ntoa_longPFvcPvjjEPcjjmbmjjj.constprop.0+0x4c>
    23be:	03c40963          	beq	s0,t3,23f0 <_ZL10_ntoa_longPFvcPvjjEPcjjmbmjjj.constprop.0+0x78>
    23c2:	86b2                	mv	a3,a2
    23c4:	02f6f633          	remu	a2,a3,a5
    23c8:	0ff67313          	zext.b	t1,a2
    23cc:	03030593          	addi	a1,t1,48
    23d0:	932a                	add	t1,t1,a0
    23d2:	0ff37313          	zext.b	t1,t1
    23d6:	00c8e463          	bltu	a7,a2,23de <_ZL10_ntoa_longPFvcPvjjEPcjjmbmjjj.constprop.0+0x66>
    23da:	0ff5f313          	zext.b	t1,a1
    23de:	0405                	addi	s0,s0,1
    23e0:	00848633          	add	a2,s1,s0
    23e4:	fe660fa3          	sb	t1,-1(a2)
    23e8:	02f6d633          	divu	a2,a3,a5
    23ec:	fcf6f9e3          	bgeu	a3,a5,23be <_ZL10_ntoa_longPFvcPvjjEPcjjmbmjjj.constprop.0+0x46>
    23f0:	002efb93          	andi	s7,t4,2
    23f4:	060b8863          	beqz	s7,2464 <_ZL10_ntoa_longPFvcPvjjEPcjjmbmjjj.constprop.0+0xec>
    23f8:	003ef313          	andi	t1,t4,3
    23fc:	100f8d63          	beqz	t6,2516 <_ZL10_ntoa_longPFvcPvjjEPcjjmbmjjj.constprop.0+0x19e>
    2400:	1e0f1163          	bnez	t5,25e2 <_ZL10_ntoa_longPFvcPvjjEPcjjmbmjjj.constprop.0+0x26a>
    2404:	22041563          	bnez	s0,262e <_ZL10_ntoa_longPFvcPvjjEPcjjmbmjjj.constprop.0+0x2b6>
    2408:	46c1                	li	a3,16
    240a:	30d78963          	beq	a5,a3,271c <_ZL10_ntoa_longPFvcPvjjEPcjjmbmjjj.constprop.0+0x3a4>
    240e:	4689                	li	a3,2
    2410:	32d78763          	beq	a5,a3,273e <_ZL10_ntoa_longPFvcPvjjEPcjjmbmjjj.constprop.0+0x3c6>
    2414:	03000793          	li	a5,48
    2418:	00f10023          	sb	a5,0(sp)
    241c:	4685                	li	a3,1
    241e:	003ef313          	andi	t1,t4,3
    2422:	1e071163          	bnez	a4,2604 <_ZL10_ntoa_longPFvcPvjjEPcjjmbmjjj.constprop.0+0x28c>
    2426:	004ef793          	andi	a5,t4,4
    242a:	28078b63          	beqz	a5,26c0 <_ZL10_ntoa_longPFvcPvjjEPcjjmbmjjj.constprop.0+0x348>
    242e:	02068793          	addi	a5,a3,32 # 80100020 <__ram_end+0x800f0020>
    2432:	978a                	add	a5,a5,sp
    2434:	02b00713          	li	a4,43
    2438:	00168413          	addi	s0,a3,1
    243c:	fee78023          	sb	a4,-32(a5) # 1ffe0 <__ram_end+0xffe0>
    2440:	8b52                	mv	s6,s4
    2442:	10031d63          	bnez	t1,255c <_ZL10_ntoa_longPFvcPvjjEPcjjmbmjjj.constprop.0+0x1e4>
    2446:	0f546063          	bltu	s0,s5,2526 <_ZL10_ntoa_longPFvcPvjjEPcjjmbmjjj.constprop.0+0x1ae>
    244a:	aa09                	j	255c <_ZL10_ntoa_longPFvcPvjjEPcjjmbmjjj.constprop.0+0x1e4>
    244c:	fef37e93          	andi	t4,t1,-17
    2450:	160f0263          	beqz	t5,25b4 <_ZL10_ntoa_longPFvcPvjjEPcjjmbmjjj.constprop.0+0x23c>
    2454:	00237b93          	andi	s7,t1,2
    2458:	00337313          	andi	t1,t1,3
    245c:	fc0b93e3          	bnez	s7,2422 <_ZL10_ntoa_longPFvcPvjjEPcjjmbmjjj.constprop.0+0xaa>
    2460:	4f81                	li	t6,0
    2462:	4401                	li	s0,0
    2464:	140a9a63          	bnez	s5,25b8 <_ZL10_ntoa_longPFvcPvjjEPcjjmbmjjj.constprop.0+0x240>
    2468:	05047e63          	bgeu	s0,a6,24c4 <_ZL10_ntoa_longPFvcPvjjEPcjjmbmjjj.constprop.0+0x14c>
    246c:	02000693          	li	a3,32
    2470:	001efb93          	andi	s7,t4,1
    2474:	2cd40f63          	beq	s0,a3,2752 <_ZL10_ntoa_longPFvcPvjjEPcjjmbmjjj.constprop.0+0x3da>
    2478:	848a                	mv	s1,sp
    247a:	03000613          	li	a2,48
    247e:	02000593          	li	a1,32
    2482:	a019                	j	2488 <_ZL10_ntoa_longPFvcPvjjEPcjjmbmjjj.constprop.0+0x110>
    2484:	04b40963          	beq	s0,a1,24d6 <_ZL10_ntoa_longPFvcPvjjEPcjjmbmjjj.constprop.0+0x15e>
    2488:	0405                	addi	s0,s0,1
    248a:	008486b3          	add	a3,s1,s0
    248e:	fec68fa3          	sb	a2,-1(a3)
    2492:	ff0469e3          	bltu	s0,a6,2484 <_ZL10_ntoa_longPFvcPvjjEPcjjmbmjjj.constprop.0+0x10c>
    2496:	f60b81e3          	beqz	s7,23f8 <_ZL10_ntoa_longPFvcPvjjEPcjjmbmjjj.constprop.0+0x80>
    249a:	03547563          	bgeu	s0,s5,24c4 <_ZL10_ntoa_longPFvcPvjjEPcjjmbmjjj.constprop.0+0x14c>
    249e:	02000693          	li	a3,32
    24a2:	848a                	mv	s1,sp
    24a4:	03000613          	li	a2,48
    24a8:	02000593          	li	a1,32
    24ac:	00d41563          	bne	s0,a3,24b6 <_ZL10_ntoa_longPFvcPvjjEPcjjmbmjjj.constprop.0+0x13e>
    24b0:	a03d                	j	24de <_ZL10_ntoa_longPFvcPvjjEPcjjmbmjjj.constprop.0+0x166>
    24b2:	1cb40f63          	beq	s0,a1,2690 <_ZL10_ntoa_longPFvcPvjjEPcjjmbmjjj.constprop.0+0x318>
    24b6:	0405                	addi	s0,s0,1
    24b8:	008486b3          	add	a3,s1,s0
    24bc:	fec68fa3          	sb	a2,-1(a3)
    24c0:	ff5419e3          	bne	s0,s5,24b2 <_ZL10_ntoa_longPFvcPvjjEPcjjmbmjjj.constprop.0+0x13a>
    24c4:	4b81                	li	s7,0
    24c6:	003ef313          	andi	t1,t4,3
    24ca:	f20f9be3          	bnez	t6,2400 <_ZL10_ntoa_longPFvcPvjjEPcjjmbmjjj.constprop.0+0x88>
    24ce:	a0a1                	j	2516 <_ZL10_ntoa_longPFvcPvjjEPcjjmbmjjj.constprop.0+0x19e>
    24d0:	04100513          	li	a0,65
    24d4:	bdf1                	j	23b0 <_ZL10_ntoa_longPFvcPvjjEPcjjmbmjjj.constprop.0+0x38>
    24d6:	2c0b8463          	beqz	s7,279e <_ZL10_ntoa_longPFvcPvjjEPcjjmbmjjj.constprop.0+0x426>
    24da:	1b547b63          	bgeu	s0,s5,2690 <_ZL10_ntoa_longPFvcPvjjEPcjjmbmjjj.constprop.0+0x318>
    24de:	1e0f8c63          	beqz	t6,26d6 <_ZL10_ntoa_longPFvcPvjjEPcjjmbmjjj.constprop.0+0x35e>
    24e2:	1a0f1b63          	bnez	t5,2698 <_ZL10_ntoa_longPFvcPvjjEPcjjmbmjjj.constprop.0+0x320>
    24e6:	02000693          	li	a3,32
    24ea:	4b81                	li	s7,0
    24ec:	02000413          	li	s0,32
    24f0:	14d81163          	bne	a6,a3,2632 <_ZL10_ntoa_longPFvcPvjjEPcjjmbmjjj.constprop.0+0x2ba>
    24f4:	46fd                	li	a3,31
    24f6:	4641                	li	a2,16
    24f8:	26c78763          	beq	a5,a2,2766 <_ZL10_ntoa_longPFvcPvjjEPcjjmbmjjj.constprop.0+0x3ee>
    24fc:	4609                	li	a2,2
    24fe:	003ef313          	andi	t1,t4,3
    2502:	16c78863          	beq	a5,a2,2672 <_ZL10_ntoa_longPFvcPvjjEPcjjmbmjjj.constprop.0+0x2fa>
    2506:	02068793          	addi	a5,a3,32
    250a:	002786b3          	add	a3,a5,sp
    250e:	03000793          	li	a5,48
    2512:	fef68023          	sb	a5,-32(a3)
    2516:	02000793          	li	a5,32
    251a:	16f41563          	bne	s0,a5,2684 <_ZL10_ntoa_longPFvcPvjjEPcjjmbmjjj.constprop.0+0x30c>
    251e:	0e031163          	bnez	t1,2600 <_ZL10_ntoa_longPFvcPvjjEPcjjmbmjjj.constprop.0+0x288>
    2522:	0d547f63          	bgeu	s0,s5,2600 <_ZL10_ntoa_longPFvcPvjjEPcjjmbmjjj.constprop.0+0x288>
    2526:	84d2                	mv	s1,s4
    2528:	41440b33          	sub	s6,s0,s4
    252c:	8626                	mv	a2,s1
    252e:	56fd                	li	a3,-1
    2530:	85ce                	mv	a1,s3
    2532:	02000513          	li	a0,32
    2536:	0485                	addi	s1,s1,1
    2538:	9902                	jalr	s2
    253a:	009b07b3          	add	a5,s6,s1
    253e:	ff57e7e3          	bltu	a5,s5,252c <_ZL10_ntoa_longPFvcPvjjEPcjjmbmjjj.constprop.0+0x1b4>
    2542:	00140793          	addi	a5,s0,1
    2546:	4b01                	li	s6,0
    2548:	00fae663          	bltu	s5,a5,2554 <_ZL10_ntoa_longPFvcPvjjEPcjjmbmjjj.constprop.0+0x1dc>
    254c:	fffa8b13          	addi	s6,s5,-1
    2550:	408b0b33          	sub	s6,s6,s0
    2554:	001a0793          	addi	a5,s4,1 # c001 <sector_buffer1+0x1>
    2558:	9b3e                	add	s6,s6,a5
    255a:	c005                	beqz	s0,257a <_ZL10_ntoa_longPFvcPvjjEPcjjmbmjjj.constprop.0+0x202>
    255c:	848a                	mv	s1,sp
    255e:	008b0c33          	add	s8,s6,s0
    2562:	008487b3          	add	a5,s1,s0
    2566:	fff7c503          	lbu	a0,-1(a5)
    256a:	408c0633          	sub	a2,s8,s0
    256e:	56fd                	li	a3,-1
    2570:	147d                	addi	s0,s0,-1
    2572:	85ce                	mv	a1,s3
    2574:	8b62                	mv	s6,s8
    2576:	9902                	jalr	s2
    2578:	f46d                	bnez	s0,2562 <_ZL10_ntoa_longPFvcPvjjEPcjjmbmjjj.constprop.0+0x1ea>
    257a:	020b8063          	beqz	s7,259a <_ZL10_ntoa_longPFvcPvjjEPcjjmbmjjj.constprop.0+0x222>
    257e:	414b0a33          	sub	s4,s6,s4
    2582:	015a7c63          	bgeu	s4,s5,259a <_ZL10_ntoa_longPFvcPvjjEPcjjmbmjjj.constprop.0+0x222>
    2586:	865a                	mv	a2,s6
    2588:	0a05                	addi	s4,s4,1
    258a:	56fd                	li	a3,-1
    258c:	85ce                	mv	a1,s3
    258e:	02000513          	li	a0,32
    2592:	0b05                	addi	s6,s6,1 # 8001 <sector_buffer0+0x1>
    2594:	9902                	jalr	s2
    2596:	ff5a68e3          	bltu	s4,s5,2586 <_ZL10_ntoa_longPFvcPvjjEPcjjmbmjjj.constprop.0+0x20e>
    259a:	40b6                	lw	ra,76(sp)
    259c:	4426                	lw	s0,72(sp)
    259e:	4496                	lw	s1,68(sp)
    25a0:	4906                	lw	s2,64(sp)
    25a2:	59f2                	lw	s3,60(sp)
    25a4:	5a62                	lw	s4,56(sp)
    25a6:	5ad2                	lw	s5,52(sp)
    25a8:	5bb2                	lw	s7,44(sp)
    25aa:	5c22                	lw	s8,40(sp)
    25ac:	855a                	mv	a0,s6
    25ae:	5b42                	lw	s6,48(sp)
    25b0:	6161                	addi	sp,sp,80
    25b2:	8082                	ret
    25b4:	4f81                	li	t6,0
    25b6:	b3fd                	j	23a4 <_ZL10_ntoa_longPFvcPvjjEPcjjmbmjjj.constprop.0+0x2c>
    25b8:	001efb93          	andi	s7,t4,1
    25bc:	040b8e63          	beqz	s7,2618 <_ZL10_ntoa_longPFvcPvjjEPcjjmbmjjj.constprop.0+0x2a0>
    25c0:	e771                	bnez	a4,268c <_ZL10_ntoa_longPFvcPvjjEPcjjmbmjjj.constprop.0+0x314>
    25c2:	00cef693          	andi	a3,t4,12
    25c6:	e2f9                	bnez	a3,268c <_ZL10_ntoa_longPFvcPvjjEPcjjmbmjjj.constprop.0+0x314>
    25c8:	ed0479e3          	bgeu	s0,a6,249a <_ZL10_ntoa_longPFvcPvjjEPcjjmbmjjj.constprop.0+0x122>
    25cc:	02000693          	li	a3,32
    25d0:	ead414e3          	bne	s0,a3,2478 <_ZL10_ntoa_longPFvcPvjjEPcjjmbmjjj.constprop.0+0x100>
    25d4:	f15465e3          	bltu	s0,s5,24de <_ZL10_ntoa_longPFvcPvjjEPcjjmbmjjj.constprop.0+0x166>
    25d8:	1c0f8a63          	beqz	t6,27ac <_ZL10_ntoa_longPFvcPvjjEPcjjmbmjjj.constprop.0+0x434>
    25dc:	4b81                	li	s7,0
    25de:	e20f03e3          	beqz	t5,2404 <_ZL10_ntoa_longPFvcPvjjEPcjjmbmjjj.constprop.0+0x8c>
    25e2:	46c1                	li	a3,16
    25e4:	003ef313          	andi	t1,t4,3
    25e8:	0ad78c63          	beq	a5,a3,26a0 <_ZL10_ntoa_longPFvcPvjjEPcjjmbmjjj.constprop.0+0x328>
    25ec:	4689                	li	a3,2
    25ee:	06d78c63          	beq	a5,a3,2666 <_ZL10_ntoa_longPFvcPvjjEPcjjmbmjjj.constprop.0+0x2ee>
    25f2:	02000793          	li	a5,32
    25f6:	f2f404e3          	beq	s0,a5,251e <_ZL10_ntoa_longPFvcPvjjEPcjjmbmjjj.constprop.0+0x1a6>
    25fa:	86a2                	mv	a3,s0
    25fc:	0405                	addi	s0,s0,1
    25fe:	b721                	j	2506 <_ZL10_ntoa_longPFvcPvjjEPcjjmbmjjj.constprop.0+0x18e>
    2600:	8b52                	mv	s6,s4
    2602:	bfa9                	j	255c <_ZL10_ntoa_longPFvcPvjjEPcjjmbmjjj.constprop.0+0x1e4>
    2604:	02068793          	addi	a5,a3,32
    2608:	978a                	add	a5,a5,sp
    260a:	02d00713          	li	a4,45
    260e:	00168413          	addi	s0,a3,1
    2612:	fee78023          	sb	a4,-32(a5)
    2616:	b52d                	j	2440 <_ZL10_ntoa_longPFvcPvjjEPcjjmbmjjj.constprop.0+0xc8>
    2618:	df0470e3          	bgeu	s0,a6,23f8 <_ZL10_ntoa_longPFvcPvjjEPcjjmbmjjj.constprop.0+0x80>
    261c:	02000693          	li	a3,32
    2620:	e4d41ce3          	bne	s0,a3,2478 <_ZL10_ntoa_longPFvcPvjjEPcjjmbmjjj.constprop.0+0x100>
    2624:	180f8463          	beqz	t6,27ac <_ZL10_ntoa_longPFvcPvjjEPcjjmbmjjj.constprop.0+0x434>
    2628:	4b81                	li	s7,0
    262a:	fa0f1ce3          	bnez	t5,25e2 <_ZL10_ntoa_longPFvcPvjjEPcjjmbmjjj.constprop.0+0x26a>
    262e:	00880463          	beq	a6,s0,2636 <_ZL10_ntoa_longPFvcPvjjEPcjjmbmjjj.constprop.0+0x2be>
    2632:	fa8a98e3          	bne	s5,s0,25e2 <_ZL10_ntoa_longPFvcPvjjEPcjjmbmjjj.constprop.0+0x26a>
    2636:	fff40693          	addi	a3,s0,-1
    263a:	ea069ee3          	bnez	a3,24f6 <_ZL10_ntoa_longPFvcPvjjEPcjjmbmjjj.constprop.0+0x17e>
    263e:	46c1                	li	a3,16
    2640:	10d78c63          	beq	a5,a3,2758 <_ZL10_ntoa_longPFvcPvjjEPcjjmbmjjj.constprop.0+0x3e0>
    2644:	4689                	li	a3,2
    2646:	dcd797e3          	bne	a5,a3,2414 <_ZL10_ntoa_longPFvcPvjjEPcjjmbmjjj.constprop.0+0x9c>
    264a:	06200793          	li	a5,98
    264e:	00f10023          	sb	a5,0(sp)
    2652:	03000793          	li	a5,48
    2656:	00f100a3          	sb	a5,1(sp)
    265a:	4689                	li	a3,2
    265c:	003ef313          	andi	t1,t4,3
    2660:	dc0703e3          	beqz	a4,2426 <_ZL10_ntoa_longPFvcPvjjEPcjjmbmjjj.constprop.0+0xae>
    2664:	b745                	j	2604 <_ZL10_ntoa_longPFvcPvjjEPcjjmbmjjj.constprop.0+0x28c>
    2666:	02000793          	li	a5,32
    266a:	eaf40ae3          	beq	s0,a5,251e <_ZL10_ntoa_longPFvcPvjjEPcjjmbmjjj.constprop.0+0x1a6>
    266e:	86a2                	mv	a3,s0
    2670:	0405                	addi	s0,s0,1
    2672:	02068793          	addi	a5,a3,32
    2676:	002786b3          	add	a3,a5,sp
    267a:	06200793          	li	a5,98
    267e:	fef68023          	sb	a5,-32(a3)
    2682:	bf85                	j	25f2 <_ZL10_ntoa_longPFvcPvjjEPcjjmbmjjj.constprop.0+0x27a>
    2684:	86a2                	mv	a3,s0
    2686:	da0700e3          	beqz	a4,2426 <_ZL10_ntoa_longPFvcPvjjEPcjjmbmjjj.constprop.0+0xae>
    268a:	bfad                	j	2604 <_ZL10_ntoa_longPFvcPvjjEPcjjmbmjjj.constprop.0+0x28c>
    268c:	1afd                	addi	s5,s5,-1
    268e:	bf2d                	j	25c8 <_ZL10_ntoa_longPFvcPvjjEPcjjmbmjjj.constprop.0+0x250>
    2690:	040f8363          	beqz	t6,26d6 <_ZL10_ntoa_longPFvcPvjjEPcjjmbmjjj.constprop.0+0x35e>
    2694:	060f0e63          	beqz	t5,2710 <_ZL10_ntoa_longPFvcPvjjEPcjjmbmjjj.constprop.0+0x398>
    2698:	4b81                	li	s7,0
    269a:	02000413          	li	s0,32
    269e:	b791                	j	25e2 <_ZL10_ntoa_longPFvcPvjjEPcjjmbmjjj.constprop.0+0x26a>
    26a0:	020ef793          	andi	a5,t4,32
    26a4:	cf9d                	beqz	a5,26e2 <_ZL10_ntoa_longPFvcPvjjEPcjjmbmjjj.constprop.0+0x36a>
    26a6:	02000793          	li	a5,32
    26aa:	e6f40ae3          	beq	s0,a5,251e <_ZL10_ntoa_longPFvcPvjjEPcjjmbmjjj.constprop.0+0x1a6>
    26ae:	02040793          	addi	a5,s0,32
    26b2:	978a                	add	a5,a5,sp
    26b4:	05800693          	li	a3,88
    26b8:	fed78023          	sb	a3,-32(a5)
    26bc:	0405                	addi	s0,s0,1
    26be:	bf15                	j	25f2 <_ZL10_ntoa_longPFvcPvjjEPcjjmbmjjj.constprop.0+0x27a>
    26c0:	008efe93          	andi	t4,t4,8
    26c4:	020e9c63          	bnez	t4,26fc <_ZL10_ntoa_longPFvcPvjjEPcjjmbmjjj.constprop.0+0x384>
    26c8:	8436                	mv	s0,a3
    26ca:	00031463          	bnez	t1,26d2 <_ZL10_ntoa_longPFvcPvjjEPcjjmbmjjj.constprop.0+0x35a>
    26ce:	e556ece3          	bltu	a3,s5,2526 <_ZL10_ntoa_longPFvcPvjjEPcjjmbmjjj.constprop.0+0x1ae>
    26d2:	8b52                	mv	s6,s4
    26d4:	b559                	j	255a <_ZL10_ntoa_longPFvcPvjjEPcjjmbmjjj.constprop.0+0x1e2>
    26d6:	4b81                	li	s7,0
    26d8:	02000413          	li	s0,32
    26dc:	003ef313          	andi	t1,t4,3
    26e0:	bd3d                	j	251e <_ZL10_ntoa_longPFvcPvjjEPcjjmbmjjj.constprop.0+0x1a6>
    26e2:	02000793          	li	a5,32
    26e6:	e2f40ce3          	beq	s0,a5,251e <_ZL10_ntoa_longPFvcPvjjEPcjjmbmjjj.constprop.0+0x1a6>
    26ea:	02040793          	addi	a5,s0,32
    26ee:	978a                	add	a5,a5,sp
    26f0:	07800693          	li	a3,120
    26f4:	fed78023          	sb	a3,-32(a5)
    26f8:	0405                	addi	s0,s0,1
    26fa:	bde5                	j	25f2 <_ZL10_ntoa_longPFvcPvjjEPcjjmbmjjj.constprop.0+0x27a>
    26fc:	02068793          	addi	a5,a3,32
    2700:	978a                	add	a5,a5,sp
    2702:	02000713          	li	a4,32
    2706:	00168413          	addi	s0,a3,1
    270a:	fee78023          	sb	a4,-32(a5)
    270e:	bb0d                	j	2440 <_ZL10_ntoa_longPFvcPvjjEPcjjmbmjjj.constprop.0+0xc8>
    2710:	02000413          	li	s0,32
    2714:	4b81                	li	s7,0
    2716:	f0881ee3          	bne	a6,s0,2632 <_ZL10_ntoa_longPFvcPvjjEPcjjmbmjjj.constprop.0+0x2ba>
    271a:	bf31                	j	2636 <_ZL10_ntoa_longPFvcPvjjEPcjjmbmjjj.constprop.0+0x2be>
    271c:	020ef793          	andi	a5,t4,32
    2720:	c785                	beqz	a5,2748 <_ZL10_ntoa_longPFvcPvjjEPcjjmbmjjj.constprop.0+0x3d0>
    2722:	05800793          	li	a5,88
    2726:	00f10023          	sb	a5,0(sp)
    272a:	03000793          	li	a5,48
    272e:	00f100a3          	sb	a5,1(sp)
    2732:	4689                	li	a3,2
    2734:	003ef313          	andi	t1,t4,3
    2738:	ce0707e3          	beqz	a4,2426 <_ZL10_ntoa_longPFvcPvjjEPcjjmbmjjj.constprop.0+0xae>
    273c:	b5e1                	j	2604 <_ZL10_ntoa_longPFvcPvjjEPcjjmbmjjj.constprop.0+0x28c>
    273e:	06200793          	li	a5,98
    2742:	00f10023          	sb	a5,0(sp)
    2746:	b7d5                	j	272a <_ZL10_ntoa_longPFvcPvjjEPcjjmbmjjj.constprop.0+0x3b2>
    2748:	07800793          	li	a5,120
    274c:	00f10023          	sb	a5,0(sp)
    2750:	bfe9                	j	272a <_ZL10_ntoa_longPFvcPvjjEPcjjmbmjjj.constprop.0+0x3b2>
    2752:	e80b93e3          	bnez	s7,25d8 <_ZL10_ntoa_longPFvcPvjjEPcjjmbmjjj.constprop.0+0x260>
    2756:	b5f9                	j	2624 <_ZL10_ntoa_longPFvcPvjjEPcjjmbmjjj.constprop.0+0x2ac>
    2758:	fffec793          	not	a5,t4
    275c:	0207f793          	andi	a5,a5,32
    2760:	05878793          	addi	a5,a5,88
    2764:	b5ed                	j	264e <_ZL10_ntoa_longPFvcPvjjEPcjjmbmjjj.constprop.0+0x2d6>
    2766:	020ef793          	andi	a5,t4,32
    276a:	1479                	addi	s0,s0,-2
    276c:	ef89                	bnez	a5,2786 <_ZL10_ntoa_longPFvcPvjjEPcjjmbmjjj.constprop.0+0x40e>
    276e:	02040793          	addi	a5,s0,32
    2772:	00278433          	add	s0,a5,sp
    2776:	07800793          	li	a5,120
    277a:	fef40023          	sb	a5,-32(s0)
    277e:	003ef313          	andi	t1,t4,3
    2782:	8436                	mv	s0,a3
    2784:	bd9d                	j	25fa <_ZL10_ntoa_longPFvcPvjjEPcjjmbmjjj.constprop.0+0x282>
    2786:	02040793          	addi	a5,s0,32
    278a:	00278433          	add	s0,a5,sp
    278e:	05800793          	li	a5,88
    2792:	fef40023          	sb	a5,-32(s0)
    2796:	003ef313          	andi	t1,t4,3
    279a:	8436                	mv	s0,a3
    279c:	bdb9                	j	25fa <_ZL10_ntoa_longPFvcPvjjEPcjjmbmjjj.constprop.0+0x282>
    279e:	f20f8fe3          	beqz	t6,26dc <_ZL10_ntoa_longPFvcPvjjEPcjjmbmjjj.constprop.0+0x364>
    27a2:	e40f10e3          	bnez	t5,25e2 <_ZL10_ntoa_longPFvcPvjjEPcjjmbmjjj.constprop.0+0x26a>
    27a6:	e28a9ee3          	bne	s5,s0,25e2 <_ZL10_ntoa_longPFvcPvjjEPcjjmbmjjj.constprop.0+0x26a>
    27aa:	b571                	j	2636 <_ZL10_ntoa_longPFvcPvjjEPcjjmbmjjj.constprop.0+0x2be>
    27ac:	4b81                	li	s7,0
    27ae:	003ef313          	andi	t1,t4,3
    27b2:	b3b5                	j	251e <_ZL10_ntoa_longPFvcPvjjEPcjjmbmjjj.constprop.0+0x1a6>

000027b4 <riscprintf_>:
    27b4:	7175                	addi	sp,sp,-144
    27b6:	cece                	sw	s3,92(sp)
    27b8:	c6de                	sw	s7,76(sp)
    27ba:	d686                	sw	ra,108(sp)
    27bc:	d4a2                	sw	s0,104(sp)
    27be:	d2a6                	sw	s1,100(sp)
    27c0:	d0ca                	sw	s2,96(sp)
    27c2:	ccd2                	sw	s4,88(sp)
    27c4:	cad6                	sw	s5,84(sp)
    27c6:	c8da                	sw	s6,80(sp)
    27c8:	c4e2                	sw	s8,72(sp)
    27ca:	c2e6                	sw	s9,68(sp)
    27cc:	c0ea                	sw	s10,64(sp)
    27ce:	de6e                	sw	s11,60(sp)
    27d0:	daae                	sw	a1,116(sp)
    27d2:	dcb2                	sw	a2,120(sp)
    27d4:	deb6                	sw	a3,124(sp)
    27d6:	c13a                	sw	a4,128(sp)
    27d8:	c33e                	sw	a5,132(sp)
    27da:	c542                	sw	a6,136(sp)
    27dc:	c746                	sw	a7,140(sp)
    27de:	8baa                	mv	s7,a0
    27e0:	00054503          	lbu	a0,0(a0)
    27e4:	07410993          	addi	s3,sp,116
    27e8:	d64e                	sw	s3,44(sp)
    27ea:	42050163          	beqz	a0,2c0c <riscprintf_+0x458>
    27ee:	001217b7          	lui	a5,0x121
    27f2:	6911                	lui	s2,0x4
    27f4:	82178793          	addi	a5,a5,-2015 # 120821 <__ram_end+0x110821>
    27f8:	4b01                	li	s6,0
    27fa:	1024                	addi	s1,sp,40
    27fc:	02500a13          	li	s4,37
    2800:	4441                	li	s0,16
    2802:	84c90913          	addi	s2,s2,-1972 # 384c <stream_vscanf+0x95c>
    2806:	4aa5                	li	s5,9
    2808:	ca3e                	sw	a5,20(sp)
    280a:	a811                	j	281e <riscprintf_+0x6a>
    280c:	865a                	mv	a2,s6
    280e:	56fd                	li	a3,-1
    2810:	85a6                	mv	a1,s1
    2812:	0b05                	addi	s6,s6,1
    2814:	b5fff0ef          	jal	ra,2372 <_ZL9_out_charcPvjj>
    2818:	000bc503          	lbu	a0,0(s7)
    281c:	c579                	beqz	a0,28ea <riscprintf_+0x136>
    281e:	0b85                	addi	s7,s7,1
    2820:	ff4516e3          	bne	a0,s4,280c <riscprintf_+0x58>
    2824:	4c01                	li	s8,0
    2826:	000bc503          	lbu	a0,0(s7)
    282a:	001b8713          	addi	a4,s7,1
    282e:	fe050793          	addi	a5,a0,-32
    2832:	0ff7f793          	zext.b	a5,a5
    2836:	00f46663          	bltu	s0,a5,2842 <riscprintf_+0x8e>
    283a:	078a                	slli	a5,a5,0x2
    283c:	97ca                	add	a5,a5,s2
    283e:	439c                	lw	a5,0(a5)
    2840:	8782                	jr	a5
    2842:	fd050793          	addi	a5,a0,-48
    2846:	0ff7f793          	zext.b	a5,a5
    284a:	1cfaf263          	bgeu	s5,a5,2a0e <riscprintf_+0x25a>
    284e:	02a00793          	li	a5,42
    2852:	4d81                	li	s11,0
    2854:	22f50b63          	beq	a0,a5,2a8a <riscprintf_+0x2d6>
    2858:	02e00793          	li	a5,46
    285c:	4d01                	li	s10,0
    285e:	1cf50f63          	beq	a0,a5,2a3c <riscprintf_+0x288>
    2862:	06c00793          	li	a5,108
    2866:	86ba                	mv	a3,a4
    2868:	20f50163          	beq	a0,a5,2a6a <riscprintf_+0x2b6>
    286c:	20a7e663          	bltu	a5,a0,2a78 <riscprintf_+0x2c4>
    2870:	06800793          	li	a5,104
    2874:	24f50063          	beq	a0,a5,2ab4 <riscprintf_+0x300>
    2878:	06a00793          	li	a5,106
    287c:	4ef51663          	bne	a0,a5,2d68 <riscprintf_+0x5b4>
    2880:	001bc503          	lbu	a0,1(s7)
    2884:	200c6c13          	ori	s8,s8,512
    2888:	07800793          	li	a5,120
    288c:	00168b93          	addi	s7,a3,1
    2890:	f6a7eee3          	bltu	a5,a0,280c <riscprintf_+0x58>
    2894:	06300793          	li	a5,99
    2898:	0aa7ec63          	bltu	a5,a0,2950 <riscprintf_+0x19c>
    289c:	06200713          	li	a4,98
    28a0:	3ce50c63          	beq	a0,a4,2c78 <riscprintf_+0x4c4>
    28a4:	0ef51b63          	bne	a0,a5,299a <riscprintf_+0x1e6>
    28a8:	002c7c13          	andi	s8,s8,2
    28ac:	00498d13          	addi	s10,s3,4
    28b0:	001b0c93          	addi	s9,s6,1
    28b4:	2e0c0363          	beqz	s8,2b9a <riscprintf_+0x3e6>
    28b8:	0009c503          	lbu	a0,0(s3)
    28bc:	865a                	mv	a2,s6
    28be:	56fd                	li	a3,-1
    28c0:	85a6                	mv	a1,s1
    28c2:	ab1ff0ef          	jal	ra,2372 <_ZL9_out_charcPvjj>
    28c6:	4785                	li	a5,1
    28c8:	9b6e                	add	s6,s6,s11
    28ca:	3bb7f463          	bgeu	a5,s11,2c72 <riscprintf_+0x4be>
    28ce:	8666                	mv	a2,s9
    28d0:	56fd                	li	a3,-1
    28d2:	0c85                	addi	s9,s9,1
    28d4:	85a6                	mv	a1,s1
    28d6:	02000513          	li	a0,32
    28da:	a99ff0ef          	jal	ra,2372 <_ZL9_out_charcPvjj>
    28de:	ff9b18e3          	bne	s6,s9,28ce <riscprintf_+0x11a>
    28e2:	89ea                	mv	s3,s10
    28e4:	000bc503          	lbu	a0,0(s7)
    28e8:	f91d                	bnez	a0,281e <riscprintf_+0x6a>
    28ea:	57f9                	li	a5,-2
    28ec:	845a                	mv	s0,s6
    28ee:	865a                	mv	a2,s6
    28f0:	1b67e763          	bltu	a5,s6,2a9e <riscprintf_+0x2ea>
    28f4:	85a6                	mv	a1,s1
    28f6:	4501                	li	a0,0
    28f8:	56fd                	li	a3,-1
    28fa:	a79ff0ef          	jal	ra,2372 <_ZL9_out_charcPvjj>
    28fe:	50b6                	lw	ra,108(sp)
    2900:	8522                	mv	a0,s0
    2902:	5426                	lw	s0,104(sp)
    2904:	5496                	lw	s1,100(sp)
    2906:	5906                	lw	s2,96(sp)
    2908:	49f6                	lw	s3,92(sp)
    290a:	4a66                	lw	s4,88(sp)
    290c:	4ad6                	lw	s5,84(sp)
    290e:	4b46                	lw	s6,80(sp)
    2910:	4bb6                	lw	s7,76(sp)
    2912:	4c26                	lw	s8,72(sp)
    2914:	4c96                	lw	s9,68(sp)
    2916:	4d06                	lw	s10,64(sp)
    2918:	5df2                	lw	s11,60(sp)
    291a:	6149                	addi	sp,sp,144
    291c:	8082                	ret
    291e:	001c6c13          	ori	s8,s8,1
    2922:	8bba                	mv	s7,a4
    2924:	b709                	j	2826 <riscprintf_+0x72>
    2926:	002c6c13          	ori	s8,s8,2
    292a:	8bba                	mv	s7,a4
    292c:	bded                	j	2826 <riscprintf_+0x72>
    292e:	004c6c13          	ori	s8,s8,4
    2932:	8bba                	mv	s7,a4
    2934:	bdcd                	j	2826 <riscprintf_+0x72>
    2936:	010c6c13          	ori	s8,s8,16
    293a:	8bba                	mv	s7,a4
    293c:	b5ed                	j	2826 <riscprintf_+0x72>
    293e:	008c6c13          	ori	s8,s8,8
    2942:	8bba                	mv	s7,a4
    2944:	b5cd                	j	2826 <riscprintf_+0x72>
    2946:	07800793          	li	a5,120
    294a:	8bba                	mv	s7,a4
    294c:	eca7e0e3          	bltu	a5,a0,280c <riscprintf_+0x58>
    2950:	f9c50793          	addi	a5,a0,-100
    2954:	4c85                	li	s9,1
    2956:	00fc9cb3          	sll	s9,s9,a5
    295a:	47d2                	lw	a5,20(sp)
    295c:	00fcfcb3          	and	s9,s9,a5
    2960:	320c9663          	bnez	s9,2c8c <riscprintf_+0x4d8>
    2964:	07300793          	li	a5,115
    2968:	14f50d63          	beq	a0,a5,2ac2 <riscprintf_+0x30e>
    296c:	07000793          	li	a5,112
    2970:	e8f51ee3          	bne	a0,a5,280c <riscprintf_+0x58>
    2974:	0009a683          	lw	a3,0(s3)
    2978:	021c6c13          	ori	s8,s8,33
    297c:	6509                	lui	a0,0x2
    297e:	865a                	mv	a2,s6
    2980:	c062                	sw	s8,0(sp)
    2982:	48a1                	li	a7,8
    2984:	886a                	mv	a6,s10
    2986:	47c1                	li	a5,16
    2988:	4701                	li	a4,0
    298a:	85a6                	mv	a1,s1
    298c:	37250513          	addi	a0,a0,882 # 2372 <_ZL9_out_charcPvjj>
    2990:	9e9ff0ef          	jal	ra,2378 <_ZL10_ntoa_longPFvcPvjjEPcjjmbmjjj.constprop.0>
    2994:	0991                	addi	s3,s3,4
    2996:	8b2a                	mv	s6,a0
    2998:	b541                	j	2818 <riscprintf_+0x64>
    299a:	01451b63          	bne	a0,s4,29b0 <riscprintf_+0x1fc>
    299e:	865a                	mv	a2,s6
    29a0:	56fd                	li	a3,-1
    29a2:	85a6                	mv	a1,s1
    29a4:	02500513          	li	a0,37
    29a8:	0b05                	addi	s6,s6,1
    29aa:	9c9ff0ef          	jal	ra,2372 <_ZL9_out_charcPvjj>
    29ae:	b5ad                	j	2818 <riscprintf_+0x64>
    29b0:	05800793          	li	a5,88
    29b4:	e4f51ce3          	bne	a0,a5,280c <riscprintf_+0x58>
    29b8:	400c7793          	andi	a5,s8,1024
    29bc:	28078963          	beqz	a5,2c4e <riscprintf_+0x49a>
    29c0:	ff2c7713          	andi	a4,s8,-14
    29c4:	02076713          	ori	a4,a4,32
    29c8:	47c1                	li	a5,16
    29ca:	20077693          	andi	a3,a4,512
    29ce:	e40695e3          	bnez	a3,2818 <riscprintf_+0x64>
    29d2:	10077693          	andi	a3,a4,256
    29d6:	00498c13          	addi	s8,s3,4
    29da:	28069063          	bnez	a3,2c5a <riscprintf_+0x4a6>
    29de:	04077693          	andi	a3,a4,64
    29e2:	26069363          	bnez	a3,2c48 <riscprintf_+0x494>
    29e6:	08077693          	andi	a3,a4,128
    29ea:	26068863          	beqz	a3,2c5a <riscprintf_+0x4a6>
    29ee:	0009d683          	lhu	a3,0(s3)
    29f2:	c03a                	sw	a4,0(sp)
    29f4:	865a                	mv	a2,s6
    29f6:	88ee                	mv	a7,s11
    29f8:	886a                	mv	a6,s10
    29fa:	4701                	li	a4,0
    29fc:	6509                	lui	a0,0x2
    29fe:	85a6                	mv	a1,s1
    2a00:	37250513          	addi	a0,a0,882 # 2372 <_ZL9_out_charcPvjj>
    2a04:	975ff0ef          	jal	ra,2378 <_ZL10_ntoa_longPFvcPvjjEPcjjmbmjjj.constprop.0>
    2a08:	8b2a                	mv	s6,a0
    2a0a:	89e2                	mv	s3,s8
    2a0c:	b531                	j	2818 <riscprintf_+0x64>
    2a0e:	4d81                	li	s11,0
    2a10:	002d9793          	slli	a5,s11,0x2
    2a14:	97ee                	add	a5,a5,s11
    2a16:	0786                	slli	a5,a5,0x1
    2a18:	97aa                	add	a5,a5,a0
    2a1a:	00074503          	lbu	a0,0(a4) # 80000000 <__ram_end+0x7fff0000>
    2a1e:	fd078d93          	addi	s11,a5,-48
    2a22:	8bba                	mv	s7,a4
    2a24:	fd050793          	addi	a5,a0,-48
    2a28:	0ff7f793          	zext.b	a5,a5
    2a2c:	0705                	addi	a4,a4,1
    2a2e:	fefaf1e3          	bgeu	s5,a5,2a10 <riscprintf_+0x25c>
    2a32:	02e00793          	li	a5,46
    2a36:	4d01                	li	s10,0
    2a38:	e2f515e3          	bne	a0,a5,2862 <riscprintf_+0xae>
    2a3c:	001bc503          	lbu	a0,1(s7)
    2a40:	4625                	li	a2,9
    2a42:	86ba                	mv	a3,a4
    2a44:	fd050793          	addi	a5,a0,-48
    2a48:	0ff7f793          	zext.b	a5,a5
    2a4c:	400c6c13          	ori	s8,s8,1024
    2a50:	0ef67763          	bgeu	a2,a5,2b3e <riscprintf_+0x38a>
    2a54:	02a00793          	li	a5,42
    2a58:	10f50c63          	beq	a0,a5,2b70 <riscprintf_+0x3bc>
    2a5c:	8bba                	mv	s7,a4
    2a5e:	06c00793          	li	a5,108
    2a62:	0705                	addi	a4,a4,1
    2a64:	86ba                	mv	a3,a4
    2a66:	e0f513e3          	bne	a0,a5,286c <riscprintf_+0xb8>
    2a6a:	001bc503          	lbu	a0,1(s7)
    2a6e:	10f50f63          	beq	a0,a5,2b8c <riscprintf_+0x3d8>
    2a72:	100c6c13          	ori	s8,s8,256
    2a76:	bd09                	j	2888 <riscprintf_+0xd4>
    2a78:	07a00793          	li	a5,122
    2a7c:	ecf515e3          	bne	a0,a5,2946 <riscprintf_+0x192>
    2a80:	001bc503          	lbu	a0,1(s7)
    2a84:	100c6c13          	ori	s8,s8,256
    2a88:	b501                	j	2888 <riscprintf_+0xd4>
    2a8a:	0009ad83          	lw	s11,0(s3)
    2a8e:	0991                	addi	s3,s3,4
    2a90:	000dc963          	bltz	s11,2aa2 <riscprintf_+0x2ee>
    2a94:	001bc503          	lbu	a0,1(s7)
    2a98:	8bba                	mv	s7,a4
    2a9a:	0705                	addi	a4,a4,1
    2a9c:	bb75                	j	2858 <riscprintf_+0xa4>
    2a9e:	5679                	li	a2,-2
    2aa0:	bd91                	j	28f4 <riscprintf_+0x140>
    2aa2:	001bc503          	lbu	a0,1(s7)
    2aa6:	002c6c13          	ori	s8,s8,2
    2aaa:	8bba                	mv	s7,a4
    2aac:	41b00db3          	neg	s11,s11
    2ab0:	0705                	addi	a4,a4,1
    2ab2:	b35d                	j	2858 <riscprintf_+0xa4>
    2ab4:	001bc503          	lbu	a0,1(s7)
    2ab8:	14f50363          	beq	a0,a5,2bfe <riscprintf_+0x44a>
    2abc:	080c6c13          	ori	s8,s8,128
    2ac0:	b3e1                	j	2888 <riscprintf_+0xd4>
    2ac2:	0009a783          	lw	a5,0(s3)
    2ac6:	00498713          	addi	a4,s3,4
    2aca:	cc3a                	sw	a4,24(sp)
    2acc:	0007c683          	lbu	a3,0(a5)
    2ad0:	c83e                	sw	a5,16(sp)
    2ad2:	8536                	mv	a0,a3
    2ad4:	080d1a63          	bnez	s10,2b68 <riscprintf_+0x3b4>
    2ad8:	5779                	li	a4,-2
    2ada:	ce91                	beqz	a3,2af6 <riscprintf_+0x342>
    2adc:	4cc2                	lw	s9,16(sp)
    2ade:	0705                	addi	a4,a4,1
    2ae0:	9766                	add	a4,a4,s9
    2ae2:	a019                	j	2ae8 <riscprintf_+0x334>
    2ae4:	00ec8663          	beq	s9,a4,2af0 <riscprintf_+0x33c>
    2ae8:	001cc783          	lbu	a5,1(s9)
    2aec:	0c85                	addi	s9,s9,1
    2aee:	fbfd                	bnez	a5,2ae4 <riscprintf_+0x330>
    2af0:	47c2                	lw	a5,16(sp)
    2af2:	40fc8cb3          	sub	s9,s9,a5
    2af6:	400c7993          	andi	s3,s8,1024
    2afa:	00098563          	beqz	s3,2b04 <riscprintf_+0x350>
    2afe:	019d7363          	bgeu	s10,s9,2b04 <riscprintf_+0x350>
    2b02:	8cea                	mv	s9,s10
    2b04:	002c7793          	andi	a5,s8,2
    2b08:	ce3e                	sw	a5,28(sp)
    2b0a:	10078563          	beqz	a5,2c14 <riscprintf_+0x460>
    2b0e:	c6e9                	beqz	a3,2bd8 <riscprintf_+0x424>
    2b10:	865a                	mv	a2,s6
    2b12:	00098763          	beqz	s3,2b20 <riscprintf_+0x36c>
    2b16:	fffd0793          	addi	a5,s10,-1
    2b1a:	0a0d0b63          	beqz	s10,2bd0 <riscprintf_+0x41c>
    2b1e:	8d3e                	mv	s10,a5
    2b20:	56fd                	li	a3,-1
    2b22:	85a6                	mv	a1,s1
    2b24:	00160c13          	addi	s8,a2,1
    2b28:	84bff0ef          	jal	ra,2372 <_ZL9_out_charcPvjj>
    2b2c:	4742                	lw	a4,16(sp)
    2b2e:	416c07b3          	sub	a5,s8,s6
    2b32:	97ba                	add	a5,a5,a4
    2b34:	0007c503          	lbu	a0,0(a5)
    2b38:	cd49                	beqz	a0,2bd2 <riscprintf_+0x41e>
    2b3a:	8662                	mv	a2,s8
    2b3c:	bfd9                	j	2b12 <riscprintf_+0x35e>
    2b3e:	4725                	li	a4,9
    2b40:	002d1793          	slli	a5,s10,0x2
    2b44:	97ea                	add	a5,a5,s10
    2b46:	0685                	addi	a3,a3,1
    2b48:	0786                	slli	a5,a5,0x1
    2b4a:	97aa                	add	a5,a5,a0
    2b4c:	0006c503          	lbu	a0,0(a3)
    2b50:	fd078d13          	addi	s10,a5,-48
    2b54:	fd050793          	addi	a5,a0,-48
    2b58:	0ff7f793          	zext.b	a5,a5
    2b5c:	fef772e3          	bgeu	a4,a5,2b40 <riscprintf_+0x38c>
    2b60:	8bb6                	mv	s7,a3
    2b62:	00168713          	addi	a4,a3,1
    2b66:	b9f5                	j	2862 <riscprintf_+0xae>
    2b68:	d6d9                	beqz	a3,2af6 <riscprintf_+0x342>
    2b6a:	fffd0713          	addi	a4,s10,-1
    2b6e:	b7bd                	j	2adc <riscprintf_+0x328>
    2b70:	0009ad03          	lw	s10,0(s3)
    2b74:	002bc503          	lbu	a0,2(s7)
    2b78:	0b89                	addi	s7,s7,2
    2b7a:	fffd4793          	not	a5,s10
    2b7e:	87fd                	srai	a5,a5,0x1f
    2b80:	00fd7d33          	and	s10,s10,a5
    2b84:	0991                	addi	s3,s3,4
    2b86:	001b8713          	addi	a4,s7,1
    2b8a:	b9e1                	j	2862 <riscprintf_+0xae>
    2b8c:	002bc503          	lbu	a0,2(s7)
    2b90:	300c6c13          	ori	s8,s8,768
    2b94:	002b8693          	addi	a3,s7,2
    2b98:	b9c5                	j	2888 <riscprintf_+0xd4>
    2b9a:	4785                	li	a5,1
    2b9c:	0db7f463          	bgeu	a5,s11,2c64 <riscprintf_+0x4b0>
    2ba0:	fffb0c13          	addi	s8,s6,-1
    2ba4:	9c6e                	add	s8,s8,s11
    2ba6:	8cda                	mv	s9,s6
    2ba8:	8666                	mv	a2,s9
    2baa:	56fd                	li	a3,-1
    2bac:	0c85                	addi	s9,s9,1
    2bae:	85a6                	mv	a1,s1
    2bb0:	02000513          	li	a0,32
    2bb4:	fbeff0ef          	jal	ra,2372 <_ZL9_out_charcPvjj>
    2bb8:	ff9c18e3          	bne	s8,s9,2ba8 <riscprintf_+0x3f4>
    2bbc:	0009c503          	lbu	a0,0(s3)
    2bc0:	56fd                	li	a3,-1
    2bc2:	8662                	mv	a2,s8
    2bc4:	85a6                	mv	a1,s1
    2bc6:	9b6e                	add	s6,s6,s11
    2bc8:	faaff0ef          	jal	ra,2372 <_ZL9_out_charcPvjj>
    2bcc:	89ea                	mv	s3,s10
    2bce:	bb19                	j	28e4 <riscprintf_+0x130>
    2bd0:	8c32                	mv	s8,a2
    2bd2:	47f2                	lw	a5,28(sp)
    2bd4:	c395                	beqz	a5,2bf8 <riscprintf_+0x444>
    2bd6:	8b62                	mv	s6,s8
    2bd8:	07bcf663          	bgeu	s9,s11,2c44 <riscprintf_+0x490>
    2bdc:	016d8733          	add	a4,s11,s6
    2be0:	41970c33          	sub	s8,a4,s9
    2be4:	865a                	mv	a2,s6
    2be6:	56fd                	li	a3,-1
    2be8:	0b05                	addi	s6,s6,1
    2bea:	85a6                	mv	a1,s1
    2bec:	02000513          	li	a0,32
    2bf0:	f82ff0ef          	jal	ra,2372 <_ZL9_out_charcPvjj>
    2bf4:	ff8b18e3          	bne	s6,s8,2be4 <riscprintf_+0x430>
    2bf8:	49e2                	lw	s3,24(sp)
    2bfa:	8b62                	mv	s6,s8
    2bfc:	b931                	j	2818 <riscprintf_+0x64>
    2bfe:	002bc503          	lbu	a0,2(s7)
    2c02:	0c0c6c13          	ori	s8,s8,192
    2c06:	002b8693          	addi	a3,s7,2
    2c0a:	b9bd                	j	2888 <riscprintf_+0xd4>
    2c0c:	4601                	li	a2,0
    2c0e:	4401                	li	s0,0
    2c10:	1024                	addi	s1,sp,40
    2c12:	b1cd                	j	28f4 <riscprintf_+0x140>
    2c14:	05bcf663          	bgeu	s9,s11,2c60 <riscprintf_+0x4ac>
    2c18:	016d87b3          	add	a5,s11,s6
    2c1c:	41978cb3          	sub	s9,a5,s9
    2c20:	865a                	mv	a2,s6
    2c22:	56fd                	li	a3,-1
    2c24:	0b05                	addi	s6,s6,1
    2c26:	85a6                	mv	a1,s1
    2c28:	02000513          	li	a0,32
    2c2c:	f46ff0ef          	jal	ra,2372 <_ZL9_out_charcPvjj>
    2c30:	ff6c98e3          	bne	s9,s6,2c20 <riscprintf_+0x46c>
    2c34:	47c2                	lw	a5,16(sp)
    2c36:	001d8c93          	addi	s9,s11,1
    2c3a:	0007c683          	lbu	a3,0(a5)
    2c3e:	8536                	mv	a0,a3
    2c40:	ec0698e3          	bnez	a3,2b10 <riscprintf_+0x35c>
    2c44:	8c5a                	mv	s8,s6
    2c46:	bf4d                	j	2bf8 <riscprintf_+0x444>
    2c48:	0009c683          	lbu	a3,0(s3)
    2c4c:	b35d                	j	29f2 <riscprintf_+0x23e>
    2c4e:	020c6c13          	ori	s8,s8,32
    2c52:	ff3c7713          	andi	a4,s8,-13
    2c56:	47c1                	li	a5,16
    2c58:	bb8d                	j	29ca <riscprintf_+0x216>
    2c5a:	0009a683          	lw	a3,0(s3)
    2c5e:	bb51                	j	29f2 <riscprintf_+0x23e>
    2c60:	0c85                	addi	s9,s9,1
    2c62:	bff1                	j	2c3e <riscprintf_+0x48a>
    2c64:	0009c503          	lbu	a0,0(s3)
    2c68:	56fd                	li	a3,-1
    2c6a:	865a                	mv	a2,s6
    2c6c:	85a6                	mv	a1,s1
    2c6e:	f04ff0ef          	jal	ra,2372 <_ZL9_out_charcPvjj>
    2c72:	8b66                	mv	s6,s9
    2c74:	89ea                	mv	s3,s10
    2c76:	b1bd                	j	28e4 <riscprintf_+0x130>
    2c78:	400c7713          	andi	a4,s8,1024
    2c7c:	4789                	li	a5,2
    2c7e:	c701                	beqz	a4,2c86 <riscprintf_+0x4d2>
    2c80:	ff2c7713          	andi	a4,s8,-14
    2c84:	b399                	j	29ca <riscprintf_+0x216>
    2c86:	ff3c7713          	andi	a4,s8,-13
    2c8a:	b381                	j	29ca <riscprintf_+0x216>
    2c8c:	07800793          	li	a5,120
    2c90:	0af50663          	beq	a0,a5,2d3c <riscprintf_+0x588>
    2c94:	06f00793          	li	a5,111
    2c98:	04f50363          	beq	a0,a5,2cde <riscprintf_+0x52a>
    2c9c:	06900793          	li	a5,105
    2ca0:	fefc7593          	andi	a1,s8,-17
    2ca4:	0af51363          	bne	a0,a5,2d4a <riscprintf_+0x596>
    2ca8:	400c7793          	andi	a5,s8,1024
    2cac:	c399                	beqz	a5,2cb2 <riscprintf_+0x4fe>
    2cae:	feec7593          	andi	a1,s8,-18
    2cb2:	2005f793          	andi	a5,a1,512
    2cb6:	b60791e3          	bnez	a5,2818 <riscprintf_+0x64>
    2cba:	1005f793          	andi	a5,a1,256
    2cbe:	00498c13          	addi	s8,s3,4
    2cc2:	e3b1                	bnez	a5,2d06 <riscprintf_+0x552>
    2cc4:	0405f793          	andi	a5,a1,64
    2cc8:	c395                	beqz	a5,2cec <riscprintf_+0x538>
    2cca:	0009c703          	lbu	a4,0(s3)
    2cce:	86ba                	mv	a3,a4
    2cd0:	865a                	mv	a2,s6
    2cd2:	c02e                	sw	a1,0(sp)
    2cd4:	88ee                	mv	a7,s11
    2cd6:	886a                	mv	a6,s10
    2cd8:	47a9                	li	a5,10
    2cda:	837d                	srli	a4,a4,0x1f
    2cdc:	b305                	j	29fc <riscprintf_+0x248>
    2cde:	400c7793          	andi	a5,s8,1024
    2ce2:	c3a9                	beqz	a5,2d24 <riscprintf_+0x570>
    2ce4:	ff2c7713          	andi	a4,s8,-14
    2ce8:	47a1                	li	a5,8
    2cea:	b1c5                	j	29ca <riscprintf_+0x216>
    2cec:	0805f793          	andi	a5,a1,128
    2cf0:	cf95                	beqz	a5,2d2c <riscprintf_+0x578>
    2cf2:	00099703          	lh	a4,0(s3)
    2cf6:	40f75793          	srai	a5,a4,0xf
    2cfa:	00f746b3          	xor	a3,a4,a5
    2cfe:	8e9d                	sub	a3,a3,a5
    2d00:	06c2                	slli	a3,a3,0x10
    2d02:	82c1                	srli	a3,a3,0x10
    2d04:	b7f1                	j	2cd0 <riscprintf_+0x51c>
    2d06:	0009a703          	lw	a4,0(s3)
    2d0a:	865a                	mv	a2,s6
    2d0c:	c02e                	sw	a1,0(sp)
    2d0e:	41f75693          	srai	a3,a4,0x1f
    2d12:	00e6c533          	xor	a0,a3,a4
    2d16:	88ee                	mv	a7,s11
    2d18:	886a                	mv	a6,s10
    2d1a:	47a9                	li	a5,10
    2d1c:	837d                	srli	a4,a4,0x1f
    2d1e:	40d506b3          	sub	a3,a0,a3
    2d22:	b9e9                	j	29fc <riscprintf_+0x248>
    2d24:	ff3c7713          	andi	a4,s8,-13
    2d28:	47a1                	li	a5,8
    2d2a:	b145                	j	29ca <riscprintf_+0x216>
    2d2c:	0009a703          	lw	a4,0(s3)
    2d30:	41f75793          	srai	a5,a4,0x1f
    2d34:	00e7c6b3          	xor	a3,a5,a4
    2d38:	8e9d                	sub	a3,a3,a5
    2d3a:	bf59                	j	2cd0 <riscprintf_+0x51c>
    2d3c:	400c7793          	andi	a5,s8,1024
    2d40:	db89                	beqz	a5,2c52 <riscprintf_+0x49e>
    2d42:	ff2c7713          	andi	a4,s8,-14
    2d46:	47c1                	li	a5,16
    2d48:	b149                	j	29ca <riscprintf_+0x216>
    2d4a:	06400793          	li	a5,100
    2d4e:	f4f50de3          	beq	a0,a5,2ca8 <riscprintf_+0x4f4>
    2d52:	400c7693          	andi	a3,s8,1024
    2d56:	fe3c7713          	andi	a4,s8,-29
    2d5a:	47a9                	li	a5,10
    2d5c:	8c2e                	mv	s8,a1
    2d5e:	c60686e3          	beqz	a3,29ca <riscprintf_+0x216>
    2d62:	ff2c7713          	andi	a4,s8,-14
    2d66:	b195                	j	29ca <riscprintf_+0x216>
    2d68:	8bba                	mv	s7,a4
    2d6a:	b62d                	j	2894 <riscprintf_+0xe0>

00002d6c <_Z10ResetTimerv>:
    2d6c:	4785                	li	a5,1
    2d6e:	fcf02223          	sw	a5,-60(zero) # ffffffc4 <__ram_end+0xfffeffc4>
    2d72:	06500793          	li	a5,101
    2d76:	17fd                	addi	a5,a5,-1
    2d78:	fffd                	bnez	a5,2d76 <_Z10ResetTimerv+0xa>
    2d7a:	fc002223          	sw	zero,-60(zero) # ffffffc4 <__ram_end+0xfffeffc4>
    2d7e:	8082                	ret

00002d80 <_Z8SetTimerv>:
    2d80:	000b57b7          	lui	a5,0xb5
    2d84:	46478793          	addi	a5,a5,1124 # b5464 <__ram_end+0xa5464>
    2d88:	f8f02c23          	sw	a5,-104(zero) # ffffff98 <__ram_end+0xfffeff98>
    2d8c:	8082                	ret

00002d8e <_Z10riscusleepi>:
    2d8e:	00a05663          	blez	a0,2d9a <_Z10riscusleepi+0xc>
    2d92:	4781                	li	a5,0
    2d94:	0785                	addi	a5,a5,1
    2d96:	fef51fe3          	bne	a0,a5,2d94 <_Z10riscusleepi+0x6>
    2d9a:	8082                	ret

00002d9c <_Z12RISCGetTimerm>:
    2d9c:	ff802783          	lw	a5,-8(zero) # fffffff8 <__ram_end+0xfffefff8>
    2da0:	6749                	lui	a4,0x12
    2da2:	20a70713          	addi	a4,a4,522 # 1220a <__ram_end+0x220a>
    2da6:	02e7d7b3          	divu	a5,a5,a4
    2daa:	953e                	add	a0,a0,a5
    2dac:	8082                	ret

00002dae <_Z14RISCCheckTimerm>:
    2dae:	cd09                	beqz	a0,2dc8 <_Z14RISCCheckTimerm+0x1a>
    2db0:	ff802783          	lw	a5,-8(zero) # fffffff8 <__ram_end+0xfffefff8>
    2db4:	6749                	lui	a4,0x12
    2db6:	20a70713          	addi	a4,a4,522 # 1220a <__ram_end+0x220a>
    2dba:	02e7d7b3          	divu	a5,a5,a4
    2dbe:	00a7b533          	sltu	a0,a5,a0
    2dc2:	00154513          	xori	a0,a0,1
    2dc6:	8082                	ret
    2dc8:	4505                	li	a0,1
    2dca:	8082                	ret

00002dcc <_Z11ResetTimer2v>:
    2dcc:	4785                	li	a5,1
    2dce:	fcf02623          	sw	a5,-52(zero) # ffffffcc <__ram_end+0xfffeffcc>
    2dd2:	47ad                	li	a5,11
    2dd4:	17fd                	addi	a5,a5,-1
    2dd6:	fffd                	bnez	a5,2dd4 <_Z11ResetTimer2v+0x8>
    2dd8:	fc002623          	sw	zero,-52(zero) # ffffffcc <__ram_end+0xfffeffcc>
    2ddc:	8082                	ret

00002dde <memcpy>:
    2dde:	4791                	li	a5,4
    2de0:	02c7f163          	bgeu	a5,a2,2e02 <memcpy+0x24>
    2de4:	00b567b3          	or	a5,a0,a1
    2de8:	8b8d                	andi	a5,a5,3
    2dea:	cf99                	beqz	a5,2e08 <memcpy+0x2a>
    2dec:	87aa                	mv	a5,a0
    2dee:	963e                	add	a2,a2,a5
    2df0:	0005c703          	lbu	a4,0(a1)
    2df4:	0785                	addi	a5,a5,1
    2df6:	0585                	addi	a1,a1,1
    2df8:	fee78fa3          	sb	a4,-1(a5)
    2dfc:	fef61ae3          	bne	a2,a5,2df0 <memcpy+0x12>
    2e00:	8082                	ret
    2e02:	87aa                	mv	a5,a0
    2e04:	f66d                	bnez	a2,2dee <memcpy+0x10>
    2e06:	8082                	ret
    2e08:	ffc60893          	addi	a7,a2,-4
    2e0c:	ffc8f893          	andi	a7,a7,-4
    2e10:	0891                	addi	a7,a7,4
    2e12:	011507b3          	add	a5,a0,a7
    2e16:	86ae                	mv	a3,a1
    2e18:	872a                	mv	a4,a0
    2e1a:	0006a803          	lw	a6,0(a3)
    2e1e:	0711                	addi	a4,a4,4
    2e20:	0691                	addi	a3,a3,4
    2e22:	ff072e23          	sw	a6,-4(a4)
    2e26:	fee79ae3          	bne	a5,a4,2e1a <memcpy+0x3c>
    2e2a:	8a0d                	andi	a2,a2,3
    2e2c:	95c6                	add	a1,a1,a7
    2e2e:	f261                	bnez	a2,2dee <memcpy+0x10>
    2e30:	bfd9                	j	2e06 <memcpy+0x28>

00002e32 <sscanf>:
    2e32:	7139                	addi	sp,sp,-64
    2e34:	cc22                	sw	s0,24(sp)
    2e36:	d432                	sw	a2,40(sp)
    2e38:	842e                	mv	s0,a1
    2e3a:	4601                	li	a2,0
    2e3c:	85aa                	mv	a1,a0
    2e3e:	0048                	addi	a0,sp,4
    2e40:	ce06                	sw	ra,28(sp)
    2e42:	d636                	sw	a3,44(sp)
    2e44:	d83a                	sw	a4,48(sp)
    2e46:	da3e                	sw	a5,52(sp)
    2e48:	dc42                	sw	a6,56(sp)
    2e4a:	de46                	sw	a7,60(sp)
    2e4c:	28b9                	jal	2eaa <stropen>
    2e4e:	1030                	addi	a2,sp,40
    2e50:	85a2                	mv	a1,s0
    2e52:	0048                	addi	a0,sp,4
    2e54:	c032                	sw	a2,0(sp)
    2e56:	2869                	jal	2ef0 <stream_vscanf>
    2e58:	40f2                	lw	ra,28(sp)
    2e5a:	4462                	lw	s0,24(sp)
    2e5c:	6121                	addi	sp,sp,64
    2e5e:	8082                	ret

00002e60 <buf_getchar>:
    2e60:	4158                	lw	a4,4(a0)
    2e62:	00074783          	lbu	a5,0(a4)
    2e66:	c789                	beqz	a5,2e70 <buf_getchar+0x10>
    2e68:	0705                	addi	a4,a4,1
    2e6a:	c158                	sw	a4,4(a0)
    2e6c:	853e                	mv	a0,a5
    2e6e:	8082                	ret
    2e70:	4501                	li	a0,0
    2e72:	8082                	ret

00002e74 <buf_peekchar>:
    2e74:	415c                	lw	a5,4(a0)
    2e76:	0007c503          	lbu	a0,0(a5)
    2e7a:	c111                	beqz	a0,2e7e <buf_peekchar+0xa>
    2e7c:	8082                	ret
    2e7e:	557d                	li	a0,-1
    2e80:	8082                	ret

00002e82 <buf_feof>:
    2e82:	415c                	lw	a5,4(a0)
    2e84:	0007c503          	lbu	a0,0(a5)
    2e88:	00153513          	seqz	a0,a0
    2e8c:	8082                	ret

00002e8e <buf_putchar>:
    2e8e:	4518                	lw	a4,8(a0)
    2e90:	4785                	li	a5,1
    2e92:	00e7db63          	bge	a5,a4,2ea8 <buf_putchar+0x1a>
    2e96:	415c                	lw	a5,4(a0)
    2e98:	00178713          	addi	a4,a5,1
    2e9c:	c158                	sw	a4,4(a0)
    2e9e:	00b78023          	sb	a1,0(a5)
    2ea2:	451c                	lw	a5,8(a0)
    2ea4:	17fd                	addi	a5,a5,-1
    2ea6:	c51c                	sw	a5,8(a0)
    2ea8:	8082                	ret

00002eaa <stropen>:
    2eaa:	6711                	lui	a4,0x4
    2eac:	a2070713          	addi	a4,a4,-1504 # 3a20 <buf_interface>
    2eb0:	c118                	sw	a4,0(a0)
    2eb2:	c14c                	sw	a1,4(a0)
    2eb4:	c510                	sw	a2,8(a0)
    2eb6:	8082                	ret

00002eb8 <strstr>:
    2eb8:	0005c803          	lbu	a6,0(a1)
    2ebc:	00080c63          	beqz	a6,2ed4 <strstr+0x1c>
    2ec0:	00054783          	lbu	a5,0(a0)
    2ec4:	c799                	beqz	a5,2ed2 <strstr+0x1a>
    2ec6:	00f80863          	beq	a6,a5,2ed6 <strstr+0x1e>
    2eca:	00154783          	lbu	a5,1(a0)
    2ece:	0505                	addi	a0,a0,1
    2ed0:	fbfd                	bnez	a5,2ec6 <strstr+0xe>
    2ed2:	4501                	li	a0,0
    2ed4:	8082                	ret
    2ed6:	87ae                	mv	a5,a1
    2ed8:	872a                	mv	a4,a0
    2eda:	a029                	j	2ee4 <strstr+0x2c>
    2edc:	fff74603          	lbu	a2,-1(a4)
    2ee0:	fed615e3          	bne	a2,a3,2eca <strstr+0x12>
    2ee4:	0007c683          	lbu	a3,0(a5)
    2ee8:	0705                	addi	a4,a4,1
    2eea:	0785                	addi	a5,a5,1
    2eec:	fae5                	bnez	a3,2edc <strstr+0x24>
    2eee:	8082                	ret

00002ef0 <stream_vscanf>:
    2ef0:	711d                	addi	sp,sp,-96
    2ef2:	caa6                	sw	s1,84(sp)
    2ef4:	c8ca                	sw	s2,80(sp)
    2ef6:	c6ce                	sw	s3,76(sp)
    2ef8:	c2d6                	sw	s5,68(sp)
    2efa:	d66e                	sw	s11,44(sp)
    2efc:	ce86                	sw	ra,92(sp)
    2efe:	cca2                	sw	s0,88(sp)
    2f00:	c4d2                	sw	s4,72(sp)
    2f02:	c0da                	sw	s6,64(sp)
    2f04:	de5e                	sw	s7,60(sp)
    2f06:	dc62                	sw	s8,56(sp)
    2f08:	da66                	sw	s9,52(sp)
    2f0a:	d86a                	sw	s10,48(sp)
    2f0c:	8daa                	mv	s11,a0
    2f0e:	89b2                	mv	s3,a2
    2f10:	c802                	sw	zero,16(sp)
    2f12:	c602                	sw	zero,12(sp)
    2f14:	02000493          	li	s1,32
    2f18:	4905                	li	s2,1
    2f1a:	02500a93          	li	s5,37
    2f1e:	0005cd03          	lbu	s10,0(a1)
    2f22:	00158413          	addi	s0,a1,1
    2f26:	029d0b63          	beq	s10,s1,2f5c <stream_vscanf+0x6c>
    2f2a:	09a4e363          	bltu	s1,s10,2fb0 <stream_vscanf+0xc0>
    2f2e:	040d1963          	bnez	s10,2f80 <stream_vscanf+0x90>
    2f32:	40f6                	lw	ra,92(sp)
    2f34:	4466                	lw	s0,88(sp)
    2f36:	4532                	lw	a0,12(sp)
    2f38:	44d6                	lw	s1,84(sp)
    2f3a:	4946                	lw	s2,80(sp)
    2f3c:	49b6                	lw	s3,76(sp)
    2f3e:	4a26                	lw	s4,72(sp)
    2f40:	4a96                	lw	s5,68(sp)
    2f42:	4b06                	lw	s6,64(sp)
    2f44:	5bf2                	lw	s7,60(sp)
    2f46:	5c62                	lw	s8,56(sp)
    2f48:	5cd2                	lw	s9,52(sp)
    2f4a:	5d42                	lw	s10,48(sp)
    2f4c:	5db2                	lw	s11,44(sp)
    2f4e:	6125                	addi	sp,sp,96
    2f50:	8082                	ret
    2f52:	000da703          	lw	a4,0(s11)
    2f56:	856e                	mv	a0,s11
    2f58:	4358                	lw	a4,4(a4)
    2f5a:	9702                	jalr	a4
    2f5c:	000da703          	lw	a4,0(s11)
    2f60:	856e                	mv	a0,s11
    2f62:	4718                	lw	a4,8(a4)
    2f64:	9702                	jalr	a4
    2f66:	00054b63          	bltz	a0,2f7c <stream_vscanf+0x8c>
    2f6a:	0ff57513          	zext.b	a0,a0
    2f6e:	fe9502e3          	beq	a0,s1,2f52 <stream_vscanf+0x62>
    2f72:	155d                	addi	a0,a0,-9
    2f74:	0ff57513          	zext.b	a0,a0
    2f78:	fca97de3          	bgeu	s2,a0,2f52 <stream_vscanf+0x62>
    2f7c:	85a2                	mv	a1,s0
    2f7e:	b745                	j	2f1e <stream_vscanf+0x2e>
    2f80:	ff7d0693          	addi	a3,s10,-9
    2f84:	0ff6f693          	zext.b	a3,a3
    2f88:	fcd97ae3          	bgeu	s2,a3,2f5c <stream_vscanf+0x6c>
    2f8c:	000da683          	lw	a3,0(s11)
    2f90:	856e                	mv	a0,s11
    2f92:	4694                	lw	a3,8(a3)
    2f94:	9682                	jalr	a3
    2f96:	3c054763          	bltz	a0,3364 <stream_vscanf+0x474>
    2f9a:	0ff57513          	zext.b	a0,a0
    2f9e:	f9a51ae3          	bne	a0,s10,2f32 <stream_vscanf+0x42>
    2fa2:	000da703          	lw	a4,0(s11)
    2fa6:	856e                	mv	a0,s11
    2fa8:	4358                	lw	a4,4(a4)
    2faa:	9702                	jalr	a4
    2fac:	85a2                	mv	a1,s0
    2fae:	bf85                	j	2f1e <stream_vscanf+0x2e>
    2fb0:	fd5d1ee3          	bne	s10,s5,2f8c <stream_vscanf+0x9c>
    2fb4:	0015cd03          	lbu	s10,1(a1)
    2fb8:	00258413          	addi	s0,a1,2
    2fbc:	fd5d08e3          	beq	s10,s5,2f8c <stream_vscanf+0x9c>
    2fc0:	02a00693          	li	a3,42
    2fc4:	0add0e63          	beq	s10,a3,3080 <stream_vscanf+0x190>
    2fc8:	0009a783          	lw	a5,0(s3)
    2fcc:	ca3e                	sw	a5,20(sp)
    2fce:	00498793          	addi	a5,s3,4
    2fd2:	cc3e                	sw	a5,24(sp)
    2fd4:	fd0d0693          	addi	a3,s10,-48
    2fd8:	0ff6f693          	zext.b	a3,a3
    2fdc:	4625                	li	a2,9
    2fde:	08d66563          	bltu	a2,a3,3068 <stream_vscanf+0x178>
    2fe2:	4c01                	li	s8,0
    2fe4:	45a5                	li	a1,9
    2fe6:	002c1693          	slli	a3,s8,0x2
    2fea:	96e2                	add	a3,a3,s8
    2fec:	0686                	slli	a3,a3,0x1
    2fee:	0405                	addi	s0,s0,1
    2ff0:	96ea                	add	a3,a3,s10
    2ff2:	fff44d03          	lbu	s10,-1(s0)
    2ff6:	fd068693          	addi	a3,a3,-48
    2ffa:	01069c13          	slli	s8,a3,0x10
    2ffe:	fd0d0693          	addi	a3,s10,-48
    3002:	0ff6f693          	zext.b	a3,a3
    3006:	010c5c13          	srli	s8,s8,0x10
    300a:	fcd5fee3          	bgeu	a1,a3,2fe6 <stream_vscanf+0xf6>
    300e:	040c0d63          	beqz	s8,3068 <stream_vscanf+0x178>
    3012:	06800693          	li	a3,104
    3016:	06dd0063          	beq	s10,a3,3076 <stream_vscanf+0x186>
    301a:	05b00693          	li	a3,91
    301e:	4b05                	li	s6,1
    3020:	06dd0763          	beq	s10,a3,308e <stream_vscanf+0x19e>
    3024:	340d0063          	beqz	s10,3364 <stream_vscanf+0x474>
    3028:	fa5d0693          	addi	a3,s10,-91
    302c:	0ff6f693          	zext.b	a3,a3
    3030:	45f5                	li	a1,29
    3032:	02d5e063          	bltu	a1,a3,3052 <stream_vscanf+0x162>
    3036:	6591                	lui	a1,0x4
    3038:	068a                	slli	a3,a3,0x2
    303a:	89058593          	addi	a1,a1,-1904 # 3890 <stream_vscanf+0x9a0>
    303e:	96ae                	add	a3,a3,a1
    3040:	4294                	lw	a3,0(a3)
    3042:	8682                	jr	a3
    3044:	02000593          	li	a1,32
    3048:	0cbc9c63          	bne	s9,a1,3120 <stream_vscanf+0x230>
    304c:	47d2                	lw	a5,20(sp)
    304e:	29379b63          	bne	a5,s3,32e4 <stream_vscanf+0x3f4>
    3052:	000da703          	lw	a4,0(s11)
    3056:	4b18                	lw	a4,16(a4)
    3058:	c709                	beqz	a4,3062 <stream_vscanf+0x172>
    305a:	856e                	mv	a0,s11
    305c:	9702                	jalr	a4
    305e:	30051063          	bnez	a0,335e <stream_vscanf+0x46e>
    3062:	49e2                	lw	s3,24(sp)
    3064:	85a2                	mv	a1,s0
    3066:	bd65                	j	2f1e <stream_vscanf+0x2e>
    3068:	661d                	lui	a2,0x7
    306a:	06800693          	li	a3,104
    306e:	53060c13          	addi	s8,a2,1328 # 7530 <_end+0x1f60>
    3072:	fadd14e3          	bne	s10,a3,301a <stream_vscanf+0x12a>
    3076:	00044d03          	lbu	s10,0(s0)
    307a:	4b01                	li	s6,0
    307c:	0405                	addi	s0,s0,1
    307e:	b75d                	j	3024 <stream_vscanf+0x134>
    3080:	0025cd03          	lbu	s10,2(a1)
    3084:	00358413          	addi	s0,a1,3
    3088:	cc4e                	sw	s3,24(sp)
    308a:	ca02                	sw	zero,20(sp)
    308c:	b7a1                	j	2fd4 <stream_vscanf+0xe4>
    308e:	00044583          	lbu	a1,0(s0)
    3092:	05e00513          	li	a0,94
    3096:	86a2                	mv	a3,s0
    3098:	2aa58e63          	beq	a1,a0,3354 <stream_vscanf+0x464>
    309c:	c989                	beqz	a1,30ae <stream_vscanf+0x1be>
    309e:	05d00513          	li	a0,93
    30a2:	2ea58c63          	beq	a1,a0,339a <stream_vscanf+0x4aa>
    30a6:	0016c583          	lbu	a1,1(a3)
    30aa:	0685                	addi	a3,a3,1
    30ac:	f9fd                	bnez	a1,30a2 <stream_vscanf+0x1b2>
    30ae:	c822                	sw	s0,16(sp)
    30b0:	8436                	mv	s0,a3
    30b2:	4c81                	li	s9,0
    30b4:	07300993          	li	s3,115
    30b8:	4ba9                	li	s7,10
    30ba:	02000b13          	li	s6,32
    30be:	4a25                	li	s4,9
    30c0:	000da583          	lw	a1,0(s11)
    30c4:	0105a803          	lw	a6,16(a1)
    30c8:	00080763          	beqz	a6,30d6 <stream_vscanf+0x1e6>
    30cc:	856e                	mv	a0,s11
    30ce:	9802                	jalr	a6
    30d0:	e105                	bnez	a0,30f0 <stream_vscanf+0x200>
    30d2:	000da583          	lw	a1,0(s11)
    30d6:	41d4                	lw	a3,4(a1)
    30d8:	856e                	mv	a0,s11
    30da:	9682                	jalr	a3
    30dc:	0ff57c93          	zext.b	s9,a0
    30e0:	013d1863          	bne	s10,s3,30f0 <stream_vscanf+0x200>
    30e4:	fd7c8ee3          	beq	s9,s7,30c0 <stream_vscanf+0x1d0>
    30e8:	fd6c8ce3          	beq	s9,s6,30c0 <stream_vscanf+0x1d0>
    30ec:	fd4c8ae3          	beq	s9,s4,30c0 <stream_vscanf+0x1d0>
    30f0:	47c2                	lw	a5,16(sp)
    30f2:	49d2                	lw	s3,20(sp)
    30f4:	07300b93          	li	s7,115
    30f8:	0785                	addi	a5,a5,1
    30fa:	02d00b13          	li	s6,45
    30fe:	05d00a13          	li	s4,93
    3102:	ce3e                	sw	a5,28(sp)
    3104:	000da583          	lw	a1,0(s11)
    3108:	498c                	lw	a1,16(a1)
    310a:	c589                	beqz	a1,3114 <stream_vscanf+0x224>
    310c:	856e                	mv	a0,s11
    310e:	9582                	jalr	a1
    3110:	1c051363          	bnez	a0,32d6 <stream_vscanf+0x3e6>
    3114:	1b7d0a63          	beq	s10,s7,32c8 <stream_vscanf+0x3d8>
    3118:	05b00793          	li	a5,91
    311c:	02fd0763          	beq	s10,a5,314a <stream_vscanf+0x25a>
    3120:	00098563          	beqz	s3,312a <stream_vscanf+0x23a>
    3124:	01998023          	sb	s9,0(s3)
    3128:	0985                	addi	s3,s3,1
    312a:	fffc0613          	addi	a2,s8,-1
    312e:	01061c13          	slli	s8,a2,0x10
    3132:	010c5c13          	srli	s8,s8,0x10
    3136:	1a0c0063          	beqz	s8,32d6 <stream_vscanf+0x3e6>
    313a:	000da683          	lw	a3,0(s11)
    313e:	856e                	mv	a0,s11
    3140:	42d4                	lw	a3,4(a3)
    3142:	9682                	jalr	a3
    3144:	0ff57c93          	zext.b	s9,a0
    3148:	bf75                	j	3104 <stream_vscanf+0x214>
    314a:	47c2                	lw	a5,16(sp)
    314c:	0007c803          	lbu	a6,0(a5)
    3150:	05e00793          	li	a5,94
    3154:	1af80163          	beq	a6,a5,32f6 <stream_vscanf+0x406>
    3158:	ef480ae3          	beq	a6,s4,304c <stream_vscanf+0x15c>
    315c:	4572                	lw	a0,28(sp)
    315e:	4e81                	li	t4,0
    3160:	ee0806e3          	beqz	a6,304c <stream_vscanf+0x15c>
    3164:	00054583          	lbu	a1,0(a0)
    3168:	00150893          	addi	a7,a0,1
    316c:	8342                	mv	t1,a6
    316e:	03658163          	beq	a1,s6,3190 <stream_vscanf+0x2a0>
    3172:	046cfc63          	bgeu	s9,t1,31ca <stream_vscanf+0x2da>
    3176:	05458e63          	beq	a1,s4,31d2 <stream_vscanf+0x2e2>
    317a:	ec0589e3          	beqz	a1,304c <stream_vscanf+0x15c>
    317e:	8546                	mv	a0,a7
    3180:	882e                	mv	a6,a1
    3182:	00054583          	lbu	a1,0(a0)
    3186:	00150893          	addi	a7,a0,1
    318a:	8342                	mv	t1,a6
    318c:	ff6593e3          	bne	a1,s6,3172 <stream_vscanf+0x282>
    3190:	00154e03          	lbu	t3,1(a0)
    3194:	014e0d63          	beq	t3,s4,31ae <stream_vscanf+0x2be>
    3198:	ea0e0ae3          	beqz	t3,304c <stream_vscanf+0x15c>
    319c:	8342                	mv	t1,a6
    319e:	00254583          	lbu	a1,2(a0)
    31a2:	00350893          	addi	a7,a0,3
    31a6:	8872                	mv	a6,t3
    31a8:	fc6ce7e3          	bltu	s9,t1,3176 <stream_vscanf+0x286>
    31ac:	a839                	j	31ca <stream_vscanf+0x2da>
    31ae:	fd0ce8e3          	bltu	s9,a6,317e <stream_vscanf+0x28e>
    31b2:	019a7e63          	bgeu	s4,s9,31ce <stream_vscanf+0x2de>
    31b6:	0008c803          	lbu	a6,0(a7)
    31ba:	00188313          	addi	t1,a7,1
    31be:	15680763          	beq	a6,s6,330c <stream_vscanf+0x41c>
    31c2:	8542                	mv	a0,a6
    31c4:	889a                	mv	a7,t1
    31c6:	882e                	mv	a6,a1
    31c8:	85aa                	mv	a1,a0
    31ca:	fb9866e3          	bltu	a6,s9,3176 <stream_vscanf+0x286>
    31ce:	001ece93          	xori	t4,t4,1
    31d2:	f40e97e3          	bnez	t4,3120 <stream_vscanf+0x230>
    31d6:	bd9d                	j	304c <stream_vscanf+0x15c>
    31d8:	4a41                	li	s4,16
    31da:	02000993          	li	s3,32
    31de:	4b85                	li	s7,1
    31e0:	000da703          	lw	a4,0(s11)
    31e4:	856e                	mv	a0,s11
    31e6:	4718                	lw	a4,8(a4)
    31e8:	9702                	jalr	a4
    31ea:	e60544e3          	bltz	a0,3052 <stream_vscanf+0x162>
    31ee:	0ff57713          	zext.b	a4,a0
    31f2:	0d370563          	beq	a4,s3,32bc <stream_vscanf+0x3cc>
    31f6:	175d                	addi	a4,a4,-9
    31f8:	0ff77713          	zext.b	a4,a4
    31fc:	0cebf063          	bgeu	s7,a4,32bc <stream_vscanf+0x3cc>
    3200:	02d00713          	li	a4,45
    3204:	10e50b63          	beq	a0,a4,331a <stream_vscanf+0x42a>
    3208:	02b00713          	li	a4,43
    320c:	ce02                	sw	zero,28(sp)
    320e:	10e50863          	beq	a0,a4,331e <stream_vscanf+0x42e>
    3212:	fd050713          	addi	a4,a0,-48
    3216:	46a5                	li	a3,9
    3218:	00e6fc63          	bgeu	a3,a4,3230 <stream_vscanf+0x340>
    321c:	46c1                	li	a3,16
    321e:	e2da1ae3          	bne	s4,a3,3052 <stream_vscanf+0x162>
    3222:	fdf57693          	andi	a3,a0,-33
    3226:	fbf68693          	addi	a3,a3,-65
    322a:	4595                	li	a1,5
    322c:	e2d5e3e3          	bltu	a1,a3,3052 <stream_vscanf+0x162>
    3230:	4ba5                	li	s7,9
    3232:	4981                	li	s3,0
    3234:	4d41                	li	s10,16
    3236:	4c95                	li	s9,5
    3238:	04ebfc63          	bgeu	s7,a4,3290 <stream_vscanf+0x3a0>
    323c:	13aa1f63          	bne	s4,s10,337a <stream_vscanf+0x48a>
    3240:	f9f50713          	addi	a4,a0,-97
    3244:	12ecf363          	bgeu	s9,a4,336a <stream_vscanf+0x47a>
    3248:	fbf50713          	addi	a4,a0,-65
    324c:	12ece763          	bltu	s9,a4,337a <stream_vscanf+0x48a>
    3250:	47d2                	lw	a5,20(sp)
    3252:	c799                	beqz	a5,3260 <stream_vscanf+0x370>
    3254:	00499693          	slli	a3,s3,0x4
    3258:	fc950713          	addi	a4,a0,-55
    325c:	00d709b3          	add	s3,a4,a3
    3260:	000da703          	lw	a4,0(s11)
    3264:	856e                	mv	a0,s11
    3266:	4358                	lw	a4,4(a4)
    3268:	9702                	jalr	a4
    326a:	000da703          	lw	a4,0(s11)
    326e:	856e                	mv	a0,s11
    3270:	4718                	lw	a4,8(a4)
    3272:	9702                	jalr	a4
    3274:	fffc0613          	addi	a2,s8,-1
    3278:	01061c13          	slli	s8,a2,0x10
    327c:	010c5c13          	srli	s8,s8,0x10
    3280:	0e054d63          	bltz	a0,337a <stream_vscanf+0x48a>
    3284:	0e0c0b63          	beqz	s8,337a <stream_vscanf+0x48a>
    3288:	fd050713          	addi	a4,a0,-48
    328c:	faebe8e3          	bltu	s7,a4,323c <stream_vscanf+0x34c>
    3290:	47d2                	lw	a5,20(sp)
    3292:	d7f9                	beqz	a5,3260 <stream_vscanf+0x370>
    3294:	47a1                	li	a5,8
    3296:	00399693          	slli	a3,s3,0x3
    329a:	fcfa01e3          	beq	s4,a5,325c <stream_vscanf+0x36c>
    329e:	47a9                	li	a5,10
    32a0:	10fa1463          	bne	s4,a5,33a8 <stream_vscanf+0x4b8>
    32a4:	00299693          	slli	a3,s3,0x2
    32a8:	96ce                	add	a3,a3,s3
    32aa:	0686                	slli	a3,a3,0x1
    32ac:	bf45                	j	325c <stream_vscanf+0x36c>
    32ae:	669d                	lui	a3,0x7
    32b0:	53068693          	addi	a3,a3,1328 # 7530 <_end+0x1f60>
    32b4:	dedc1fe3          	bne	s8,a3,30b2 <stream_vscanf+0x1c2>
    32b8:	4c05                	li	s8,1
    32ba:	bbe5                	j	30b2 <stream_vscanf+0x1c2>
    32bc:	000da703          	lw	a4,0(s11)
    32c0:	856e                	mv	a0,s11
    32c2:	4358                	lw	a4,4(a4)
    32c4:	9702                	jalr	a4
    32c6:	bf29                	j	31e0 <stream_vscanf+0x2f0>
    32c8:	45a9                	li	a1,10
    32ca:	d795ede3          	bltu	a1,s9,3044 <stream_vscanf+0x154>
    32ce:	45a1                	li	a1,8
    32d0:	e595f8e3          	bgeu	a1,s9,3120 <stream_vscanf+0x230>
    32d4:	bba5                	j	304c <stream_vscanf+0x15c>
    32d6:	47d2                	lw	a5,20(sp)
    32d8:	d7378de3          	beq	a5,s3,3052 <stream_vscanf+0x162>
    32dc:	06300693          	li	a3,99
    32e0:	00dd0463          	beq	s10,a3,32e8 <stream_vscanf+0x3f8>
    32e4:	00098023          	sb	zero,0(s3)
    32e8:	47d2                	lw	a5,20(sp)
    32ea:	4732                	lw	a4,12(sp)
    32ec:	00f037b3          	snez	a5,a5
    32f0:	97ba                	add	a5,a5,a4
    32f2:	c63e                	sw	a5,12(sp)
    32f4:	bbb9                	j	3052 <stream_vscanf+0x162>
    32f6:	47c2                	lw	a5,16(sp)
    32f8:	05d00593          	li	a1,93
    32fc:	4e85                	li	t4,1
    32fe:	0017c803          	lbu	a6,1(a5)
    3302:	00278513          	addi	a0,a5,2
    3306:	e4b81de3          	bne	a6,a1,3160 <stream_vscanf+0x270>
    330a:	bd19                	j	3120 <stream_vscanf+0x230>
    330c:	8546                	mv	a0,a7
    330e:	889a                	mv	a7,t1
    3310:	b541                	j	3190 <stream_vscanf+0x2a0>
    3312:	4a21                	li	s4,8
    3314:	b5d9                	j	31da <stream_vscanf+0x2ea>
    3316:	4a29                	li	s4,10
    3318:	b5c9                	j	31da <stream_vscanf+0x2ea>
    331a:	4785                	li	a5,1
    331c:	ce3e                	sw	a5,28(sp)
    331e:	000da703          	lw	a4,0(s11)
    3322:	856e                	mv	a0,s11
    3324:	4358                	lw	a4,4(a4)
    3326:	9702                	jalr	a4
    3328:	fffc0613          	addi	a2,s8,-1
    332c:	01061c13          	slli	s8,a2,0x10
    3330:	010c5c13          	srli	s8,s8,0x10
    3334:	d00c0fe3          	beqz	s8,3052 <stream_vscanf+0x162>
    3338:	000da703          	lw	a4,0(s11)
    333c:	4b14                	lw	a3,16(a4)
    333e:	c699                	beqz	a3,334c <stream_vscanf+0x45c>
    3340:	856e                	mv	a0,s11
    3342:	9682                	jalr	a3
    3344:	d00517e3          	bnez	a0,3052 <stream_vscanf+0x162>
    3348:	000da703          	lw	a4,0(s11)
    334c:	4718                	lw	a4,8(a4)
    334e:	856e                	mv	a0,s11
    3350:	9702                	jalr	a4
    3352:	b5c1                	j	3212 <stream_vscanf+0x322>
    3354:	00144583          	lbu	a1,1(s0)
    3358:	00140693          	addi	a3,s0,1
    335c:	b381                	j	309c <stream_vscanf+0x1ac>
    335e:	47b2                	lw	a5,12(sp)
    3360:	bc0799e3          	bnez	a5,2f32 <stream_vscanf+0x42>
    3364:	57fd                	li	a5,-1
    3366:	c63e                	sw	a5,12(sp)
    3368:	b6e9                	j	2f32 <stream_vscanf+0x42>
    336a:	47d2                	lw	a5,20(sp)
    336c:	ee078ae3          	beqz	a5,3260 <stream_vscanf+0x370>
    3370:	00499693          	slli	a3,s3,0x4
    3374:	fa950713          	addi	a4,a0,-87
    3378:	b5d5                	j	325c <stream_vscanf+0x36c>
    337a:	47d2                	lw	a5,20(sp)
    337c:	cc078be3          	beqz	a5,3052 <stream_vscanf+0x162>
    3380:	47f2                	lw	a5,28(sp)
    3382:	c399                	beqz	a5,3388 <stream_vscanf+0x498>
    3384:	413009b3          	neg	s3,s3
    3388:	47d2                	lw	a5,20(sp)
    338a:	000b1c63          	bnez	s6,33a2 <stream_vscanf+0x4b2>
    338e:	01379023          	sh	s3,0(a5)
    3392:	47b2                	lw	a5,12(sp)
    3394:	0785                	addi	a5,a5,1
    3396:	c63e                	sw	a5,12(sp)
    3398:	b96d                	j	3052 <stream_vscanf+0x162>
    339a:	c822                	sw	s0,16(sp)
    339c:	00168413          	addi	s0,a3,1
    33a0:	bb09                	j	30b2 <stream_vscanf+0x1c2>
    33a2:	0137a023          	sw	s3,0(a5)
    33a6:	b7f5                	j	3392 <stream_vscanf+0x4a2>
    33a8:	00499693          	slli	a3,s3,0x4
    33ac:	bd45                	j	325c <stream_vscanf+0x36c>
    33ae:	0000                	unimp
    33b0:	6572                	.2byte	0x6572
    33b2:	20746573          	csrrsi	a0,0x207,8
    33b6:	6425                	lui	s0,0x9
    33b8:	0a0d                	addi	s4,s4,3
    33ba:	0000                	unimp
    33bc:	72617473          	csrrci	s0,mhpmevent6h,2
    33c0:	6974                	.2byte	0x6974
    33c2:	676e                	.2byte	0x676e
    33c4:	7420                	.2byte	0x7420
    33c6:	6568                	.2byte	0x6568
    33c8:	7220                	.2byte	0x7220
    33ca:	7365                	lui	t1,0xffff9
    33cc:	7465                	lui	s0,0xffff9
    33ce:	0a0d                	addi	s4,s4,3
    33d0:	0000                	unimp
    33d2:	0000                	unimp
    33d4:	5055                	c.li	zero,-11
    33d6:	4f4c                	lw	a1,28(a4)
    33d8:	4441                	li	s0,16
    33da:	000a0d53          	.4byte	0xa0d53
    33de:	0000                	unimp
    33e0:	706d6f43          	.4byte	0x706d6f43
    33e4:	656c                	.2byte	0x656c
    33e6:	6574                	.2byte	0x6574
    33e8:	2064                	.2byte	0x2064
    33ea:	6874                	.2byte	0x6874
    33ec:	2065                	jal	3494 <stream_vscanf+0x5a4>
    33ee:	6572                	.2byte	0x6572
    33f0:	0d746573          	csrrsi	a0,0xd7,8
    33f4:	000a                	c.slli	zero,0x2
    33f6:	0000                	unimp
    33f8:	6d305b1b          	.4byte	0x6d305b1b
    33fc:	0000                	unimp
    33fe:	0000                	unimp
    3400:	4952                	lw	s2,20(sp)
    3402:	4d204353          	.4byte	0x4d204353
    3406:	5550                	lw	a2,44(a0)
    3408:	5320                	lw	s0,96(a4)
    340a:	6174                	.2byte	0x6174
    340c:	7472                	.2byte	0x7472
    340e:	7075                	c.lui	zero,0xffffd
    3410:	6320                	.2byte	0x6320
    3412:	0d65726f          	jal	tp,5a4e8 <__ram_end+0x4a4e8>
    3416:	000a                	c.slli	zero,0x2
    3418:	61657243          	.4byte	0x61657243
    341c:	6574                	.2byte	0x6574
    341e:	2064                	.2byte	0x2064
    3420:	7942                	.2byte	0x7942
    3422:	4d20                	lw	s0,88(a0)
    3424:	7a61                	lui	s4,0xffff8
    3426:	6d61                	lui	s10,0x18
    3428:	7261                	lui	tp,0xffff8
    342a:	32313373          	csrrc	t1,mhpmevent3,sp
    342e:	0a0d                	addi	s4,s4,3 # ffff8003 <__ram_end+0xfffe8003>
    3430:	0000                	unimp
    3432:	0000                	unimp
    3434:	614d                	addi	sp,sp,176
    3436:	6920656b          	.4byte	0x6920656b
    343a:	206e                	.2byte	0x206e
    343c:	3032                	.2byte	0x3032
    343e:	3232                	.2byte	0x3232
    3440:	0a0d                	addi	s4,s4,3
    3442:	0000                	unimp
    3444:	2049                	jal	34c6 <stream_vscanf+0x5d6>
    3446:	6168                	.2byte	0x6168
    3448:	6574                	.2byte	0x6574
    344a:	7420                	.2byte	0x7420
    344c:	6968                	.2byte	0x6968
    344e:	65642073          	csrs	0x656,s0
    3452:	7562                	.2byte	0x7562
    3454:	72656767          	.4byte	0x72656767
    3458:	4c20                	lw	s0,88(s0)
    345a:	0a0d4c4f          	.4byte	0xa0d4c4f
    345e:	0000                	unimp
    3460:	6261                	lui	tp,0x18
    3462:	2074756f          	jal	a0,4ae68 <__ram_end+0x3ae68>
    3466:	6f74                	.2byte	0x6f74
    3468:	6720                	.2byte	0x6720
    346a:	6e69206f          	j	95b50 <__ram_end+0x85b50>
    346e:	6220                	.2byte	0x6220
    3470:	6261                	lui	tp,0x18
    3472:	0d79                	addi	s10,s10,30 # 1801e <__ram_end+0x801e>
    3474:	000a                	c.slli	zero,0x2
    3476:	0000                	unimp
    3478:	6144                	.2byte	0x6144
    347a:	6174                	.2byte	0x6174
    347c:	5320                	lw	s0,96(a4)
    347e:	6f6c                	.2byte	0x6f6c
    3480:	2074                	.2byte	0x2074
    3482:	7055                	c.lui	zero,0xffff5
    3484:	6164                	.2byte	0x6164
    3486:	6574                	.2byte	0x6574
    3488:	0a0d                	addi	s4,s4,3
    348a:	0000                	unimp
    348c:	6144                	.2byte	0x6144
    348e:	6174                	.2byte	0x6174
    3490:	5320                	lw	s0,96(a4)
    3492:	6f6c                	.2byte	0x6f6c
    3494:	2074                	.2byte	0x2074
    3496:	6f64                	.2byte	0x6f64
    3498:	656e                	.2byte	0x656e
    349a:	0a0d                	addi	s4,s4,3
    349c:	0000                	unimp
    349e:	0000                	unimp
    34a0:	38335b1b          	.4byte	0x38335b1b
    34a4:	353b313b          	.4byte	0x353b313b
    34a8:	63656843          	.4byte	0x63656843
    34ac:	6f63206b          	.4byte	0x6f63206b
    34b0:	6564                	.2byte	0x6564
    34b2:	30252073          	csrs	medeleg,a0
    34b6:	342e                	.2byte	0x342e
    34b8:	1b58                	addi	a4,sp,436
    34ba:	0d6d305b          	.4byte	0xd6d305b
    34be:	000a                	c.slli	zero,0x2
    34c0:	5041                	c.li	zero,-16
    34c2:	2046                	.2byte	0x2046
    34c4:	6572                	.2byte	0x6572
    34c6:	6461                	lui	s0,0x18
    34c8:	203a                	.2byte	0x203a
    34ca:	6425                	lui	s0,0x9
    34cc:	202c                	.2byte	0x202c
    34ce:	3025                	jal	2cf6 <riscprintf_+0x542>
    34d0:	342e                	.2byte	0x342e
    34d2:	2c78                	.2byte	0x2c78
    34d4:	2520                	.2byte	0x2520
    34d6:	2e30                	.2byte	0x2e30
    34d8:	7834                	.2byte	0x7834
    34da:	202c                	.2byte	0x202c
    34dc:	6425                	lui	s0,0x9
    34de:	0a0d                	addi	s4,s4,3
    34e0:	0000                	unimp
    34e2:	0000                	unimp
    34e4:	36335b1b          	.4byte	0x36335b1b
    34e8:	343b353b          	.4byte	0x343b353b
    34ec:	416d                	li	sp,27
    34ee:	4650                	lw	a2,12(a2)
    34f0:	4620                	lw	s0,72(a2)
    34f2:	4941                	li	s2,16
    34f4:	444c                	lw	a1,12(s0)
    34f6:	6420                	.2byte	0x6420
    34f8:	7461                	lui	s0,0xffff8
    34fa:	7361                	lui	t1,0xffff8
    34fc:	6f6c                	.2byte	0x6f6c
    34fe:	5f74                	lw	a3,124(a4)
    3500:	6572                	.2byte	0x6572
    3502:	6461                	lui	s0,0x18
    3504:	6320                	.2byte	0x6320
    3506:	6568                	.2byte	0x6568
    3508:	203f6b63          	bltu	t5,gp,371e <stream_vscanf+0x82e>
    350c:	6164                	.2byte	0x6164
    350e:	6174                	.2byte	0x6174
    3510:	746f6c73          	csrrsi	s8,0x746,30
    3514:	2520                	.2byte	0x2520
    3516:	2c64                	.2byte	0x2c64
    3518:	6120                	.2byte	0x6120
    351a:	6464                	.2byte	0x6464
    351c:	6572                	.2byte	0x6572
    351e:	25207373          	csrrci	t1,0x252,0
    3522:	2e30                	.2byte	0x2e30
    3524:	5834                	lw	a3,112(s0)
    3526:	202c                	.2byte	0x202c
    3528:	7366666f          	jal	a2,69c5e <__ram_end+0x59c5e>
    352c:	7465                	lui	s0,0xffff9
    352e:	3025                	jal	2d56 <riscprintf_+0x5a2>
    3530:	342e                	.2byte	0x342e
    3532:	2c58                	.2byte	0x2c58
    3534:	6c20                	.2byte	0x6c20
    3536:	6e65                	lui	t3,0x19
    3538:	25687467          	.4byte	0x25687467
    353c:	2e30                	.2byte	0x2e30
    353e:	5834                	lw	a3,112(s0)
    3540:	6d305b1b          	.4byte	0x6d305b1b
    3544:	0a0d                	addi	s4,s4,3
    3546:	0000                	unimp
    3548:	36335b1b          	.4byte	0x36335b1b
    354c:	343b353b          	.4byte	0x343b353b
    3550:	416d                	li	sp,27
    3552:	4650                	lw	a2,12(a2)
    3554:	4620                	lw	s0,72(a2)
    3556:	4941                	li	s2,16
    3558:	444c                	lw	a1,12(s0)
    355a:	6420                	.2byte	0x6420
    355c:	7461                	lui	s0,0xffff8
    355e:	7361                	lui	t1,0xffff8
    3560:	6f6c                	.2byte	0x6f6c
    3562:	5f74                	lw	a3,124(a4)
    3564:	6572                	.2byte	0x6572
    3566:	6461                	lui	s0,0x18
    3568:	6420                	.2byte	0x6420
    356a:	3f656e6f          	jal	t3,59960 <__ram_end+0x49960>
    356e:	6420                	.2byte	0x6420
    3570:	7461                	lui	s0,0xffff8
    3572:	7361                	lui	t1,0xffff8
    3574:	6f6c                	.2byte	0x6f6c
    3576:	2074                	.2byte	0x2074
    3578:	6425                	lui	s0,0x9
    357a:	202c                	.2byte	0x202c
    357c:	6461                	lui	s0,0x18
    357e:	7264                	.2byte	0x7264
    3580:	7365                	lui	t1,0xffff9
    3582:	30252073          	csrs	medeleg,a0
    3586:	342e                	.2byte	0x342e
    3588:	2c58                	.2byte	0x2c58
    358a:	6f20                	.2byte	0x6f20
    358c:	6666                	.2byte	0x6666
    358e:	20746573          	csrrsi	a0,0x207,8
    3592:	3025                	jal	2dba <_Z14RISCCheckTimerm+0xc>
    3594:	342e                	.2byte	0x342e
    3596:	2c58                	.2byte	0x2c58
    3598:	6c20                	.2byte	0x6c20
    359a:	6e65                	lui	t3,0x19
    359c:	20687467          	.4byte	0x20687467
    35a0:	3025                	jal	2dc8 <_Z14RISCCheckTimerm+0x1a>
    35a2:	342e                	.2byte	0x342e
    35a4:	2058                	.2byte	0x2058
    35a6:	7265                	lui	tp,0xffff9
    35a8:	6f72                	.2byte	0x6f72
    35aa:	2072                	.2byte	0x2072
    35ac:	3025                	jal	2dd4 <_Z11ResetTimer2v+0x8>
    35ae:	342e                	.2byte	0x342e
    35b0:	1b58                	addi	a4,sp,436
    35b2:	0d6d305b          	.4byte	0xd6d305b
    35b6:	000a                	c.slli	zero,0x2
    35b8:	38335b1b          	.4byte	0x38335b1b
    35bc:	353b313b          	.4byte	0x353b313b
    35c0:	646d                	lui	s0,0x1b
    35c2:	1b656e6f          	jal	t3,59778 <__ram_end+0x49778>
    35c6:	0d6d305b          	.4byte	0xd6d305b
    35ca:	000a                	c.slli	zero,0x2
    35cc:	36335b1b          	.4byte	0x36335b1b
    35d0:	343b353b          	.4byte	0x343b353b
    35d4:	416d                	li	sp,27
    35d6:	4650                	lw	a2,12(a2)
    35d8:	4620                	lw	s0,72(a2)
    35da:	4941                	li	s2,16
    35dc:	444c                	lw	a1,12(s0)
    35de:	7220                	.2byte	0x7220
    35e0:	6165                	addi	sp,sp,112
    35e2:	5f64                	lw	s1,124(a4)
    35e4:	626c                	.2byte	0x626c
    35e6:	3f61                	jal	357e <stream_vscanf+0x68e>
    35e8:	6c20                	.2byte	0x6c20
    35ea:	6e65                	lui	t3,0x19
    35ec:	20687467          	.4byte	0x20687467
    35f0:	3025                	jal	2e18 <memcpy+0x3a>
    35f2:	342e                	.2byte	0x342e
    35f4:	1b58                	addi	a4,sp,436
    35f6:	0d6d305b          	.4byte	0xd6d305b
    35fa:	000a                	c.slli	zero,0x2
    35fc:	7325                	lui	t1,0xfffe9
    35fe:	0a0d                	addi	s4,s4,3
    3600:	0000                	unimp
    3602:	0000                	unimp
    3604:	4946                	lw	s2,80(sp)
    3606:	454c                	lw	a1,12(a0)
    3608:	0000                	unimp
    360a:	0000                	unimp
    360c:	772e                	.2byte	0x772e
    360e:	7661                	lui	a2,0xffff8
    3610:	0000                	unimp
    3612:	0000                	unimp
    3614:	4942                	lw	s2,16(sp)
    3616:	414e                	lw	sp,208(sp)
    3618:	5952                	lw	s2,52(sp)
    361a:	0000                	unimp
    361c:	4f4d                	li	t5,19
    361e:	4f54                	lw	a3,28(a4)
    3620:	4f52                	lw	t5,20(sp)
    3622:	414c                	lw	a1,4(a0)
    3624:	0000                	unimp
    3626:	0000                	unimp
    3628:	45564157          	.4byte	0x45564157
    362c:	0000                	unimp
    362e:	0000                	unimp
    3630:	5254                	lw	a3,36(a2)
    3632:	4341                	li	t1,16
    3634:	6425204b          	.4byte	0x6425204b
    3638:	2520                	.2byte	0x2520
    363a:	732a                	.2byte	0x732a
    363c:	0000                	unimp
    363e:	0000                	unimp
    3640:	5250                	lw	a2,36(a2)
    3642:	4745                	li	a4,17
    3644:	5041                	c.li	zero,-16
    3646:	2520                	.2byte	0x2520
    3648:	3230                	.2byte	0x3230
    364a:	3a64                	.2byte	0x3a64
    364c:	3025                	jal	2e74 <buf_peekchar>
    364e:	6432                	.2byte	0x6432
    3650:	253a                	.2byte	0x253a
    3652:	3230                	.2byte	0x3230
    3654:	0064                	addi	s1,sp,12
    3656:	0000                	unimp
    3658:	4f4d                	li	t5,19
    365a:	4544                	lw	s1,12(a0)
    365c:	2f31                	jal	3d78 <cue+0x298>
    365e:	3032                	.2byte	0x3032
    3660:	3834                	.2byte	0x3834
    3662:	0000                	unimp
    3664:	4f4d                	li	t5,19
    3666:	4544                	lw	s1,12(a0)
    3668:	2f31                	jal	3d84 <cue+0x2a4>
    366a:	3332                	.2byte	0x3332
    366c:	3235                	jal	2f98 <stream_vscanf+0xa8>
    366e:	0000                	unimp
    3670:	5541                	li	a0,-16
    3672:	4944                	lw	s1,20(a0)
    3674:	0000004f          	.4byte	0x4f
    3678:	4e49                	li	t3,18
    367a:	4544                	lw	s1,12(a0)
    367c:	2058                	.2byte	0x2058
    367e:	3030                	.2byte	0x3030
    3680:	2520                	.2byte	0x2520
    3682:	3230                	.2byte	0x3230
    3684:	3a64                	.2byte	0x3a64
    3686:	3025                	jal	2eae <stropen+0x4>
    3688:	6432                	.2byte	0x6432
    368a:	253a                	.2byte	0x253a
    368c:	3230                	.2byte	0x3230
    368e:	0064                	addi	s1,sp,12
    3690:	4e49                	li	t3,18
    3692:	4544                	lw	s1,12(a0)
    3694:	2058                	.2byte	0x2058
    3696:	2030                	.2byte	0x2030
    3698:	3025                	jal	2ec0 <strstr+0x8>
    369a:	6432                	.2byte	0x6432
    369c:	253a                	.2byte	0x253a
    369e:	3230                	.2byte	0x3230
    36a0:	3a64                	.2byte	0x3a64
    36a2:	3025                	jal	2eca <strstr+0x12>
    36a4:	6432                	.2byte	0x6432
    36a6:	0000                	unimp
    36a8:	4e49                	li	t3,18
    36aa:	4544                	lw	s1,12(a0)
    36ac:	2058                	.2byte	0x2058
    36ae:	3130                	.2byte	0x3130
    36b0:	2520                	.2byte	0x2520
    36b2:	3230                	.2byte	0x3230
    36b4:	3a64                	.2byte	0x3a64
    36b6:	3025                	jal	2ede <strstr+0x26>
    36b8:	6432                	.2byte	0x6432
    36ba:	253a                	.2byte	0x253a
    36bc:	3230                	.2byte	0x3230
    36be:	0064                	addi	s1,sp,12
    36c0:	4e49                	li	t3,18
    36c2:	4544                	lw	s1,12(a0)
    36c4:	2058                	.2byte	0x2058
    36c6:	2031                	jal	36d2 <stream_vscanf+0x7e2>
    36c8:	3025                	jal	2ef0 <stream_vscanf>
    36ca:	6432                	.2byte	0x6432
    36cc:	253a                	.2byte	0x253a
    36ce:	3230                	.2byte	0x3230
    36d0:	3a64                	.2byte	0x3a64
    36d2:	3025                	jal	2efa <stream_vscanf+0xa>
    36d4:	6432                	.2byte	0x6432
    36d6:	0000                	unimp
    36d8:	6f66                	.2byte	0x6f66
    36da:	3025206f          	j	559dc <__ram_end+0x459dc>
    36de:	342e                	.2byte	0x342e
    36e0:	2078                	.2byte	0x2078
    36e2:	20746e63          	bltu	s0,t2,38fe <stream_vscanf+0xa0e>
    36e6:	3025                	jal	2f0e <stream_vscanf+0x1e>
    36e8:	342e                	.2byte	0x342e
    36ea:	2c78                	.2byte	0x2c78
    36ec:	2520                	.2byte	0x2520
    36ee:	2e30                	.2byte	0x2e30
    36f0:	7834                	.2byte	0x7834
    36f2:	0d20                	addi	s0,sp,664
    36f4:	000a                	c.slli	zero,0x2
    36f6:	0000                	unimp
    36f8:	6144                	.2byte	0x6144
    36fa:	6174                	.2byte	0x6174
    36fc:	746f6c73          	csrrsi	s8,0x746,30
    3700:	3020                	.2byte	0x3020
    3702:	2520                	.2byte	0x2520
    3704:	2064                	.2byte	0x2064
    3706:	6425                	lui	s0,0x9
    3708:	0d20                	addi	s0,sp,664
    370a:	000a                	c.slli	zero,0x2
    370c:	6144                	.2byte	0x6144
    370e:	6174                	.2byte	0x6174
    3710:	746f6c73          	csrrsi	s8,0x746,30
    3714:	3120                	.2byte	0x3120
    3716:	2520                	.2byte	0x2520
    3718:	2064                	.2byte	0x2064
    371a:	6425                	lui	s0,0x9
    371c:	0d20                	addi	s0,sp,664
    371e:	000a                	c.slli	zero,0x2
    3720:	6144                	.2byte	0x6144
    3722:	6174                	.2byte	0x6174
    3724:	746f6c73          	csrrsi	s8,0x746,30
    3728:	3220                	.2byte	0x3220
    372a:	2520                	.2byte	0x2520
    372c:	2064                	.2byte	0x2064
    372e:	6425                	lui	s0,0x9
    3730:	0d20                	addi	s0,sp,664
    3732:	000a                	c.slli	zero,0x2
    3734:	6144                	.2byte	0x6144
    3736:	6174                	.2byte	0x6174
    3738:	746f6c73          	csrrsi	s8,0x746,30
    373c:	3320                	.2byte	0x3320
    373e:	2520                	.2byte	0x2520
    3740:	2064                	.2byte	0x2064
    3742:	6425                	lui	s0,0x9
    3744:	0d20                	addi	s0,sp,664
    3746:	000a                	c.slli	zero,0x2
    3748:	6144                	.2byte	0x6144
    374a:	6174                	.2byte	0x6174
    374c:	746f6c73          	csrrsi	s8,0x746,30
    3750:	3920                	.2byte	0x3920
    3752:	2039                	jal	3760 <stream_vscanf+0x870>
    3754:	6425                	lui	s0,0x9
    3756:	2520                	.2byte	0x2520
    3758:	2064                	.2byte	0x2064
    375a:	0a0d                	addi	s4,s4,3
    375c:	0000                	unimp
    375e:	0000                	unimp
    3760:	6144                	.2byte	0x6144
    3762:	6174                	.2byte	0x6174
    3764:	746f6c73          	csrrsi	s8,0x746,30
    3768:	3120                	.2byte	0x3120
    376a:	3130                	.2byte	0x3130
    376c:	2520                	.2byte	0x2520
    376e:	2064                	.2byte	0x2064
    3770:	6425                	lui	s0,0x9
    3772:	0d20                	addi	s0,sp,664
    3774:	000a                	c.slli	zero,0x2
    3776:	0000                	unimp
    3778:	32335b1b          	.4byte	0x32335b1b
    377c:	506d                	c.li	zero,-5
    377e:	44434543          	.4byte	0x44434543
    3782:	203a                	.2byte	0x203a
    3784:	7254                	.2byte	0x7254
    3786:	6361                	lui	t1,0x18
    3788:	203d206b          	.4byte	0x203d206b
    378c:	7525                	lui	a0,0xfffe9
    378e:	202c                	.2byte	0x202c
    3790:	72617473          	csrrci	s0,mhpmevent6h,2
    3794:	2074                	.2byte	0x2074
    3796:	203d                	jal	37c4 <stream_vscanf+0x8d4>
    3798:	7525                	lui	a0,0xfffe9
    379a:	202c                	.2byte	0x202c
    379c:	6e65                	lui	t3,0x19
    379e:	2064                	.2byte	0x2064
    37a0:	203d                	jal	37ce <stream_vscanf+0x8de>
    37a2:	7525                	lui	a0,0xfffe9
    37a4:	202c                	.2byte	0x202c
    37a6:	7366666f          	jal	a2,69edc <__ram_end+0x59edc>
    37aa:	7465                	lui	s0,0xffff9
    37ac:	3d20                	.2byte	0x3d20
    37ae:	2520                	.2byte	0x2520
    37b0:	2c64                	.2byte	0x2c64
    37b2:	7320                	.2byte	0x7320
    37b4:	6365                	lui	t1,0x19
    37b6:	6f74                	.2byte	0x6f74
    37b8:	5f72                	lw	t5,60(sp)
    37ba:	657a6973          	csrrsi	s2,0x657,20
    37be:	253d                	jal	3dec <cue+0x30c>
    37c0:	2c64                	.2byte	0x2c64
    37c2:	7420                	.2byte	0x7420
    37c4:	7079                	c.lui	zero,0xffffe
    37c6:	2065                	jal	386e <stream_vscanf+0x97e>
    37c8:	203d                	jal	37f6 <stream_vscanf+0x906>
    37ca:	7525                	lui	a0,0xfffe9
    37cc:	202c                	.2byte	0x202c
    37ce:	6164                	.2byte	0x6164
    37d0:	6174                	.2byte	0x6174
    37d2:	746f6c73          	csrrsi	s8,0x746,30
    37d6:	3d20                	.2byte	0x3d20
    37d8:	2520                	.2byte	0x2520
    37da:	0d75                	addi	s10,s10,29
    37dc:	1b0a                	slli	s6,s6,0x22
    37de:	006d305b          	.4byte	0x6d305b
    37e2:	0000                	unimp
    37e4:	16ec                	addi	a1,sp,876
    37e6:	0000                	unimp
    37e8:	1782                	slli	a5,a5,0x20
    37ea:	0000                	unimp
    37ec:	17c4                	addi	s1,sp,996
    37ee:	0000                	unimp
    37f0:	16ca                	slli	a3,a3,0x32
    37f2:	0000                	unimp
    37f4:	16ca                	slli	a3,a3,0x32
    37f6:	0000                	unimp
    37f8:	17d6                	slli	a5,a5,0x35
    37fa:	0000                	unimp
    37fc:	168a                	slli	a3,a3,0x22
    37fe:	0000                	unimp
    3800:	7246                	.2byte	0x7246
    3802:	73206d6f          	jal	s10,9f34 <sector_buffer0+0x1f34>
    3806:	6365                	lui	t1,0x19
    3808:	6f74                	.2byte	0x6f74
    380a:	2072                	.2byte	0x2072
    380c:	6425                	lui	s0,0x9
    380e:	7420                	.2byte	0x7420
    3810:	6573206f          	j	36666 <__ram_end+0x26666>
    3814:	726f7463          	bgeu	t5,t1,3f3c <cue+0x45c>
    3818:	2520                	.2byte	0x2520
    381a:	3a64                	.2byte	0x3a64
    381c:	000a                	c.slli	zero,0x2
    381e:	0000                	unimp
    3820:	6954                	.2byte	0x6954
    3822:	656d                	lui	a0,0x1b
    3824:	3d20                	.2byte	0x3d20
    3826:	2520                	.2byte	0x2520
    3828:	2064                	.2byte	0x2064
    382a:	696d                	lui	s2,0x1b
    382c:	6c6c                	.2byte	0x6c6c
    382e:	7369                	lui	t1,0xffffa
    3830:	6365                	lui	t1,0x19
    3832:	73646e6f          	jal	t3,49f68 <__ram_end+0x39f68>
    3836:	000a                	c.slli	zero,0x2
    3838:	2049                	jal	38ba <stream_vscanf+0x9ca>
    383a:	70617263          	bgeu	sp,t1,3f3e <cue+0x45e>
    383e:	6570                	.2byte	0x6570
    3840:	2064                	.2byte	0x2064
    3842:	796d                	lui	s2,0xffffb
    3844:	666c6573          	csrrsi	a0,0x666,24
    3848:	0000                	unimp
    384a:	0000                	unimp
    384c:	293e                	.2byte	0x293e
    384e:	0000                	unimp
    3850:	2842                	.2byte	0x2842
    3852:	0000                	unimp
    3854:	2842                	.2byte	0x2842
    3856:	0000                	unimp
    3858:	2936                	.2byte	0x2936
    385a:	0000                	unimp
    385c:	2842                	.2byte	0x2842
    385e:	0000                	unimp
    3860:	2842                	.2byte	0x2842
    3862:	0000                	unimp
    3864:	2842                	.2byte	0x2842
    3866:	0000                	unimp
    3868:	2842                	.2byte	0x2842
    386a:	0000                	unimp
    386c:	2842                	.2byte	0x2842
    386e:	0000                	unimp
    3870:	2842                	.2byte	0x2842
    3872:	0000                	unimp
    3874:	2842                	.2byte	0x2842
    3876:	0000                	unimp
    3878:	292e                	.2byte	0x292e
    387a:	0000                	unimp
    387c:	2842                	.2byte	0x2842
    387e:	0000                	unimp
    3880:	2926                	.2byte	0x2926
    3882:	0000                	unimp
    3884:	2842                	.2byte	0x2842
    3886:	0000                	unimp
    3888:	2842                	.2byte	0x2842
    388a:	0000                	unimp
    388c:	291e                	.2byte	0x291e
    388e:	0000                	unimp
    3890:	30b2                	.2byte	0x30b2
    3892:	0000                	unimp
    3894:	3052                	.2byte	0x3052
    3896:	0000                	unimp
    3898:	3052                	.2byte	0x3052
    389a:	0000                	unimp
    389c:	3052                	.2byte	0x3052
    389e:	0000                	unimp
    38a0:	3052                	.2byte	0x3052
    38a2:	0000                	unimp
    38a4:	3052                	.2byte	0x3052
    38a6:	0000                	unimp
    38a8:	3052                	.2byte	0x3052
    38aa:	0000                	unimp
    38ac:	3052                	.2byte	0x3052
    38ae:	0000                	unimp
    38b0:	32ae                	.2byte	0x32ae
    38b2:	0000                	unimp
    38b4:	3316                	.2byte	0x3316
    38b6:	0000                	unimp
    38b8:	3052                	.2byte	0x3052
    38ba:	0000                	unimp
    38bc:	3052                	.2byte	0x3052
    38be:	0000                	unimp
    38c0:	3052                	.2byte	0x3052
    38c2:	0000                	unimp
    38c4:	3052                	.2byte	0x3052
    38c6:	0000                	unimp
    38c8:	3052                	.2byte	0x3052
    38ca:	0000                	unimp
    38cc:	3052                	.2byte	0x3052
    38ce:	0000                	unimp
    38d0:	3052                	.2byte	0x3052
    38d2:	0000                	unimp
    38d4:	3052                	.2byte	0x3052
    38d6:	0000                	unimp
    38d8:	3052                	.2byte	0x3052
    38da:	0000                	unimp
    38dc:	3052                	.2byte	0x3052
    38de:	0000                	unimp
    38e0:	3312                	.2byte	0x3312
    38e2:	0000                	unimp
    38e4:	3052                	.2byte	0x3052
    38e6:	0000                	unimp
    38e8:	3052                	.2byte	0x3052
    38ea:	0000                	unimp
    38ec:	3052                	.2byte	0x3052
    38ee:	0000                	unimp
    38f0:	30b2                	.2byte	0x30b2
    38f2:	0000                	unimp
    38f4:	3052                	.2byte	0x3052
    38f6:	0000                	unimp
    38f8:	3052                	.2byte	0x3052
    38fa:	0000                	unimp
    38fc:	3052                	.2byte	0x3052
    38fe:	0000                	unimp
    3900:	3052                	.2byte	0x3052
    3902:	0000                	unimp
    3904:	31d8                	.2byte	0x31d8
	...
