
build.riscv.pce_mpu_bios/pce_mpu_bios:     file format elf32-littleriscv


Disassembly of section .text:

00000000 <boot_vector>:
       0:	01c0006f          	j	1c <boot_vector2>
       4:	0000                	unimp
	...

00000008 <ipc_vector>:
	...
      10:	1300006f          	j	140 <isr_vector>

00000014 <ipc_request>:
      14:	0000                	unimp
	...

00000018 <ipc_frame>:
      18:	0000                	unimp
	...

0000001c <boot_vector2>:
      1c:	aad9                	j	1f2 <start>
	...

0000003c <arg_argc>:
      3c:	00000000          	.word	0x00000000

00000040 <arg_argv>:
	...

00000140 <isr_vector>:
     140:	f7410113          	add	sp,sp,-140
     144:	c57e                	sw	t6,136(sp)
     146:	c37a                	sw	t5,132(sp)
     148:	c176                	sw	t4,128(sp)
     14a:	def2                	sw	t3,124(sp)
     14c:	dcee                	sw	s11,120(sp)
     14e:	daea                	sw	s10,116(sp)
     150:	d8e6                	sw	s9,112(sp)
     152:	d6e2                	sw	s8,108(sp)
     154:	d4de                	sw	s7,104(sp)
     156:	d2da                	sw	s6,100(sp)
     158:	d0d6                	sw	s5,96(sp)
     15a:	ced2                	sw	s4,92(sp)
     15c:	ccce                	sw	s3,88(sp)
     15e:	caca                	sw	s2,84(sp)
     160:	c8c6                	sw	a7,80(sp)
     162:	c6c2                	sw	a6,76(sp)
     164:	c4be                	sw	a5,72(sp)
     166:	c2ba                	sw	a4,68(sp)
     168:	c0b6                	sw	a3,64(sp)
     16a:	de32                	sw	a2,60(sp)
     16c:	dc2e                	sw	a1,56(sp)
     16e:	da2a                	sw	a0,52(sp)
     170:	d826                	sw	s1,48(sp)
     172:	d622                	sw	s0,44(sp)
     174:	d41e                	sw	t2,40(sp)
     176:	d21a                	sw	t1,36(sp)
     178:	d016                	sw	t0,32(sp)
     17a:	ce12                	sw	tp,28(sp)
     17c:	cc0e                	sw	gp,24(sp)
     17e:	ca0a                	sw	sp,20(sp)
     180:	c806                	sw	ra,16(sp)
     182:	34202473          	csrr	s0,mcause
     186:	c422                	sw	s0,8(sp)
     188:	30002473          	csrr	s0,mstatus
     18c:	c222                	sw	s0,4(sp)
     18e:	34102473          	csrr	s0,mepc
     192:	c022                	sw	s0,0(sp)
     194:	850a                	mv	a0,sp
     196:	228030ef          	jal	33be <_handle_trap>

0000019a <exception_return>:
     19a:	812a                	mv	sp,a0
     19c:	4402                	lw	s0,0(sp)
     19e:	34141073          	csrw	mepc,s0
     1a2:	4412                	lw	s0,4(sp)
     1a4:	30041073          	csrw	mstatus,s0
     1a8:	40c2                	lw	ra,16(sp)
     1aa:	41e2                	lw	gp,24(sp)
     1ac:	4272                	lw	tp,28(sp)
     1ae:	5282                	lw	t0,32(sp)
     1b0:	5312                	lw	t1,36(sp)
     1b2:	53a2                	lw	t2,40(sp)
     1b4:	5432                	lw	s0,44(sp)
     1b6:	54c2                	lw	s1,48(sp)
     1b8:	5552                	lw	a0,52(sp)
     1ba:	55e2                	lw	a1,56(sp)
     1bc:	5672                	lw	a2,60(sp)
     1be:	4686                	lw	a3,64(sp)
     1c0:	4716                	lw	a4,68(sp)
     1c2:	47a6                	lw	a5,72(sp)
     1c4:	4836                	lw	a6,76(sp)
     1c6:	48c6                	lw	a7,80(sp)
     1c8:	4956                	lw	s2,84(sp)
     1ca:	49e6                	lw	s3,88(sp)
     1cc:	4a76                	lw	s4,92(sp)
     1ce:	5a86                	lw	s5,96(sp)
     1d0:	5b16                	lw	s6,100(sp)
     1d2:	5ba6                	lw	s7,104(sp)
     1d4:	5c36                	lw	s8,108(sp)
     1d6:	5cc6                	lw	s9,112(sp)
     1d8:	5d56                	lw	s10,116(sp)
     1da:	5de6                	lw	s11,120(sp)
     1dc:	5e76                	lw	t3,124(sp)
     1de:	4e8a                	lw	t4,128(sp)
     1e0:	4f1a                	lw	t5,132(sp)
     1e2:	4faa                	lw	t6,136(sp)
     1e4:	08c10113          	add	sp,sp,140
     1e8:	30200073          	mret

000001ec <exception_syscall>:
     1ec:	00000073          	ecall
     1f0:	8082                	ret

000001f2 <start>:
     1f2:	0000b137          	lui	sp,0xb
     1f6:	9b010113          	add	sp,sp,-1616 # a9b0 <_sp>
     1fa:	14000293          	li	t0,320
     1fe:	30529073          	csrw	mtvec,t0
     202:	6299                	lui	t0,0x6
     204:	f2828293          	add	t0,t0,-216 # 5f28 <data>
     208:	632d                	lui	t1,0xb
     20a:	9c030313          	add	t1,t1,-1600 # a9c0 <_end>

0000020e <bss_clear>:
     20e:	0002a023          	sw	zero,0(t0)
     212:	0291                	add	t0,t0,4
     214:	fe62cde3          	blt	t0,t1,20e <bss_clear>
     218:	00000517          	auipc	a0,0x0
     21c:	e2450513          	add	a0,a0,-476 # 3c <arg_argc>
     220:	4108                	lw	a0,0(a0)
     222:	00000597          	auipc	a1,0x0
     226:	e1e58593          	add	a1,a1,-482 # 40 <arg_argv>
     22a:	218000ef          	jal	442 <main>
     22e:	2009                	jal	230 <_exit>

00000230 <_exit>:
     230:	0ff57513          	zext.b	a0,a0
     234:	7b251073          	csrw	dscratch0,a0

00000238 <_exit_loop>:
     238:	2001                	jal	238 <_exit_loop>

0000023a <_Z10core_reseti>:
     23a:	85aa                	mv	a1,a0
     23c:	faa02223          	sw	a0,-92(zero) # ffffffa4 <_end+0xffff55e4>
     240:	6515                	lui	a0,0x5
     242:	b1850513          	add	a0,a0,-1256 # 4b18 <stream_vscanf+0x4dc>
     246:	5d40306f          	j	381a <riscprintf_>

0000024a <_Z15full_core_resetv>:
     24a:	6515                	lui	a0,0x5
     24c:	1141                	add	sp,sp,-16
     24e:	b2450513          	add	a0,a0,-1244 # 4b24 <stream_vscanf+0x4e8>
     252:	c606                	sw	ra,12(sp)
     254:	c422                	sw	s0,8(sp)
     256:	c226                	sw	s1,4(sp)
     258:	6415                	lui	s0,0x5
     25a:	5c0030ef          	jal	381a <riscprintf_>
     25e:	fa400493          	li	s1,-92
     262:	4581                	li	a1,0
     264:	0004a023          	sw	zero,0(s1)
     268:	b1840513          	add	a0,s0,-1256 # 4b18 <stream_vscanf+0x4dc>
     26c:	5ae030ef          	jal	381a <riscprintf_>
     270:	0c800513          	li	a0,200
     274:	36b030ef          	jal	3dde <_Z10riscusleepi>
     278:	6531                	lui	a0,0xc
     27a:	35050513          	add	a0,a0,848 # c350 <_end+0x1990>
     27e:	f0002023          	sw	zero,-256(zero) # ffffff00 <_end+0xffff5540>
     282:	35d030ef          	jal	3dde <_Z10riscusleepi>
     286:	4785                	li	a5,1
     288:	c09c                	sw	a5,0(s1)
     28a:	4585                	li	a1,1
     28c:	b1840513          	add	a0,s0,-1256
     290:	58a030ef          	jal	381a <riscprintf_>
     294:	6531                	lui	a0,0xc
     296:	35050513          	add	a0,a0,848 # c350 <_end+0x1990>
     29a:	345030ef          	jal	3dde <_Z10riscusleepi>
     29e:	4422                	lw	s0,8(sp)
     2a0:	40b2                	lw	ra,12(sp)
     2a2:	4492                	lw	s1,4(sp)
     2a4:	6515                	lui	a0,0x5
     2a6:	b3c50513          	add	a0,a0,-1220 # 4b3c <stream_vscanf+0x500>
     2aa:	0141                	add	sp,sp,16
     2ac:	56e0306f          	j	381a <riscprintf_>

000002b0 <_Z12core_poll_iov>:
     2b0:	ac0d                	j	4e2 <_Z10pcecd_pollv>

000002b2 <_Z15core_reg_updatev>:
     2b2:	f0402783          	lw	a5,-252(zero) # ffffff04 <_end+0xffff5544>
     2b6:	1141                	add	sp,sp,-16
     2b8:	c606                	sw	ra,12(sp)
     2ba:	8b85                	and	a5,a5,1
     2bc:	c38d                	beqz	a5,2de <_Z15core_reg_updatev+0x2c>
     2be:	6519                	lui	a0,0x6
     2c0:	4585                	li	a1,1
     2c2:	2d450513          	add	a0,a0,724 # 62d4 <cue>
     2c6:	21c020ef          	jal	24e2 <_ZN5cue_t9SetRegionEh>
     2ca:	f0402783          	lw	a5,-252(zero) # ffffff04 <_end+0xffff5544>
     2ce:	8b89                	and	a5,a5,2
     2d0:	c38d                	beqz	a5,2f2 <_Z15core_reg_updatev+0x40>
     2d2:	40b2                	lw	ra,12(sp)
     2d4:	4789                	li	a5,2
     2d6:	f4f02a23          	sw	a5,-172(zero) # ffffff54 <_end+0xffff5594>
     2da:	0141                	add	sp,sp,16
     2dc:	8082                	ret
     2de:	6519                	lui	a0,0x6
     2e0:	4581                	li	a1,0
     2e2:	2d450513          	add	a0,a0,724 # 62d4 <cue>
     2e6:	1fc020ef          	jal	24e2 <_ZN5cue_t9SetRegionEh>
     2ea:	f0402783          	lw	a5,-252(zero) # ffffff04 <_end+0xffff5544>
     2ee:	8b89                	and	a5,a5,2
     2f0:	f3ed                	bnez	a5,2d2 <_Z15core_reg_updatev+0x20>
     2f2:	40b2                	lw	ra,12(sp)
     2f4:	f4002a23          	sw	zero,-172(zero) # ffffff54 <_end+0xffff5594>
     2f8:	0141                	add	sp,sp,16
     2fa:	8082                	ret

000002fc <_Z18core_restart_firstv>:
     2fc:	8082                	ret

000002fe <_Z16core_input_setupv>:
     2fe:	8082                	ret

00000300 <_Z4initv>:
     300:	1141                	add	sp,sp,-16
     302:	4501                	li	a0,0
     304:	c606                	sw	ra,12(sp)
     306:	3f15                	jal	23a <_Z10core_reseti>
     308:	0be030ef          	jal	33c6 <_Z17DisableInterruptsv>
     30c:	2c7030ef          	jal	3dd2 <_Z8SetTimerv>
     310:	0a4030ef          	jal	33b4 <SetUART>
     314:	2ab030ef          	jal	3dbe <_Z10ResetTimerv>
     318:	0007a537          	lui	a0,0x7a
     31c:	12050513          	add	a0,a0,288 # 7a120 <_end+0x6f760>
     320:	2bf030ef          	jal	3dde <_Z10riscusleepi>
     324:	6515                	lui	a0,0x5
     326:	b5450513          	add	a0,a0,-1196 # 4b54 <stream_vscanf+0x518>
     32a:	4f0030ef          	jal	381a <riscprintf_>
     32e:	40b2                	lw	ra,12(sp)
     330:	0141                	add	sp,sp,16
     332:	b7e9                	j	2fc <_Z18core_restart_firstv>

00000334 <_Z8mainloopv>:
     334:	6509                	lui	a0,0x2
     336:	1101                	add	sp,sp,-32
     338:	32850513          	add	a0,a0,808 # 2328 <_ZN5cue_t11CommandExecEv+0x61c>
     33c:	ce06                	sw	ra,28(sp)
     33e:	cc22                	sw	s0,24(sp)
     340:	ca26                	sw	s1,20(sp)
     342:	c84a                	sw	s2,16(sp)
     344:	c64e                	sw	s3,12(sp)
     346:	c452                	sw	s4,8(sp)
     348:	c256                	sw	s5,4(sp)
     34a:	295030ef          	jal	3dde <_Z10riscusleepi>
     34e:	6515                	lui	a0,0x5
     350:	b5c50513          	add	a0,a0,-1188 # 4b5c <stream_vscanf+0x520>
     354:	4c6030ef          	jal	381a <riscprintf_>
     358:	6515                	lui	a0,0x5
     35a:	b7850513          	add	a0,a0,-1160 # 4b78 <stream_vscanf+0x53c>
     35e:	4bc030ef          	jal	381a <riscprintf_>
     362:	6515                	lui	a0,0x5
     364:	b9450513          	add	a0,a0,-1132 # 4b94 <stream_vscanf+0x558>
     368:	4b2030ef          	jal	381a <riscprintf_>
     36c:	6515                	lui	a0,0x5
     36e:	ba450513          	add	a0,a0,-1116 # 4ba4 <stream_vscanf+0x568>
     372:	4a8030ef          	jal	381a <riscprintf_>
     376:	7d000513          	li	a0,2000
     37a:	265030ef          	jal	3dde <_Z10riscusleepi>
     37e:	4505                	li	a0,1
     380:	3d6d                	jal	23a <_Z10core_reseti>
     382:	3fb5                	jal	2fe <_Z16core_input_setupv>
     384:	042030ef          	jal	33c6 <_Z17DisableInterruptsv>
     388:	6515                	lui	a0,0x5
     38a:	bc050513          	add	a0,a0,-1088 # 4bc0 <stream_vscanf+0x584>
     38e:	48c030ef          	jal	381a <riscprintf_>
     392:	0c800513          	li	a0,200
     396:	257030ef          	jal	3dec <_Z13RISCGetTimer2m>
     39a:	6705                	lui	a4,0x1
     39c:	77c1                	lui	a5,0xffff0
     39e:	80070713          	add	a4,a4,-2048 # 800 <_Z13dataslot_readtmmm+0x82>
     3a2:	6991                	lui	s3,0x4
     3a4:	842a                	mv	s0,a0
     3a6:	cbd8                	sw	a4,20(a5)
     3a8:	6a95                	lui	s5,0x5
     3aa:	6a15                	lui	s4,0x5
     3ac:	64a9                	lui	s1,0xa
     3ae:	4919                	li	s2,6
     3b0:	a9898993          	add	s3,s3,-1384 # 3a98 <riscprintf_+0x27e>
     3b4:	fb002783          	lw	a5,-80(zero) # ffffffb0 <_end+0xffff55f0>
     3b8:	ef8d                	bnez	a5,3f2 <_Z8mainloopv+0xbe>
     3ba:	3ddd                	jal	2b0 <_Z12core_poll_iov>
     3bc:	3ddd                	jal	2b2 <_Z15core_reg_updatev>
     3be:	8522                	mv	a0,s0
     3c0:	235030ef          	jal	3df4 <_Z15RISCCheckTimer2m>
     3c4:	c501                	beqz	a0,3cc <_Z8mainloopv+0x98>
     3c6:	56c4a783          	lw	a5,1388(s1) # a56c <file_error_code>
     3ca:	c3b5                	beqz	a5,42e <_Z8mainloopv+0xfa>
     3cc:	8522                	mv	a0,s0
     3ce:	227030ef          	jal	3df4 <_Z15RISCCheckTimer2m>
     3d2:	c939                	beqz	a0,428 <_Z8mainloopv+0xf4>
     3d4:	56c4a503          	lw	a0,1388(s1)
     3d8:	05250063          	beq	a0,s2,418 <_Z8mainloopv+0xe4>
     3dc:	c119                	beqz	a0,3e2 <_Z8mainloopv+0xae>
     3de:	249020ef          	jal	2e26 <_Z26osd_display_error_datasloti>
     3e2:	f0002783          	lw	a5,-256(zero) # ffffff00 <_end+0xffff5540>
     3e6:	8b85                	and	a5,a5,1
     3e8:	d7f1                	beqz	a5,3b4 <_Z8mainloopv+0x80>
     3ea:	3585                	jal	24a <_Z15full_core_resetv>
     3ec:	fb002783          	lw	a5,-80(zero) # ffffffb0 <_end+0xffff55f0>
     3f0:	d7e9                	beqz	a5,3ba <_Z8mainloopv+0x86>
     3f2:	bd8a8513          	add	a0,s5,-1064 # 4bd8 <stream_vscanf+0x59c>
     3f6:	424030ef          	jal	381a <riscprintf_>
     3fa:	7d000513          	li	a0,2000
     3fe:	1e1030ef          	jal	3dde <_Z10riscusleepi>
     402:	beca0513          	add	a0,s4,-1044 # 4bec <stream_vscanf+0x5b0>
     406:	414030ef          	jal	381a <riscprintf_>
     40a:	854e                	mv	a0,s3
     40c:	5724a623          	sw	s2,1388(s1)
     410:	1dd030ef          	jal	3dec <_Z13RISCGetTimer2m>
     414:	842a                	mv	s0,a0
     416:	b755                	j	3ba <_Z8mainloopv+0x86>
     418:	0c800513          	li	a0,200
     41c:	1d1030ef          	jal	3dec <_Z13RISCGetTimer2m>
     420:	842a                	mv	s0,a0
     422:	5604a623          	sw	zero,1388(s1)
     426:	bf75                	j	3e2 <_Z8mainloopv+0xae>
     428:	56c4a503          	lw	a0,1388(s1)
     42c:	bf45                	j	3dc <_Z8mainloopv+0xa8>
     42e:	0e9020ef          	jal	2d16 <_Z16osd_display_infov>
     432:	0c800513          	li	a0,200
     436:	1b7030ef          	jal	3dec <_Z13RISCGetTimer2m>
     43a:	842a                	mv	s0,a0
     43c:	56c4a503          	lw	a0,1388(s1)
     440:	bf71                	j	3dc <_Z8mainloopv+0xa8>

00000442 <main>:
     442:	1141                	add	sp,sp,-16
     444:	c606                	sw	ra,12(sp)
     446:	3d6d                	jal	300 <_Z4initv>
     448:	6515                	lui	a0,0x5
     44a:	e2050513          	add	a0,a0,-480 # 4e20 <stream_vscanf+0x7e4>
     44e:	191030ef          	jal	3dde <_Z10riscusleepi>
     452:	35cd                	jal	334 <_Z8mainloopv>

00000454 <_Z15pcecd_send_dataPhih>:
     454:	1141                	add	sp,sp,-16
     456:	03600613          	li	a2,54
     45a:	c606                	sw	ra,12(sp)
     45c:	37c020ef          	jal	27d8 <_Z19HPS_io_file_tx_dataPKhmi>
     460:	40b2                	lw	ra,12(sp)
     462:	4505                	li	a0,1
     464:	0141                	add	sp,sp,16
     466:	8082                	ret

00000468 <_Z15pcecd_set_imageii>:
     468:	1101                	add	sp,sp,-32
     46a:	c64e                	sw	s3,12(sp)
     46c:	6999                	lui	s3,0x6
     46e:	ca26                	sw	s1,20(sp)
     470:	c84a                	sw	s2,16(sp)
     472:	ce06                	sw	ra,28(sp)
     474:	4905                	li	s2,1
     476:	2d498493          	add	s1,s3,724 # 62d4 <cue>
     47a:	06500593          	li	a1,101
     47e:	2d498513          	add	a0,s3,724
     482:	01248423          	sb	s2,8(s1)
     486:	432010ef          	jal	18b8 <_ZN5cue_t4LoadEi>
     48a:	03250c63          	beq	a0,s2,4c2 <_Z15pcecd_set_imageii+0x5a>
     48e:	cc22                	sw	s0,24(sp)
     490:	842a                	mv	s0,a0
     492:	2d498513          	add	a0,s3,724
     496:	43c010ef          	jal	18d2 <_ZN5cue_t6UnloadEv>
     49a:	4581                	li	a1,0
     49c:	03300513          	li	a0,51
     4a0:	2d2020ef          	jal	2772 <_Z16HPS_spi_uio_cmd8hh>
     4a4:	8522                	mv	a0,s0
     4a6:	181020ef          	jal	2e26 <_Z26osd_display_error_datasloti>
     4aa:	01248423          	sb	s2,8(s1)
     4ae:	4462                	lw	s0,24(sp)
     4b0:	40f2                	lw	ra,28(sp)
     4b2:	67a9                	lui	a5,0xa
     4b4:	5607ae23          	sw	zero,1404(a5) # a57c <_ZL10need_reset>
     4b8:	44d2                	lw	s1,20(sp)
     4ba:	4942                	lw	s2,16(sp)
     4bc:	49b2                	lw	s3,12(sp)
     4be:	6105                	add	sp,sp,32
     4c0:	8082                	ret
     4c2:	44dc                	lw	a5,12(s1)
     4c4:	4585                	li	a1,1
     4c6:	03300513          	li	a0,51
     4ca:	0017b793          	seqz	a5,a5
     4ce:	00f48423          	sb	a5,8(s1)
     4d2:	47a9                	li	a5,10
     4d4:	c09c                	sw	a5,0(s1)
     4d6:	45400793          	li	a5,1108
     4da:	c89c                	sw	a5,16(s1)
     4dc:	296020ef          	jal	2772 <_Z16HPS_spi_uio_cmd8hh>
     4e0:	bfc1                	j	4b0 <_Z15pcecd_set_imageii+0x48>

000004e2 <_Z10pcecd_pollv>:
     4e2:	7179                	add	sp,sp,-48
     4e4:	d422                	sw	s0,40(sp)
     4e6:	6429                	lui	s0,0xa
     4e8:	57442783          	lw	a5,1396(s0) # a574 <poll_timer>
     4ec:	d606                	sw	ra,44(sp)
     4ee:	d226                	sw	s1,36(sp)
     4f0:	14078363          	beqz	a5,636 <_Z10pcecd_pollv+0x154>
     4f4:	64a9                	lui	s1,0xa
     4f6:	57c4a783          	lw	a5,1404(s1) # a57c <_ZL10need_reset>
     4fa:	14079863          	bnez	a5,64a <_Z10pcecd_pollv+0x168>
     4fe:	57442503          	lw	a0,1396(s0)
     502:	0f3030ef          	jal	3df4 <_Z15RISCCheckTimer2m>
     506:	c921                	beqz	a0,556 <_Z10pcecd_pollv+0x74>
     508:	ce4e                	sw	s3,28(sp)
     50a:	6999                	lui	s3,0x6
     50c:	d04a                	sw	s2,32(sp)
     50e:	2d498913          	add	s2,s3,724 # 62d4 <cue>
     512:	00092603          	lw	a2,0(s2)
     516:	57442703          	lw	a4,1396(s0)
     51a:	01492503          	lw	a0,20(s2)
     51e:	0c060a63          	beqz	a2,5f2 <_Z10pcecd_pollv+0x110>
     522:	66a9                	lui	a3,0xa
     524:	5716c783          	lbu	a5,1393(a3) # a571 <_ZZ10pcecd_pollvE3adj>
     528:	458d                	li	a1,3
     52a:	1ab78b63          	beq	a5,a1,6e0 <_Z10pcecd_pollv+0x1fe>
     52e:	0735                	add	a4,a4,13
     530:	56e42a23          	sw	a4,1396(s0)
     534:	0ef5f463          	bgeu	a1,a5,61c <_Z10pcecd_pollv+0x13a>
     538:	4789                	li	a5,2
     53a:	56f688a3          	sb	a5,1393(a3)
     53e:	c111                	beqz	a0,542 <_Z10pcecd_pollv+0x60>
     540:	c271                	beqz	a2,604 <_Z10pcecd_pollv+0x122>
     542:	01894783          	lbu	a5,24(s2)
     546:	1a079163          	bnez	a5,6e8 <_Z10pcecd_pollv+0x206>
     54a:	2d498513          	add	a0,s3,724
     54e:	42e010ef          	jal	197c <_ZN5cue_t6UpdateEv>
     552:	5902                	lw	s2,32(sp)
     554:	49f2                	lw	s3,28(sp)
     556:	03400513          	li	a0,52
     55a:	1fe020ef          	jal	2758 <_Z20HPS_spi_uio_cmd_contt>
     55e:	6729                	lui	a4,0xa
     560:	57274683          	lbu	a3,1394(a4) # a572 <_ZZ10pcecd_pollvE8last_req>
     564:	0ff57793          	zext.b	a5,a0
     568:	0cf68163          	beq	a3,a5,62a <_Z10pcecd_pollv+0x148>
     56c:	4501                	li	a0,0
     56e:	56f70923          	sb	a5,1394(a4)
     572:	144020ef          	jal	26b6 <_Z12HPS_fpga_spit>
     576:	87aa                	mv	a5,a0
     578:	4501                	li	a0,0
     57a:	00f11023          	sh	a5,0(sp)
     57e:	138020ef          	jal	26b6 <_Z12HPS_fpga_spit>
     582:	87aa                	mv	a5,a0
     584:	4501                	li	a0,0
     586:	00f11123          	sh	a5,2(sp)
     58a:	12c020ef          	jal	26b6 <_Z12HPS_fpga_spit>
     58e:	87aa                	mv	a5,a0
     590:	4501                	li	a0,0
     592:	00f11223          	sh	a5,4(sp)
     596:	120020ef          	jal	26b6 <_Z12HPS_fpga_spit>
     59a:	87aa                	mv	a5,a0
     59c:	4501                	li	a0,0
     59e:	00f11323          	sh	a5,6(sp)
     5a2:	114020ef          	jal	26b6 <_Z12HPS_fpga_spit>
     5a6:	87aa                	mv	a5,a0
     5a8:	4501                	li	a0,0
     5aa:	00f11423          	sh	a5,8(sp)
     5ae:	108020ef          	jal	26b6 <_Z12HPS_fpga_spit>
     5b2:	87aa                	mv	a5,a0
     5b4:	4501                	li	a0,0
     5b6:	00f11523          	sh	a5,10(sp)
     5ba:	0fc020ef          	jal	26b6 <_Z12HPS_fpga_spit>
     5be:	00a11623          	sh	a0,12(sp)
     5c2:	0d6020ef          	jal	2698 <_Z13HPS_DisableIOv>
     5c6:	00c14783          	lbu	a5,12(sp)
     5ca:	4705                	li	a4,1
     5cc:	0ee78763          	beq	a5,a4,6ba <_Z10pcecd_pollv+0x1d8>
     5d0:	4689                	li	a3,2
     5d2:	0ed78f63          	beq	a5,a3,6d0 <_Z10pcecd_pollv+0x1ee>
     5d6:	0c078363          	beqz	a5,69c <_Z10pcecd_pollv+0x1ba>
     5da:	67a9                	lui	a5,0xa
     5dc:	5787a783          	lw	a5,1400(a5) # a578 <apf_data_already_streamed>
     5e0:	56e4ae23          	sw	a4,1404(s1)
     5e4:	0c078663          	beqz	a5,6b0 <_Z10pcecd_pollv+0x1ce>
     5e8:	67a9                	lui	a5,0xa
     5ea:	4715                	li	a4,5
     5ec:	56e7a623          	sw	a4,1388(a5) # a56c <file_error_code>
     5f0:	a0c1                	j	6b0 <_Z10pcecd_pollv+0x1ce>
     5f2:	00894683          	lbu	a3,8(s2)
     5f6:	4789                	li	a5,2
     5f8:	f2f695e3          	bne	a3,a5,522 <_Z10pcecd_pollv+0x40>
     5fc:	0741                	add	a4,a4,16
     5fe:	56e42a23          	sw	a4,1396(s0)
     602:	d121                	beqz	a0,542 <_Z10pcecd_pollv+0x60>
     604:	2d498513          	add	a0,s3,724
     608:	657010ef          	jal	245e <_ZN5cue_t9GetStatusEv>
     60c:	85aa                	mv	a1,a0
     60e:	2d498513          	add	a0,s3,724
     612:	671010ef          	jal	2482 <_ZN5cue_t10SendStatusEt>
     616:	00092a23          	sw	zero,20(s2)
     61a:	bf05                	j	54a <_Z10pcecd_pollv+0x68>
     61c:	17fd                	add	a5,a5,-1
     61e:	0ff7f793          	zext.b	a5,a5
     622:	f0079ce3          	bnez	a5,53a <_Z10pcecd_pollv+0x58>
     626:	478d                	li	a5,3
     628:	bf09                	j	53a <_Z10pcecd_pollv+0x58>
     62a:	5422                	lw	s0,40(sp)
     62c:	50b2                	lw	ra,44(sp)
     62e:	5492                	lw	s1,36(sp)
     630:	6145                	add	sp,sp,48
     632:	0660206f          	j	2698 <_Z13HPS_DisableIOv>
     636:	4535                	li	a0,13
     638:	7b4030ef          	jal	3dec <_Z13RISCGetTimer2m>
     63c:	64a9                	lui	s1,0xa
     63e:	57c4a783          	lw	a5,1404(s1) # a57c <_ZL10need_reset>
     642:	56a42a23          	sw	a0,1396(s0)
     646:	ea078ce3          	beqz	a5,4fe <_Z10pcecd_pollv+0x1c>
     64a:	6515                	lui	a0,0x5
     64c:	c0050513          	add	a0,a0,-1024 # 4c00 <stream_vscanf+0x5c4>
     650:	d04a                	sw	s2,32(sp)
     652:	1c8030ef          	jal	381a <riscprintf_>
     656:	6919                	lui	s2,0x6
     658:	2d490513          	add	a0,s2,724 # 62d4 <cue>
     65c:	5604ae23          	sw	zero,1404(s1)
     660:	272010ef          	jal	18d2 <_ZN5cue_t6UnloadEv>
     664:	6515                	lui	a0,0x5
     666:	c0c50513          	add	a0,a0,-1012 # 4c0c <stream_vscanf+0x5d0>
     66a:	1b0030ef          	jal	381a <riscprintf_>
     66e:	2d490513          	add	a0,s2,724
     672:	2bc010ef          	jal	192e <_ZN5cue_t5ResetEv>
     676:	6515                	lui	a0,0x5
     678:	c1450513          	add	a0,a0,-1004 # 4c14 <stream_vscanf+0x5d8>
     67c:	19e030ef          	jal	381a <riscprintf_>
     680:	77c1                	lui	a5,0xffff0
     682:	7741                	lui	a4,0xffff0
     684:	4308                	lw	a0,0(a4)
     686:	43cc                	lw	a1,4(a5)
     688:	56042a23          	sw	zero,1396(s0)
     68c:	3bf1                	jal	468 <_Z15pcecd_set_imageii>
     68e:	6515                	lui	a0,0x5
     690:	c1c50513          	add	a0,a0,-996 # 4c1c <stream_vscanf+0x5e0>
     694:	186030ef          	jal	381a <riscprintf_>
     698:	5902                	lw	s2,32(sp)
     69a:	b595                	j	4fe <_Z10pcecd_pollv+0x1c>
     69c:	6419                	lui	s0,0x6
     69e:	858a                	mv	a1,sp
     6a0:	2d440513          	add	a0,s0,724 # 62d4 <cue>
     6a4:	5c5010ef          	jal	2468 <_ZN5cue_t10SetCommandEPh>
     6a8:	2d440513          	add	a0,s0,724
     6ac:	660010ef          	jal	1d0c <_ZN5cue_t11CommandExecEv>
     6b0:	50b2                	lw	ra,44(sp)
     6b2:	5422                	lw	s0,40(sp)
     6b4:	5492                	lw	s1,36(sp)
     6b6:	6145                	add	sp,sp,48
     6b8:	8082                	ret
     6ba:	6519                	lui	a0,0x6
     6bc:	4581                	li	a1,0
     6be:	2d450513          	add	a0,a0,724 # 62d4 <cue>
     6c2:	5c1010ef          	jal	2482 <_ZN5cue_t10SendStatusEt>
     6c6:	50b2                	lw	ra,44(sp)
     6c8:	5422                	lw	s0,40(sp)
     6ca:	5492                	lw	s1,36(sp)
     6cc:	6145                	add	sp,sp,48
     6ce:	8082                	ret
     6d0:	50b2                	lw	ra,44(sp)
     6d2:	5422                	lw	s0,40(sp)
     6d4:	6799                	lui	a5,0x6
     6d6:	2ee786a3          	sb	a4,749(a5) # 62ed <cue+0x19>
     6da:	5492                	lw	s1,36(sp)
     6dc:	6145                	add	sp,sp,48
     6de:	8082                	ret
     6e0:	0739                	add	a4,a4,14 # ffff000e <_end+0xfffe564e>
     6e2:	56e42a23          	sw	a4,1396(s0)
     6e6:	bd89                	j	538 <_Z10pcecd_pollv+0x56>
     6e8:	2d498513          	add	a0,s3,724
     6ec:	5c7010ef          	jal	24b2 <_ZN5cue_t15SendDataRequestEv>
     6f0:	00090c23          	sb	zero,24(s2)
     6f4:	bd99                	j	54a <_Z10pcecd_pollv+0x68>

000006f6 <_Z14dataslot_readyv>:
     6f6:	1141                	add	sp,sp,-16
     6f8:	c422                	sw	s0,8(sp)
     6fa:	f9002403          	lw	s0,-112(zero) # ffffff90 <_end+0xffff55d0>
     6fe:	c606                	sw	ra,12(sp)
     700:	03f47593          	and	a1,s0,63
     704:	e981                	bnez	a1,714 <_Z14dataslot_readyv+0x1e>
     706:	40b2                	lw	ra,12(sp)
     708:	00645513          	srl	a0,s0,0x6
     70c:	4422                	lw	s0,8(sp)
     70e:	8905                	and	a0,a0,1
     710:	0141                	add	sp,sp,16
     712:	8082                	ret
     714:	6515                	lui	a0,0x5
     716:	c2450513          	add	a0,a0,-988 # 4c24 <stream_vscanf+0x5e8>
     71a:	100030ef          	jal	381a <riscprintf_>
     71e:	40b2                	lw	ra,12(sp)
     720:	00645513          	srl	a0,s0,0x6
     724:	4422                	lw	s0,8(sp)
     726:	8905                	and	a0,a0,1
     728:	0141                	add	sp,sp,16
     72a:	8082                	ret

0000072c <_Z13dataslot_sizet>:
     72c:	1141                	add	sp,sp,-16
     72e:	c422                	sw	s0,8(sp)
     730:	85aa                	mv	a1,a0
     732:	842a                	mv	s0,a0
     734:	6515                	lui	a0,0x5
     736:	c4850513          	add	a0,a0,-952 # 4c48 <stream_vscanf+0x60c>
     73a:	c606                	sw	ra,12(sp)
     73c:	0de030ef          	jal	381a <riscprintf_>
     740:	7741                	lui	a4,0xffff0
     742:	4781                	li	a5,0
     744:	10200613          	li	a2,258
     748:	a021                	j	750 <_Z13dataslot_sizet+0x24>
     74a:	0789                	add	a5,a5,2
     74c:	02c78663          	beq	a5,a2,778 <_Z13dataslot_sizet+0x4c>
     750:	4314                	lw	a3,0(a4)
     752:	0721                	add	a4,a4,8 # ffff0008 <_end+0xfffe5648>
     754:	fe869be3          	bne	a3,s0,74a <_Z13dataslot_sizet+0x1e>
     758:	0785                	add	a5,a5,1
     75a:	078a                	sll	a5,a5,0x2
     75c:	7741                	lui	a4,0xffff0
     75e:	97ba                	add	a5,a5,a4
     760:	4380                	lw	s0,0(a5)
     762:	6515                	lui	a0,0x5
     764:	c5c50513          	add	a0,a0,-932 # 4c5c <stream_vscanf+0x620>
     768:	85a2                	mv	a1,s0
     76a:	0b0030ef          	jal	381a <riscprintf_>
     76e:	40b2                	lw	ra,12(sp)
     770:	8522                	mv	a0,s0
     772:	4422                	lw	s0,8(sp)
     774:	0141                	add	sp,sp,16
     776:	8082                	ret
     778:	77c1                	lui	a5,0xffff0
     77a:	0791                	add	a5,a5,4 # ffff0004 <_end+0xfffe5644>
     77c:	b7d5                	j	760 <_Z13dataslot_sizet+0x34>

0000077e <_Z13dataslot_readtmmm>:
     77e:	1101                	add	sp,sp,-32
     780:	ce06                	sw	ra,28(sp)
     782:	cc22                	sw	s0,24(sp)
     784:	f8a02023          	sw	a0,-128(zero) # ffffff80 <_end+0xffff55c0>
     788:	f8b02223          	sw	a1,-124(zero) # ffffff84 <_end+0xffff55c4>
     78c:	e699                	bnez	a3,79a <_Z13dataslot_readtmmm+0x1c>
     78e:	4401                	li	s0,0
     790:	40f2                	lw	ra,28(sp)
     792:	8522                	mv	a0,s0
     794:	4462                	lw	s0,24(sp)
     796:	6105                	add	sp,sp,32
     798:	8082                	ret
     79a:	ca26                	sw	s1,20(sp)
     79c:	c84a                	sw	s2,16(sp)
     79e:	c64e                	sw	s3,12(sp)
     7a0:	c452                	sw	s4,8(sp)
     7a2:	f8d02423          	sw	a3,-120(zero) # ffffff88 <_end+0xffff55c8>
     7a6:	f8c02623          	sw	a2,-116(zero) # ffffff8c <_end+0xffff55cc>
     7aa:	4785                	li	a5,1
     7ac:	f8f02823          	sw	a5,-112(zero) # ffffff90 <_end+0xffff55d0>
     7b0:	8a32                	mv	s4,a2
     7b2:	f8402603          	lw	a2,-124(zero) # ffffff84 <_end+0xffff55c4>
     7b6:	892a                	mv	s2,a0
     7b8:	89ae                	mv	s3,a1
     7ba:	85aa                	mv	a1,a0
     7bc:	6515                	lui	a0,0x5
     7be:	8736                	mv	a4,a3
     7c0:	84b6                	mv	s1,a3
     7c2:	c7050513          	add	a0,a0,-912 # 4c70 <stream_vscanf+0x634>
     7c6:	86d2                	mv	a3,s4
     7c8:	052030ef          	jal	381a <riscprintf_>
     7cc:	4881                	li	a7,0
     7ce:	f9002783          	lw	a5,-112(zero) # ffffff90 <_end+0xffff55d0>
     7d2:	0885                	add	a7,a7,1
     7d4:	3e98a313          	slti	t1,a7,1001
     7d8:	0077d813          	srl	a6,a5,0x7
     7dc:	03f7f413          	and	s0,a5,63
     7e0:	00187813          	and	a6,a6,1
     7e4:	e00d                	bnez	s0,806 <_Z13dataslot_readtmmm+0x88>
     7e6:	fe0804e3          	beqz	a6,7ce <_Z13dataslot_readtmmm+0x50>
     7ea:	04030963          	beqz	t1,83c <_Z13dataslot_readtmmm+0xbe>
     7ee:	f9002783          	lw	a5,-112(zero) # ffffff90 <_end+0xffff55d0>
     7f2:	0885                	add	a7,a7,1
     7f4:	3e98a313          	slti	t1,a7,1001
     7f8:	0077d813          	srl	a6,a5,0x7
     7fc:	03f7f413          	and	s0,a5,63
     800:	00187813          	and	a6,a6,1
     804:	d06d                	beqz	s0,7e6 <_Z13dataslot_readtmmm+0x68>
     806:	6515                	lui	a0,0x5
     808:	8726                	mv	a4,s1
     80a:	86d2                	mv	a3,s4
     80c:	864e                	mv	a2,s3
     80e:	85ca                	mv	a1,s2
     810:	c9450513          	add	a0,a0,-876 # 4c94 <stream_vscanf+0x658>
     814:	006030ef          	jal	381a <riscprintf_>
     818:	40f2                	lw	ra,28(sp)
     81a:	67a9                	lui	a5,0xa
     81c:	4705                	li	a4,1
     81e:	8522                	mv	a0,s0
     820:	4462                	lw	s0,24(sp)
     822:	56e78823          	sb	a4,1392(a5) # a570 <file_error_enabled>
     826:	67a9                	lui	a5,0xa
     828:	470d                	li	a4,3
     82a:	56e7a623          	sw	a4,1388(a5) # a56c <file_error_code>
     82e:	44d2                	lw	s1,20(sp)
     830:	4942                	lw	s2,16(sp)
     832:	49b2                	lw	s3,12(sp)
     834:	4a22                	lw	s4,8(sp)
     836:	6105                	add	sp,sp,32
     838:	8082                	ret
     83a:	e305                	bnez	a4,85a <_Z13dataslot_readtmmm+0xdc>
     83c:	f9002783          	lw	a5,-112(zero) # ffffff90 <_end+0xffff55d0>
     840:	03f7f413          	and	s0,a5,63
     844:	0407f713          	and	a4,a5,64
     848:	d86d                	beqz	s0,83a <_Z13dataslot_readtmmm+0xbc>
     84a:	6515                	lui	a0,0x5
     84c:	8726                	mv	a4,s1
     84e:	86d2                	mv	a3,s4
     850:	864e                	mv	a2,s3
     852:	85ca                	mv	a1,s2
     854:	d0450513          	add	a0,a0,-764 # 4d04 <stream_vscanf+0x6c8>
     858:	bf75                	j	814 <_Z13dataslot_readtmmm+0x96>
     85a:	6515                	lui	a0,0x5
     85c:	d7450513          	add	a0,a0,-652 # 4d74 <stream_vscanf+0x738>
     860:	7bb020ef          	jal	381a <riscprintf_>
     864:	4401                	li	s0,0
     866:	44d2                	lw	s1,20(sp)
     868:	4942                	lw	s2,16(sp)
     86a:	49b2                	lw	s3,12(sp)
     86c:	4a22                	lw	s4,8(sp)
     86e:	b70d                	j	790 <_Z13dataslot_readtmmm+0x12>

00000870 <_Z21dataslot_read_lba_settmm>:
     870:	1141                	add	sp,sp,-16
     872:	c606                	sw	ra,12(sp)
     874:	87ae                	mv	a5,a1
     876:	f8a02023          	sw	a0,-128(zero) # ffffff80 <_end+0xffff55c0>
     87a:	86aa                	mv	a3,a0
     87c:	f8f02223          	sw	a5,-124(zero) # ffffff84 <_end+0xffff55c4>
     880:	6515                	lui	a0,0x5
     882:	85b2                	mv	a1,a2
     884:	f8c02623          	sw	a2,-116(zero) # ffffff8c <_end+0xffff55cc>
     888:	d8850513          	add	a0,a0,-632 # 4d88 <stream_vscanf+0x74c>
     88c:	863e                	mv	a2,a5
     88e:	78d020ef          	jal	381a <riscprintf_>
     892:	40b2                	lw	ra,12(sp)
     894:	4501                	li	a0,0
     896:	0141                	add	sp,sp,16
     898:	8082                	ret

0000089a <_Z17dataslot_read_lbam>:
     89a:	1141                	add	sp,sp,-16
     89c:	c606                	sw	ra,12(sp)
     89e:	c422                	sw	s0,8(sp)
     8a0:	e519                	bnez	a0,8ae <_Z17dataslot_read_lbam+0x14>
     8a2:	4401                	li	s0,0
     8a4:	40b2                	lw	ra,12(sp)
     8a6:	8522                	mv	a0,s0
     8a8:	4422                	lw	s0,8(sp)
     8aa:	0141                	add	sp,sp,16
     8ac:	8082                	ret
     8ae:	c226                	sw	s1,4(sp)
     8b0:	f8a02423          	sw	a0,-120(zero) # ffffff88 <_end+0xffff55c8>
     8b4:	4785                	li	a5,1
     8b6:	f8f02823          	sw	a5,-112(zero) # ffffff90 <_end+0xffff55d0>
     8ba:	f8802583          	lw	a1,-120(zero) # ffffff88 <_end+0xffff55c8>
     8be:	84aa                	mv	s1,a0
     8c0:	6515                	lui	a0,0x5
     8c2:	dcc50513          	add	a0,a0,-564 # 4dcc <stream_vscanf+0x790>
     8c6:	755020ef          	jal	381a <riscprintf_>
     8ca:	4701                	li	a4,0
     8cc:	f9002783          	lw	a5,-112(zero) # ffffff90 <_end+0xffff55d0>
     8d0:	0705                	add	a4,a4,1 # ffff0001 <_end+0xfffe5641>
     8d2:	06572613          	slti	a2,a4,101
     8d6:	839d                	srl	a5,a5,0x7
     8d8:	8b85                	and	a5,a5,1
     8da:	dbed                	beqz	a5,8cc <_Z17dataslot_read_lbam+0x32>
     8dc:	fa65                	bnez	a2,8cc <_Z17dataslot_read_lbam+0x32>
     8de:	f9002783          	lw	a5,-112(zero) # ffffff90 <_end+0xffff55d0>
     8e2:	03f7f413          	and	s0,a5,63
     8e6:	0407f793          	and	a5,a5,64
     8ea:	e809                	bnez	s0,8fc <_Z17dataslot_read_lbam+0x62>
     8ec:	eb85                	bnez	a5,91c <_Z17dataslot_read_lbam+0x82>
     8ee:	f9002783          	lw	a5,-112(zero) # ffffff90 <_end+0xffff55d0>
     8f2:	03f7f413          	and	s0,a5,63
     8f6:	0407f793          	and	a5,a5,64
     8fa:	d86d                	beqz	s0,8ec <_Z17dataslot_read_lbam+0x52>
     8fc:	f8402583          	lw	a1,-124(zero) # ffffff84 <_end+0xffff55c4>
     900:	f8c02603          	lw	a2,-116(zero) # ffffff8c <_end+0xffff55cc>
     904:	6515                	lui	a0,0x5
     906:	86a6                	mv	a3,s1
     908:	df450513          	add	a0,a0,-524 # 4df4 <stream_vscanf+0x7b8>
     90c:	70f020ef          	jal	381a <riscprintf_>
     910:	40b2                	lw	ra,12(sp)
     912:	8522                	mv	a0,s0
     914:	4422                	lw	s0,8(sp)
     916:	4492                	lw	s1,4(sp)
     918:	0141                	add	sp,sp,16
     91a:	8082                	ret
     91c:	f8c02783          	lw	a5,-116(zero) # ffffff8c <_end+0xffff55cc>
     920:	97a6                	add	a5,a5,s1
     922:	f8f02623          	sw	a5,-116(zero) # ffffff8c <_end+0xffff55cc>
     926:	4492                	lw	s1,4(sp)
     928:	bfad                	j	8a2 <_Z17dataslot_read_lbam+0x8>

0000092a <_Z22dataslot_read_lba_fastmb>:
     92a:	c905                	beqz	a0,95a <_Z22dataslot_read_lba_fastmb+0x30>
     92c:	f8a02423          	sw	a0,-120(zero) # ffffff88 <_end+0xffff55c8>
     930:	4785                	li	a5,1
     932:	f8f02823          	sw	a5,-112(zero) # ffffff90 <_end+0xffff55d0>
     936:	c195                	beqz	a1,95a <_Z22dataslot_read_lba_fastmb+0x30>
     938:	6689                	lui	a3,0x2
     93a:	4701                	li	a4,0
     93c:	71168693          	add	a3,a3,1809 # 2711 <_Z13HPS_spi_writePKhmi+0x19>
     940:	f9002783          	lw	a5,-112(zero) # ffffff90 <_end+0xffff55d0>
     944:	0705                	add	a4,a4,1
     946:	839d                	srl	a5,a5,0x7
     948:	8b85                	and	a5,a5,1
     94a:	dbfd                	beqz	a5,940 <_Z22dataslot_read_lba_fastmb+0x16>
     94c:	fed74ae3          	blt	a4,a3,940 <_Z22dataslot_read_lba_fastmb+0x16>
     950:	f8c02783          	lw	a5,-116(zero) # ffffff8c <_end+0xffff55cc>
     954:	97aa                	add	a5,a5,a0
     956:	f8f02623          	sw	a5,-116(zero) # ffffff8c <_end+0xffff55cc>
     95a:	4501                	li	a0,0
     95c:	8082                	ret

0000095e <_Z29dataslot_pathname_file_decodeP13dataslot_type>:
     95e:	1101                	add	sp,sp,-32
     960:	c84a                	sw	s2,16(sp)
     962:	6919                	lui	s2,0x6
     964:	ca26                	sw	s1,20(sp)
     966:	84aa                	mv	s1,a0
     968:	f2890513          	add	a0,s2,-216 # 5f28 <data>
     96c:	c64e                	sw	s3,12(sp)
     96e:	ce06                	sw	ra,28(sp)
     970:	cc22                	sw	s0,24(sp)
     972:	c452                	sw	s4,8(sp)
     974:	41f030ef          	jal	4592 <strlen>
     978:	f2890813          	add	a6,s2,-216
     97c:	85aa                	mv	a1,a0
     97e:	00a807b3          	add	a5,a6,a0
     982:	f2890993          	add	s3,s2,-216
     986:	86aa                	mv	a3,a0
     988:	02f00893          	li	a7,47
     98c:	a031                	j	998 <_Z29dataslot_pathname_file_decodeP13dataslot_type+0x3a>
     98e:	fff7c703          	lbu	a4,-1(a5)
     992:	17fd                	add	a5,a5,-1
     994:	09170063          	beq	a4,a7,a14 <_Z29dataslot_pathname_file_decodeP13dataslot_type+0xb6>
     998:	8636                	mv	a2,a3
     99a:	16fd                	add	a3,a3,-1
     99c:	fef819e3          	bne	a6,a5,98e <_Z29dataslot_pathname_file_decodeP13dataslot_type+0x30>
     9a0:	4405                	li	s0,1
     9a2:	4681                	li	a3,0
     9a4:	6515                	lui	a0,0x5
     9a6:	f2890613          	add	a2,s2,-216
     9aa:	e4450513          	add	a0,a0,-444 # 4e44 <stream_vscanf+0x808>
     9ae:	66d020ef          	jal	381a <riscprintf_>
     9b2:	00248a13          	add	s4,s1,2
     9b6:	87d2                	mv	a5,s4
     9b8:	10248713          	add	a4,s1,258
     9bc:	00078023          	sb	zero,0(a5)
     9c0:	0e078fa3          	sb	zero,255(a5)
     9c4:	0785                	add	a5,a5,1
     9c6:	fee79be3          	bne	a5,a4,9bc <_Z29dataslot_pathname_file_decodeP13dataslot_type+0x5e>
     9ca:	6515                	lui	a0,0x5
     9cc:	85d2                	mv	a1,s4
     9ce:	e7050513          	add	a0,a0,-400 # 4e70 <stream_vscanf+0x834>
     9d2:	649020ef          	jal	381a <riscprintf_>
     9d6:	008985b3          	add	a1,s3,s0
     9da:	8552                	mv	a0,s4
     9dc:	36b030ef          	jal	4546 <strcpy>
     9e0:	10148493          	add	s1,s1,257
     9e4:	8622                	mv	a2,s0
     9e6:	f2890593          	add	a1,s2,-216
     9ea:	8526                	mv	a0,s1
     9ec:	36d030ef          	jal	4558 <strncpy>
     9f0:	6515                	lui	a0,0x5
     9f2:	85a6                	mv	a1,s1
     9f4:	e8050513          	add	a0,a0,-384 # 4e80 <stream_vscanf+0x844>
     9f8:	623020ef          	jal	381a <riscprintf_>
     9fc:	4462                	lw	s0,24(sp)
     9fe:	40f2                	lw	ra,28(sp)
     a00:	44d2                	lw	s1,20(sp)
     a02:	4942                	lw	s2,16(sp)
     a04:	49b2                	lw	s3,12(sp)
     a06:	4a22                	lw	s4,8(sp)
     a08:	6515                	lui	a0,0x5
     a0a:	e9050513          	add	a0,a0,-368 # 4e90 <stream_vscanf+0x854>
     a0e:	6105                	add	sp,sp,32
     a10:	60b0206f          	j	381a <riscprintf_>
     a14:	8432                	mv	s0,a2
     a16:	b779                	j	9a4 <_Z29dataslot_pathname_file_decodeP13dataslot_type+0x46>

00000a18 <_Z19GetFileNameDataSlotP13dataslot_type>:
     a18:	1141                	add	sp,sp,-16
     a1a:	c226                	sw	s1,4(sp)
     a1c:	84aa                	mv	s1,a0
     a1e:	6515                	lui	a0,0x5
     a20:	ea850513          	add	a0,a0,-344 # 4ea8 <stream_vscanf+0x86c>
     a24:	c606                	sw	ra,12(sp)
     a26:	c422                	sw	s0,8(sp)
     a28:	5f3020ef          	jal	381a <riscprintf_>
     a2c:	0004d503          	lhu	a0,0(s1)
     a30:	810007b7          	lui	a5,0x81000
     a34:	f8a02023          	sw	a0,-128(zero) # ffffff80 <_end+0xffff55c0>
     a38:	f8f02223          	sw	a5,-124(zero) # ffffff84 <_end+0xffff55c4>
     a3c:	f8f02623          	sw	a5,-116(zero) # ffffff8c <_end+0xffff55cc>
     a40:	47c1                	li	a5,16
     a42:	f8f02823          	sw	a5,-112(zero) # ffffff90 <_end+0xffff55d0>
     a46:	a011                	j	a4a <_Z19GetFileNameDataSlotP13dataslot_type+0x32>
     a48:	ef85                	bnez	a5,a80 <_Z19GetFileNameDataSlotP13dataslot_type+0x68>
     a4a:	f9002783          	lw	a5,-112(zero) # ffffff90 <_end+0xffff55d0>
     a4e:	03f7f413          	and	s0,a5,63
     a52:	0407f793          	and	a5,a5,64
     a56:	d86d                	beqz	s0,a48 <_Z19GetFileNameDataSlotP13dataslot_type+0x30>
     a58:	67a9                	lui	a5,0xa
     a5a:	4705                	li	a4,1
     a5c:	6515                	lui	a0,0x5
     a5e:	56e78823          	sb	a4,1392(a5) # a570 <file_error_enabled>
     a62:	85a2                	mv	a1,s0
     a64:	67a9                	lui	a5,0xa
     a66:	4709                	li	a4,2
     a68:	ec450513          	add	a0,a0,-316 # 4ec4 <stream_vscanf+0x888>
     a6c:	56e7a623          	sw	a4,1388(a5) # a56c <file_error_code>
     a70:	5ab020ef          	jal	381a <riscprintf_>
     a74:	40b2                	lw	ra,12(sp)
     a76:	8522                	mv	a0,s0
     a78:	4422                	lw	s0,8(sp)
     a7a:	4492                	lw	s1,4(sp)
     a7c:	0141                	add	sp,sp,16
     a7e:	8082                	ret
     a80:	3175                	jal	72c <_Z13dataslot_sizet>
     a82:	01000737          	lui	a4,0x1000
     a86:	10472683          	lw	a3,260(a4) # 1000104 <_end+0xff5744>
     a8a:	6599                	lui	a1,0x6
     a8c:	f2858613          	add	a2,a1,-216 # 5f28 <data>
     a90:	f2858793          	add	a5,a1,-216
     a94:	20d4a023          	sw	a3,512(s1)
     a98:	010006b7          	lui	a3,0x1000
     a9c:	20a4a223          	sw	a0,516(s1)
     aa0:	0fe60613          	add	a2,a2,254
     aa4:	8e9d                	sub	a3,a3,a5
     aa6:	00f68733          	add	a4,a3,a5
     aaa:	00074703          	lbu	a4,0(a4)
     aae:	0785                	add	a5,a5,1
     ab0:	fee78fa3          	sb	a4,-1(a5)
     ab4:	fec799e3          	bne	a5,a2,aa6 <_Z19GetFileNameDataSlotP13dataslot_type+0x8e>
     ab8:	6515                	lui	a0,0x5
     aba:	f2858593          	add	a1,a1,-216
     abe:	f0050513          	add	a0,a0,-256 # 4f00 <stream_vscanf+0x8c4>
     ac2:	559020ef          	jal	381a <riscprintf_>
     ac6:	8526                	mv	a0,s1
     ac8:	3d59                	jal	95e <_Z29dataslot_pathname_file_decodeP13dataslot_type>
     aca:	2044a703          	lw	a4,516(s1)
     ace:	2004a683          	lw	a3,512(s1)
     ad2:	6515                	lui	a0,0x5
     ad4:	00248613          	add	a2,s1,2
     ad8:	10148593          	add	a1,s1,257
     adc:	f1850513          	add	a0,a0,-232 # 4f18 <stream_vscanf+0x8dc>
     ae0:	53b020ef          	jal	381a <riscprintf_>
     ae4:	40b2                	lw	ra,12(sp)
     ae6:	4422                	lw	s0,8(sp)
     ae8:	4492                	lw	s1,4(sp)
     aea:	4501                	li	a0,0
     aec:	0141                	add	sp,sp,16
     aee:	8082                	ret

00000af0 <_Z20OpenFileNameDataSlotP13dataslot_typePKc>:
     af0:	1141                	add	sp,sp,-16
     af2:	c226                	sw	s1,4(sp)
     af4:	84aa                	mv	s1,a0
     af6:	852e                	mv	a0,a1
     af8:	c606                	sw	ra,12(sp)
     afa:	c422                	sw	s0,8(sp)
     afc:	c04a                	sw	s2,0(sp)
     afe:	892e                	mv	s2,a1
     b00:	293030ef          	jal	4592 <strlen>
     b04:	0004d583          	lhu	a1,0(s1)
     b08:	862a                	mv	a2,a0
     b0a:	842a                	mv	s0,a0
     b0c:	6515                	lui	a0,0x5
     b0e:	f5850513          	add	a0,a0,-168 # 4f58 <stream_vscanf+0x91c>
     b12:	509020ef          	jal	381a <riscprintf_>
     b16:	01000737          	lui	a4,0x1000
     b1a:	010007b7          	lui	a5,0x1000
     b1e:	0ff70713          	add	a4,a4,255 # 10000ff <_end+0xff573f>
     b22:	00078023          	sb	zero,0(a5) # 1000000 <_end+0xff5640>
     b26:	0785                	add	a5,a5,1
     b28:	fee79de3          	bne	a5,a4,b22 <_Z20OpenFileNameDataSlotP13dataslot_typePKc+0x32>
     b2c:	4781                	li	a5,0
     b2e:	01000637          	lui	a2,0x1000
     b32:	00f90733          	add	a4,s2,a5
     b36:	00074683          	lbu	a3,0(a4)
     b3a:	00c78733          	add	a4,a5,a2
     b3e:	0785                	add	a5,a5,1
     b40:	00d70023          	sb	a3,0(a4)
     b44:	0ff7f793          	zext.b	a5,a5
     b48:	fef455e3          	bge	s0,a5,b32 <_Z20OpenFileNameDataSlotP13dataslot_typePKc+0x42>
     b4c:	010007b7          	lui	a5,0x1000
     b50:	0785                	add	a5,a5,1 # 1000001 <_end+0xff5641>
     b52:	943e                	add	s0,s0,a5
     b54:	00040023          	sb	zero,0(s0)
     b58:	0004d683          	lhu	a3,0(s1)
     b5c:	01000737          	lui	a4,0x1000
     b60:	10072023          	sw	zero,256(a4) # 1000100 <_end+0xff5740>
     b64:	010007b7          	lui	a5,0x1000
     b68:	1007a223          	sw	zero,260(a5) # 1000104 <_end+0xff5744>
     b6c:	f8d02023          	sw	a3,-128(zero) # ffffff80 <_end+0xffff55c0>
     b70:	810006b7          	lui	a3,0x81000
     b74:	f8d02223          	sw	a3,-124(zero) # ffffff84 <_end+0xffff55c4>
     b78:	f8d02623          	sw	a3,-116(zero) # ffffff8c <_end+0xffff55cc>
     b7c:	02000693          	li	a3,32
     b80:	f8d02823          	sw	a3,-112(zero) # ffffff90 <_end+0xffff55d0>
     b84:	4529                	li	a0,10
     b86:	258030ef          	jal	3dde <_Z10riscusleepi>
     b8a:	6519                	lui	a0,0x6
     b8c:	85ca                	mv	a1,s2
     b8e:	f2850513          	add	a0,a0,-216 # 5f28 <data>
     b92:	1b5030ef          	jal	4546 <strcpy>
     b96:	8526                	mv	a0,s1
     b98:	33d9                	jal	95e <_Z29dataslot_pathname_file_decodeP13dataslot_type>
     b9a:	a011                	j	b9e <_Z20OpenFileNameDataSlotP13dataslot_typePKc+0xae>
     b9c:	e79d                	bnez	a5,bca <_Z20OpenFileNameDataSlotP13dataslot_typePKc+0xda>
     b9e:	f9002783          	lw	a5,-112(zero) # ffffff90 <_end+0xffff55d0>
     ba2:	03f7f713          	and	a4,a5,63
     ba6:	0407f793          	and	a5,a5,64
     baa:	db6d                	beqz	a4,b9c <_Z20OpenFileNameDataSlotP13dataslot_typePKc+0xac>
     bac:	40b2                	lw	ra,12(sp)
     bae:	4422                	lw	s0,8(sp)
     bb0:	67a9                	lui	a5,0xa
     bb2:	4685                	li	a3,1
     bb4:	56d78823          	sb	a3,1392(a5) # a570 <file_error_enabled>
     bb8:	67a9                	lui	a5,0xa
     bba:	4689                	li	a3,2
     bbc:	56d7a623          	sw	a3,1388(a5) # a56c <file_error_code>
     bc0:	4492                	lw	s1,4(sp)
     bc2:	4902                	lw	s2,0(sp)
     bc4:	853a                	mv	a0,a4
     bc6:	0141                	add	sp,sp,16
     bc8:	8082                	ret
     bca:	0004d503          	lhu	a0,0(s1)
     bce:	3eb9                	jal	72c <_Z13dataslot_sizet>
     bd0:	010007b7          	lui	a5,0x1000
     bd4:	1047a683          	lw	a3,260(a5) # 1000104 <_end+0xff5744>
     bd8:	872a                	mv	a4,a0
     bda:	20a4a223          	sw	a0,516(s1)
     bde:	6515                	lui	a0,0x5
     be0:	20d4a023          	sw	a3,512(s1)
     be4:	00248613          	add	a2,s1,2
     be8:	10148593          	add	a1,s1,257
     bec:	f1850513          	add	a0,a0,-232 # 4f18 <stream_vscanf+0x8dc>
     bf0:	42b020ef          	jal	381a <riscprintf_>
     bf4:	40b2                	lw	ra,12(sp)
     bf6:	4422                	lw	s0,8(sp)
     bf8:	4492                	lw	s1,4(sp)
     bfa:	4902                	lw	s2,0(sp)
     bfc:	4501                	li	a0,0
     bfe:	0141                	add	sp,sp,16
     c00:	8082                	ret

00000c02 <_Z14clearscrachrammm>:
     c02:	95aa                	add	a1,a1,a0
     c04:	01000737          	lui	a4,0x1000
     c08:	00e507b3          	add	a5,a0,a4
     c0c:	0007a023          	sw	zero,0(a5)
     c10:	0511                	add	a0,a0,4
     c12:	feb56be3          	bltu	a0,a1,c08 <_Z14clearscrachrammm+0x6>
     c16:	8082                	ret

00000c18 <_Z12RISCFileSeekPKcmmmP13dataslot_type>:
     c18:	714d                	add	sp,sp,-336
     c1a:	13a12023          	sw	s10,288(sp)
     c1e:	6d29                	lui	s10,0xa
     c20:	598d2683          	lw	a3,1432(s10) # a598 <sector_buffer0_address>
     c24:	11b12e23          	sw	s11,284(sp)
     c28:	6da9                	lui	s11,0xa
     c2a:	594dae03          	lw	t3,1428(s11) # a594 <sector_buffer1_address>
     c2e:	6309                	lui	t1,0x2
     c30:	00c588b3          	add	a7,a1,a2
     c34:	00d5b7b3          	sltu	a5,a1,a3
     c38:	13812423          	sw	s8,296(sp)
     c3c:	8c32                	mv	s8,a2
     c3e:	00668633          	add	a2,a3,t1
     c42:	14912223          	sw	s1,324(sp)
     c46:	9372                	add	t1,t1,t3
     c48:	84ae                	mv	s1,a1
     c4a:	0017c793          	xor	a5,a5,1
     c4e:	00c8b5b3          	sltu	a1,a7,a2
     c52:	13312e23          	sw	s3,316(sp)
     c56:	13412c23          	sw	s4,312(sp)
     c5a:	13712623          	sw	s7,300(sp)
     c5e:	01c4b833          	sltu	a6,s1,t3
     c62:	41c60633          	sub	a2,a2,t3
     c66:	406686b3          	sub	a3,a3,t1
     c6a:	14112623          	sw	ra,332(sp)
     c6e:	14812423          	sw	s0,328(sp)
     c72:	15212023          	sw	s2,320(sp)
     c76:	13512a23          	sw	s5,308(sp)
     c7a:	13612823          	sw	s6,304(sp)
     c7e:	13912223          	sw	s9,292(sp)
     c82:	00f5f9b3          	and	s3,a1,a5
     c86:	8a3a                	mv	s4,a4
     c88:	8baa                	mv	s7,a0
     c8a:	0068b8b3          	sltu	a7,a7,t1
     c8e:	00184713          	xor	a4,a6,1
     c92:	00163613          	seqz	a2,a2
     c96:	0016b693          	seqz	a3,a3
     c9a:	00098563          	beqz	s3,ca4 <_Z12RISCFileSeekPKcmmmP13dataslot_type+0x8c>
     c9e:	6529                	lui	a0,0xa
     ca0:	58154983          	lbu	s3,1409(a0) # a581 <cache_buffer_0_enabled>
     ca4:	00e8fab3          	and	s5,a7,a4
     ca8:	000a8563          	beqz	s5,cb2 <_Z12RISCFileSeekPKcmmmP13dataslot_type+0x9a>
     cac:	6529                	lui	a0,0xa
     cae:	58054a83          	lbu	s5,1408(a0) # a580 <cache_buffer_1_enabled>
     cb2:	fff7c513          	not	a0,a5
     cb6:	8ee9                	and	a3,a3,a0
     cb8:	fff74913          	not	s2,a4
     cbc:	8f6d                	and	a4,a4,a1
     cbe:	00c97933          	and	s2,s2,a2
     cc2:	0117f7b3          	and	a5,a5,a7
     cc6:	002a0593          	add	a1,s4,2
     cca:	00e6fb33          	and	s6,a3,a4
     cce:	855e                	mv	a0,s7
     cd0:	00f97433          	and	s0,s2,a5
     cd4:	c65a                	sw	s6,12(sp)
     cd6:	055030ef          	jal	452a <strcmp>
     cda:	8922                	mv	s2,s0
     cdc:	85aa                	mv	a1,a0
     cde:	0e051a63          	bnez	a0,dd2 <_Z12RISCFileSeekPKcmmmP13dataslot_type+0x1ba>
     ce2:	67a9                	lui	a5,0xa
     ce4:	58c7a783          	lw	a5,1420(a5) # a58c <sector_buffer_selector>
     ce8:	6ca9                	lui	s9,0xa
     cea:	5a0c8023          	sb	zero,1440(s9) # a5a0 <change_of_file>
     cee:	fff78713          	add	a4,a5,-1
     cf2:	ef59                	bnez	a4,d90 <_Z12RISCFileSeekPKcmmmP13dataslot_type+0x178>
     cf4:	08098e63          	beqz	s3,d90 <_Z12RISCFileSeekPKcmmmP13dataslot_type+0x178>
     cf8:	6515                	lui	a0,0x5
     cfa:	6ba9                	lui	s7,0xa
     cfc:	fbc50513          	add	a0,a0,-68 # 4fbc <stream_vscanf+0x980>
     d00:	580ba223          	sw	zero,1412(s7) # a584 <sector_buffer_processing>
     d04:	317020ef          	jal	381a <riscprintf_>
     d08:	5a0cc583          	lbu	a1,1440(s9)
     d0c:	584ba803          	lw	a6,1412(s7)
     d10:	6515                	lui	a0,0x5
     d12:	87da                	mv	a5,s6
     d14:	8722                	mv	a4,s0
     d16:	86d6                	mv	a3,s5
     d18:	864e                	mv	a2,s3
     d1a:	07450513          	add	a0,a0,116 # 5074 <stream_vscanf+0xa38>
     d1e:	2fd020ef          	jal	381a <riscprintf_>
     d22:	00144413          	xor	s0,s0,1
     d26:	001b4b13          	xor	s6,s6,1
     d2a:	0159e7b3          	or	a5,s3,s5
     d2e:	01647433          	and	s0,s0,s6
     d32:	0017c793          	xor	a5,a5,1
     d36:	8c7d                	and	s0,s0,a5
     d38:	1c041c63          	bnez	s0,f10 <_Z12RISCFileSeekPKcmmmP13dataslot_type+0x2f8>
     d3c:	5a0cc783          	lbu	a5,1440(s9)
     d40:	1c079863          	bnez	a5,f10 <_Z12RISCFileSeekPKcmmmP13dataslot_type+0x2f8>
     d44:	0c099863          	bnez	s3,e14 <_Z12RISCFileSeekPKcmmmP13dataslot_type+0x1fc>
     d48:	0c091663          	bnez	s2,e14 <_Z12RISCFileSeekPKcmmmP13dataslot_type+0x1fc>
     d4c:	120a9363          	bnez	s5,e72 <_Z12RISCFileSeekPKcmmmP13dataslot_type+0x25a>
     d50:	47b2                	lw	a5,12(sp)
     d52:	12079063          	bnez	a5,e72 <_Z12RISCFileSeekPKcmmmP13dataslot_type+0x25a>
     d56:	4501                	li	a0,0
     d58:	14c12083          	lw	ra,332(sp)
     d5c:	14812403          	lw	s0,328(sp)
     d60:	14412483          	lw	s1,324(sp)
     d64:	14012903          	lw	s2,320(sp)
     d68:	13c12983          	lw	s3,316(sp)
     d6c:	13812a03          	lw	s4,312(sp)
     d70:	13412a83          	lw	s5,308(sp)
     d74:	13012b03          	lw	s6,304(sp)
     d78:	12c12b83          	lw	s7,300(sp)
     d7c:	12812c03          	lw	s8,296(sp)
     d80:	12412c83          	lw	s9,292(sp)
     d84:	12012d03          	lw	s10,288(sp)
     d88:	11c12d83          	lw	s11,284(sp)
     d8c:	6171                	add	sp,sp,336
     d8e:	8082                	ret
     d90:	e399                	bnez	a5,d96 <_Z12RISCFileSeekPKcmmmP13dataslot_type+0x17e>
     d92:	0a0a9363          	bnez	s5,e38 <_Z12RISCFileSeekPKcmmmP13dataslot_type+0x220>
     d96:	0019c793          	xor	a5,s3,1
     d9a:	0127f6b3          	and	a3,a5,s2
     d9e:	001ac713          	xor	a4,s5,1
     da2:	c291                	beqz	a3,da6 <_Z12RISCFileSeekPKcmmmP13dataslot_type+0x18e>
     da4:	e74d                	bnez	a4,e4e <_Z12RISCFileSeekPKcmmmP13dataslot_type+0x236>
     da6:	46b2                	lw	a3,12(sp)
     da8:	8ff5                	and	a5,a5,a3
     daa:	c395                	beqz	a5,dce <_Z12RISCFileSeekPKcmmmP13dataslot_type+0x1b6>
     dac:	c30d                	beqz	a4,dce <_Z12RISCFileSeekPKcmmmP13dataslot_type+0x1b6>
     dae:	4b81                	li	s7,0
     db0:	a011                	j	db4 <_Z12RISCFileSeekPKcmmmP13dataslot_type+0x19c>
     db2:	0b85                	add	s7,s7,1
     db4:	943ff0ef          	jal	6f6 <_Z14dataslot_readyv>
     db8:	dd6d                	beqz	a0,db2 <_Z12RISCFileSeekPKcmmmP13dataslot_type+0x19a>
     dba:	855e                	mv	a0,s7
     dbc:	024020ef          	jal	2de0 <_Z23osd_display_info_updatei>
     dc0:	6515                	lui	a0,0x5
     dc2:	03850513          	add	a0,a0,56 # 5038 <stream_vscanf+0x9fc>
     dc6:	255020ef          	jal	381a <riscprintf_>
     dca:	5a0cc583          	lbu	a1,1440(s9)
     dce:	6ba9                	lui	s7,0xa
     dd0:	bf35                	j	d0c <_Z12RISCFileSeekPKcmmmP13dataslot_type+0xf4>
     dd2:	6515                	lui	a0,0x5
     dd4:	4785                	li	a5,1
     dd6:	6ca9                	lui	s9,0xa
     dd8:	fa450513          	add	a0,a0,-92 # 4fa4 <stream_vscanf+0x968>
     ddc:	5afc8023          	sb	a5,1440(s9) # a5a0 <change_of_file>
     de0:	23b020ef          	jal	381a <riscprintf_>
     de4:	6595                	lui	a1,0x5
     de6:	fb458593          	add	a1,a1,-76 # 4fb4 <stream_vscanf+0x978>
     dea:	86de                	mv	a3,s7
     dec:	101a0613          	add	a2,s4,257
     df0:	0808                	add	a0,sp,16
     df2:	678030ef          	jal	446a <sprintf>
     df6:	080c                	add	a1,sp,16
     df8:	8552                	mv	a0,s4
     dfa:	39dd                	jal	af0 <_Z20OpenFileNameDataSlotP13dataslot_typePKc>
     dfc:	f4a04de3          	bgtz	a0,d56 <_Z12RISCFileSeekPKcmmmP13dataslot_type+0x13e>
     e00:	67a9                	lui	a5,0xa
     e02:	58078023          	sb	zero,1408(a5) # a580 <cache_buffer_1_enabled>
     e06:	67a9                	lui	a5,0xa
     e08:	5a0cc583          	lbu	a1,1440(s9)
     e0c:	580780a3          	sb	zero,1409(a5) # a581 <cache_buffer_0_enabled>
     e10:	6ba9                	lui	s7,0xa
     e12:	bded                	j	d0c <_Z12RISCFileSeekPKcmmmP13dataslot_type+0xf4>
     e14:	598d2783          	lw	a5,1432(s10)
     e18:	66a9                	lui	a3,0xa
     e1a:	584ba703          	lw	a4,1412(s7) # a584 <sector_buffer_processing>
     e1e:	8c9d                	sub	s1,s1,a5
     e20:	5806a623          	sw	zero,1420(a3) # a58c <sector_buffer_selector>
     e24:	66a9                	lui	a3,0xa
     e26:	5896a423          	sw	s1,1416(a3) # a588 <sector_buffer_offset>
     e2a:	cb25                	beqz	a4,e9a <_Z12RISCFileSeekPKcmmmP13dataslot_type+0x282>
     e2c:	67a9                	lui	a5,0xa
     e2e:	4705                	li	a4,1
     e30:	58e780a3          	sb	a4,1409(a5) # a581 <cache_buffer_0_enabled>
     e34:	4505                	li	a0,1
     e36:	b70d                	j	d58 <_Z12RISCFileSeekPKcmmmP13dataslot_type+0x140>
     e38:	6515                	lui	a0,0x5
     e3a:	6ba9                	lui	s7,0xa
     e3c:	fdc50513          	add	a0,a0,-36 # 4fdc <stream_vscanf+0x9a0>
     e40:	580ba223          	sw	zero,1412(s7) # a584 <sector_buffer_processing>
     e44:	1d7020ef          	jal	381a <riscprintf_>
     e48:	5a0cc583          	lbu	a1,1440(s9)
     e4c:	b5c1                	j	d0c <_Z12RISCFileSeekPKcmmmP13dataslot_type+0xf4>
     e4e:	4b81                	li	s7,0
     e50:	a011                	j	e54 <_Z12RISCFileSeekPKcmmmP13dataslot_type+0x23c>
     e52:	0b85                	add	s7,s7,1
     e54:	8a3ff0ef          	jal	6f6 <_Z14dataslot_readyv>
     e58:	dd6d                	beqz	a0,e52 <_Z12RISCFileSeekPKcmmmP13dataslot_type+0x23a>
     e5a:	855e                	mv	a0,s7
     e5c:	785010ef          	jal	2de0 <_Z23osd_display_info_updatei>
     e60:	6515                	lui	a0,0x5
     e62:	ffc50513          	add	a0,a0,-4 # 4ffc <stream_vscanf+0x9c0>
     e66:	1b5020ef          	jal	381a <riscprintf_>
     e6a:	5a0cc583          	lbu	a1,1440(s9)
     e6e:	6ba9                	lui	s7,0xa
     e70:	bd71                	j	d0c <_Z12RISCFileSeekPKcmmmP13dataslot_type+0xf4>
     e72:	594da783          	lw	a5,1428(s11)
     e76:	6629                	lui	a2,0xa
     e78:	4705                	li	a4,1
     e7a:	584ba683          	lw	a3,1412(s7) # a584 <sector_buffer_processing>
     e7e:	8c9d                	sub	s1,s1,a5
     e80:	58e62623          	sw	a4,1420(a2) # a58c <sector_buffer_selector>
     e84:	6629                	lui	a2,0xa
     e86:	58962423          	sw	s1,1416(a2) # a588 <sector_buffer_offset>
     e8a:	18068363          	beqz	a3,1010 <_Z12RISCFileSeekPKcmmmP13dataslot_type+0x3f8>
     e8e:	67a9                	lui	a5,0xa
     e90:	4705                	li	a4,1
     e92:	58e78023          	sb	a4,1408(a5) # a580 <cache_buffer_1_enabled>
     e96:	4505                	li	a0,1
     e98:	b5c1                	j	d58 <_Z12RISCFileSeekPKcmmmP13dataslot_type+0x140>
     e9a:	6709                	lui	a4,0x2
     e9c:	97ba                	add	a5,a5,a4
     e9e:	4705                	li	a4,1
     ea0:	58eba223          	sw	a4,1412(s7)
     ea4:	58fdaa23          	sw	a5,1428(s11)
     ea8:	4401                	li	s0,0
     eaa:	a011                	j	eae <_Z12RISCFileSeekPKcmmmP13dataslot_type+0x296>
     eac:	0405                	add	s0,s0,1
     eae:	849ff0ef          	jal	6f6 <_Z14dataslot_readyv>
     eb2:	dd6d                	beqz	a0,eac <_Z12RISCFileSeekPKcmmmP13dataslot_type+0x294>
     eb4:	8522                	mv	a0,s0
     eb6:	72b010ef          	jal	2de0 <_Z23osd_display_info_updatei>
     eba:	6515                	lui	a0,0x5
     ebc:	0c450513          	add	a0,a0,196 # 50c4 <stream_vscanf+0xa88>
     ec0:	15b020ef          	jal	381a <riscprintf_>
     ec4:	594da603          	lw	a2,1428(s11)
     ec8:	000a5503          	lhu	a0,0(s4)
     ecc:	810025b7          	lui	a1,0x81002
     ed0:	9a1ff0ef          	jal	870 <_Z21dataslot_read_lba_settmm>
     ed4:	000a5503          	lhu	a0,0(s4)
     ed8:	594da403          	lw	s0,1428(s11)
     edc:	851ff0ef          	jal	72c <_Z13dataslot_sizet>
     ee0:	408504b3          	sub	s1,a0,s0
     ee4:	862a                	mv	a2,a0
     ee6:	892a                	mv	s2,a0
     ee8:	6515                	lui	a0,0x5
     eea:	86a2                	mv	a3,s0
     eec:	85a6                	mv	a1,s1
     eee:	f7850513          	add	a0,a0,-136 # 4f78 <stream_vscanf+0x93c>
     ef2:	129020ef          	jal	381a <riscprintf_>
     ef6:	6789                	lui	a5,0x2
     ef8:	1897ca63          	blt	a5,s1,108c <_Z12RISCFileSeekPKcmmmP13dataslot_type+0x474>
     efc:	01243433          	sltu	s0,s0,s2
     f00:	40800433          	neg	s0,s0
     f04:	8ce1                	and	s1,s1,s0
     f06:	4581                	li	a1,0
     f08:	8526                	mv	a0,s1
     f0a:	a21ff0ef          	jal	92a <_Z22dataslot_read_lba_fastmb>
     f0e:	bf39                	j	e2c <_Z12RISCFileSeekPKcmmmP13dataslot_type+0x214>
     f10:	000a5703          	lhu	a4,0(s4)
     f14:	67a9                	lui	a5,0xa
     f16:	5987a823          	sw	s8,1424(a5) # a590 <sector_buffer_size>
     f1a:	67a9                	lui	a5,0xa
     f1c:	58e7ae23          	sw	a4,1436(a5) # a59c <sector_buffer_dataslot>
     f20:	67a9                	lui	a5,0xa
     f22:	5807a623          	sw	zero,1420(a5) # a58c <sector_buffer_selector>
     f26:	67a9                	lui	a5,0xa
     f28:	589d2c23          	sw	s1,1432(s10)
     f2c:	580daa23          	sw	zero,1428(s11)
     f30:	5807a423          	sw	zero,1416(a5) # a588 <sector_buffer_offset>
     f34:	5a0c8023          	sb	zero,1440(s9)
     f38:	4401                	li	s0,0
     f3a:	a011                	j	f3e <_Z12RISCFileSeekPKcmmmP13dataslot_type+0x326>
     f3c:	0405                	add	s0,s0,1
     f3e:	fb8ff0ef          	jal	6f6 <_Z14dataslot_readyv>
     f42:	dd6d                	beqz	a0,f3c <_Z12RISCFileSeekPKcmmmP13dataslot_type+0x324>
     f44:	8522                	mv	a0,s0
     f46:	69b010ef          	jal	2de0 <_Z23osd_display_info_updatei>
     f4a:	6515                	lui	a0,0x5
     f4c:	0a850513          	add	a0,a0,168 # 50a8 <stream_vscanf+0xa6c>
     f50:	0cb020ef          	jal	381a <riscprintf_>
     f54:	598d2603          	lw	a2,1432(s10)
     f58:	000a5503          	lhu	a0,0(s4)
     f5c:	810005b7          	lui	a1,0x81000
     f60:	6a95                	lui	s5,0x5
     f62:	90fff0ef          	jal	870 <_Z21dataslot_read_lba_settmm>
     f66:	000a5503          	lhu	a0,0(s4)
     f6a:	598d2983          	lw	s3,1432(s10)
     f6e:	fbeff0ef          	jal	72c <_Z13dataslot_sizet>
     f72:	41350933          	sub	s2,a0,s3
     f76:	862a                	mv	a2,a0
     f78:	842a                	mv	s0,a0
     f7a:	86ce                	mv	a3,s3
     f7c:	85ca                	mv	a1,s2
     f7e:	f78a8513          	add	a0,s5,-136 # 4f78 <stream_vscanf+0x93c>
     f82:	099020ef          	jal	381a <riscprintf_>
     f86:	6789                	lui	a5,0x2
     f88:	0327c863          	blt	a5,s2,fb8 <_Z12RISCFileSeekPKcmmmP13dataslot_type+0x3a0>
     f8c:	0089f463          	bgeu	s3,s0,f94 <_Z12RISCFileSeekPKcmmmP13dataslot_type+0x37c>
     f90:	02091563          	bnez	s2,fba <_Z12RISCFileSeekPKcmmmP13dataslot_type+0x3a2>
     f94:	06500513          	li	a0,101
     f98:	f94ff0ef          	jal	72c <_Z13dataslot_sizet>
     f9c:	6409                	lui	s0,0x2
     f9e:	02a46263          	bltu	s0,a0,fc2 <_Z12RISCFileSeekPKcmmmP13dataslot_type+0x3aa>
     fa2:	4785                	li	a5,1
     fa4:	6729                	lui	a4,0xa
     fa6:	58f70023          	sb	a5,1408(a4) # a580 <cache_buffer_1_enabled>
     faa:	6729                	lui	a4,0xa
     fac:	58f700a3          	sb	a5,1409(a4) # a581 <cache_buffer_0_enabled>
     fb0:	58fba223          	sw	a5,1412(s7)
     fb4:	4505                	li	a0,1
     fb6:	b34d                	j	d58 <_Z12RISCFileSeekPKcmmmP13dataslot_type+0x140>
     fb8:	6909                	lui	s2,0x2
     fba:	854a                	mv	a0,s2
     fbc:	8dfff0ef          	jal	89a <_Z17dataslot_read_lbam>
     fc0:	bfd1                	j	f94 <_Z12RISCFileSeekPKcmmmP13dataslot_type+0x37c>
     fc2:	000a5503          	lhu	a0,0(s4)
     fc6:	00848633          	add	a2,s1,s0
     fca:	810025b7          	lui	a1,0x81002
     fce:	58cdaa23          	sw	a2,1428(s11)
     fd2:	89fff0ef          	jal	870 <_Z21dataslot_read_lba_settmm>
     fd6:	000a5503          	lhu	a0,0(s4)
     fda:	594da483          	lw	s1,1428(s11)
     fde:	f4eff0ef          	jal	72c <_Z13dataslot_sizet>
     fe2:	409509b3          	sub	s3,a0,s1
     fe6:	892a                	mv	s2,a0
     fe8:	862a                	mv	a2,a0
     fea:	86a6                	mv	a3,s1
     fec:	85ce                	mv	a1,s3
     fee:	f78a8513          	add	a0,s5,-136
     ff2:	029020ef          	jal	381a <riscprintf_>
     ff6:	09344763          	blt	s0,s3,1084 <_Z12RISCFileSeekPKcmmmP13dataslot_type+0x46c>
     ffa:	0124b4b3          	sltu	s1,s1,s2
     ffe:	409004b3          	neg	s1,s1
    1002:	0099f9b3          	and	s3,s3,s1
    1006:	4581                	li	a1,0
    1008:	854e                	mv	a0,s3
    100a:	921ff0ef          	jal	92a <_Z22dataslot_read_lba_fastmb>
    100e:	bf51                	j	fa2 <_Z12RISCFileSeekPKcmmmP13dataslot_type+0x38a>
    1010:	6689                	lui	a3,0x2
    1012:	97b6                	add	a5,a5,a3
    1014:	58eba223          	sw	a4,1412(s7)
    1018:	58fd2c23          	sw	a5,1432(s10)
    101c:	4401                	li	s0,0
    101e:	a011                	j	1022 <_Z12RISCFileSeekPKcmmmP13dataslot_type+0x40a>
    1020:	0405                	add	s0,s0,1 # 2001 <_ZN5cue_t11CommandExecEv+0x2f5>
    1022:	ed4ff0ef          	jal	6f6 <_Z14dataslot_readyv>
    1026:	dd6d                	beqz	a0,1020 <_Z12RISCFileSeekPKcmmmP13dataslot_type+0x408>
    1028:	8522                	mv	a0,s0
    102a:	5b7010ef          	jal	2de0 <_Z23osd_display_info_updatei>
    102e:	6515                	lui	a0,0x5
    1030:	0f050513          	add	a0,a0,240 # 50f0 <stream_vscanf+0xab4>
    1034:	7e6020ef          	jal	381a <riscprintf_>
    1038:	598d2603          	lw	a2,1432(s10)
    103c:	000a5503          	lhu	a0,0(s4)
    1040:	810005b7          	lui	a1,0x81000
    1044:	82dff0ef          	jal	870 <_Z21dataslot_read_lba_settmm>
    1048:	000a5503          	lhu	a0,0(s4)
    104c:	598d2403          	lw	s0,1432(s10)
    1050:	edcff0ef          	jal	72c <_Z13dataslot_sizet>
    1054:	408504b3          	sub	s1,a0,s0
    1058:	862a                	mv	a2,a0
    105a:	892a                	mv	s2,a0
    105c:	6515                	lui	a0,0x5
    105e:	86a2                	mv	a3,s0
    1060:	85a6                	mv	a1,s1
    1062:	f7850513          	add	a0,a0,-136 # 4f78 <stream_vscanf+0x93c>
    1066:	7b4020ef          	jal	381a <riscprintf_>
    106a:	6789                	lui	a5,0x2
    106c:	0097ce63          	blt	a5,s1,1088 <_Z12RISCFileSeekPKcmmmP13dataslot_type+0x470>
    1070:	01243433          	sltu	s0,s0,s2
    1074:	40800433          	neg	s0,s0
    1078:	8ce1                	and	s1,s1,s0
    107a:	4581                	li	a1,0
    107c:	8526                	mv	a0,s1
    107e:	8adff0ef          	jal	92a <_Z22dataslot_read_lba_fastmb>
    1082:	b531                	j	e8e <_Z12RISCFileSeekPKcmmmP13dataslot_type+0x276>
    1084:	6989                	lui	s3,0x2
    1086:	b741                	j	1006 <_Z12RISCFileSeekPKcmmmP13dataslot_type+0x3ee>
    1088:	6489                	lui	s1,0x2
    108a:	bfc5                	j	107a <_Z12RISCFileSeekPKcmmmP13dataslot_type+0x462>
    108c:	6489                	lui	s1,0x2
    108e:	bda5                	j	f06 <_Z12RISCFileSeekPKcmmmP13dataslot_type+0x2ee>

00001090 <_Z15RISCFileReadAdvihhhm>:
    1090:	1101                	add	sp,sp,-32
    1092:	67a9                	lui	a5,0xa
    1094:	c84a                	sw	s2,16(sp)
    1096:	5887a903          	lw	s2,1416(a5) # a588 <sector_buffer_offset>
    109a:	67a9                	lui	a5,0xa
    109c:	5907a783          	lw	a5,1424(a5) # a590 <sector_buffer_size>
    10a0:	cc22                	sw	s0,24(sp)
    10a2:	ca26                	sw	s1,20(sp)
    10a4:	c64e                	sw	s3,12(sp)
    10a6:	0622                	sll	a2,a2,0x8
    10a8:	00f90833          	add	a6,s2,a5
    10ac:	6529                	lui	a0,0xa
    10ae:	ce06                	sw	ra,28(sp)
    10b0:	6789                	lui	a5,0x2
    10b2:	58c52503          	lw	a0,1420(a0) # a58c <sector_buffer_selector>
    10b6:	89b6                	mv	s3,a3
    10b8:	84ba                	mv	s1,a4
    10ba:	00b66433          	or	s0,a2,a1
    10be:	02f87463          	bgeu	a6,a5,10e6 <_Z15RISCFileReadAdvihhhm+0x56>
    10c2:	c541                	beqz	a0,114a <_Z15RISCFileReadAdvihhhm+0xba>
    10c4:	010027b7          	lui	a5,0x1002
    10c8:	993e                	add	s2,s2,a5
    10ca:	5b8010ef          	jal	2682 <_Z12HPS_EnableIOv>
    10ce:	854e                	mv	a0,s3
    10d0:	5e6010ef          	jal	26b6 <_Z12HPS_fpga_spit>
    10d4:	8522                	mv	a0,s0
    10d6:	5e0010ef          	jal	26b6 <_Z12HPS_fpga_spit>
    10da:	4605                	li	a2,1
    10dc:	85a6                	mv	a1,s1
    10de:	854a                	mv	a0,s2
    10e0:	618010ef          	jal	26f8 <_Z13HPS_spi_writePKhmi>
    10e4:	a099                	j	112a <_Z15RISCFileReadAdvihhhm+0x9a>
    10e6:	40f907b3          	sub	a5,s2,a5
    10ea:	c452                	sw	s4,8(sp)
    10ec:	c256                	sw	s5,4(sp)
    10ee:	00e784b3          	add	s1,a5,a4
    10f2:	c531                	beqz	a0,113e <_Z15RISCFileReadAdvihhhm+0xae>
    10f4:	01002a37          	lui	s4,0x1002
    10f8:	9a4a                	add	s4,s4,s2
    10fa:	01000ab7          	lui	s5,0x1000
    10fe:	584010ef          	jal	2682 <_Z12HPS_EnableIOv>
    1102:	854e                	mv	a0,s3
    1104:	5b2010ef          	jal	26b6 <_Z12HPS_fpga_spit>
    1108:	8522                	mv	a0,s0
    110a:	5ac010ef          	jal	26b6 <_Z12HPS_fpga_spit>
    110e:	6589                	lui	a1,0x2
    1110:	8552                	mv	a0,s4
    1112:	4605                	li	a2,1
    1114:	412585b3          	sub	a1,a1,s2
    1118:	5e0010ef          	jal	26f8 <_Z13HPS_spi_writePKhmi>
    111c:	8556                	mv	a0,s5
    111e:	4605                	li	a2,1
    1120:	85a6                	mv	a1,s1
    1122:	5d6010ef          	jal	26f8 <_Z13HPS_spi_writePKhmi>
    1126:	4a22                	lw	s4,8(sp)
    1128:	4a92                	lw	s5,4(sp)
    112a:	56e010ef          	jal	2698 <_Z13HPS_DisableIOv>
    112e:	40f2                	lw	ra,28(sp)
    1130:	4462                	lw	s0,24(sp)
    1132:	44d2                	lw	s1,20(sp)
    1134:	4942                	lw	s2,16(sp)
    1136:	49b2                	lw	s3,12(sp)
    1138:	4505                	li	a0,1
    113a:	6105                	add	sp,sp,32
    113c:	8082                	ret
    113e:	01000a37          	lui	s4,0x1000
    1142:	9a4a                	add	s4,s4,s2
    1144:	01002ab7          	lui	s5,0x1002
    1148:	bf5d                	j	10fe <_Z15RISCFileReadAdvihhhm+0x6e>
    114a:	010007b7          	lui	a5,0x1000
    114e:	993e                	add	s2,s2,a5
    1150:	bfad                	j	10ca <_Z15RISCFileReadAdvihhhm+0x3a>

00001152 <_ZN5cue_t8ReadDataEv.part.0>:
    1152:	1141                	add	sp,sp,-16
    1154:	c226                	sw	s1,4(sp)
    1156:	6491                	lui	s1,0x4
    1158:	94aa                	add	s1,s1,a0
    115a:	4c8c                	lw	a1,24(s1)
    115c:	c606                	sw	ra,12(sp)
    115e:	0005d663          	bgez	a1,116a <_ZN5cue_t8ReadDataEv.part.0+0x18>
    1162:	40b2                	lw	ra,12(sp)
    1164:	4492                	lw	s1,4(sp)
    1166:	0141                	add	sp,sp,16
    1168:	8082                	ret
    116a:	c422                	sw	s0,8(sp)
    116c:	842a                	mv	s0,a0
    116e:	6515                	lui	a0,0x5
    1170:	11c50513          	add	a0,a0,284 # 511c <stream_vscanf+0xae0>
    1174:	6a6020ef          	jal	381a <riscprintf_>
    1178:	4894                	lw	a3,16(s1)
    117a:	0a400513          	li	a0,164
    117e:	4c8c                	lw	a1,24(s1)
    1180:	02a68533          	mul	a0,a3,a0
    1184:	00a40733          	add	a4,s0,a0
    1188:	0c472783          	lw	a5,196(a4)
    118c:	80078793          	add	a5,a5,-2048 # fff800 <_end+0xff4e40>
    1190:	c3b5                	beqz	a5,11f4 <_ZN5cue_t8ReadDataEv.part.0+0xa2>
    1192:	0a872783          	lw	a5,168(a4)
    1196:	6605                	lui	a2,0x1
    1198:	93060613          	add	a2,a2,-1744 # 930 <_Z22dataslot_read_lba_fastmb+0x6>
    119c:	0c850513          	add	a0,a0,200
    11a0:	02c585b3          	mul	a1,a1,a2
    11a4:	9522                	add	a0,a0,s0
    11a6:	c3a1                	beqz	a5,11e6 <_ZN5cue_t8ReadDataEv.part.0+0x94>
    11a8:	0b072783          	lw	a5,176(a4)
    11ac:	6719                	lui	a4,0x6
    11ae:	02870713          	add	a4,a4,40 # 6028 <aft>
    11b2:	8d9d                	sub	a1,a1,a5
    11b4:	05c1                	add	a1,a1,16 # 2010 <_ZN5cue_t11CommandExecEv+0x304>
    11b6:	a63ff0ef          	jal	c18 <_Z12RISCFileSeekPKcmmmP13dataslot_type>
    11ba:	6791                	lui	a5,0x4
    11bc:	97a2                	add	a5,a5,s0
    11be:	4b9c                	lw	a5,16(a5)
    11c0:	0a400713          	li	a4,164
    11c4:	40b2                	lw	ra,12(sp)
    11c6:	02e787b3          	mul	a5,a5,a4
    11ca:	4492                	lw	s1,4(sp)
    11cc:	03600693          	li	a3,54
    11d0:	08800613          	li	a2,136
    11d4:	4581                	li	a1,0
    11d6:	943e                	add	s0,s0,a5
    11d8:	0c442703          	lw	a4,196(s0)
    11dc:	0a442503          	lw	a0,164(s0)
    11e0:	4422                	lw	s0,8(sp)
    11e2:	0141                	add	sp,sp,16
    11e4:	b575                	j	1090 <_Z15RISCFileReadAdvihhhm>
    11e6:	6719                	lui	a4,0x6
    11e8:	02870713          	add	a4,a4,40 # 6028 <aft>
    11ec:	05c1                	add	a1,a1,16
    11ee:	a2bff0ef          	jal	c18 <_Z12RISCFileSeekPKcmmmP13dataslot_type>
    11f2:	b7e1                	j	11ba <_ZN5cue_t8ReadDataEv.part.0+0x68>
    11f4:	0a872783          	lw	a5,168(a4)
    11f8:	0c850513          	add	a0,a0,200
    11fc:	05ae                	sll	a1,a1,0xb
    11fe:	9522                	add	a0,a0,s0
    1200:	ef9d                	bnez	a5,123e <_ZN5cue_t8ReadDataEv.part.0+0xec>
    1202:	6605                	lui	a2,0x1
    1204:	6719                	lui	a4,0x6
    1206:	02870713          	add	a4,a4,40 # 6028 <aft>
    120a:	80060613          	add	a2,a2,-2048 # 800 <_Z13dataslot_readtmmm+0x82>
    120e:	a0bff0ef          	jal	c18 <_Z12RISCFileSeekPKcmmmP13dataslot_type>
    1212:	6791                	lui	a5,0x4
    1214:	97a2                	add	a5,a5,s0
    1216:	4b9c                	lw	a5,16(a5)
    1218:	0a400713          	li	a4,164
    121c:	40b2                	lw	ra,12(sp)
    121e:	02e787b3          	mul	a5,a5,a4
    1222:	4492                	lw	s1,4(sp)
    1224:	03600693          	li	a3,54
    1228:	08800613          	li	a2,136
    122c:	4581                	li	a1,0
    122e:	97a2                	add	a5,a5,s0
    1230:	4422                	lw	s0,8(sp)
    1232:	0c47a703          	lw	a4,196(a5) # 40c4 <vbuf_printf+0x42>
    1236:	0a47a503          	lw	a0,164(a5)
    123a:	0141                	add	sp,sp,16
    123c:	bd91                	j	1090 <_Z15RISCFileReadAdvihhhm>
    123e:	0b072783          	lw	a5,176(a4)
    1242:	6605                	lui	a2,0x1
    1244:	6719                	lui	a4,0x6
    1246:	02870713          	add	a4,a4,40 # 6028 <aft>
    124a:	80060613          	add	a2,a2,-2048 # 800 <_Z13dataslot_readtmmm+0x82>
    124e:	8d9d                	sub	a1,a1,a5
    1250:	9c9ff0ef          	jal	c18 <_Z12RISCFileSeekPKcmmmP13dataslot_type>
    1254:	bf7d                	j	1212 <_ZN5cue_t8ReadDataEv.part.0+0xc0>

00001256 <_ZN5cue_t7LoadCUEEi>:
    1256:	7149                	add	sp,sp,-368
    1258:	6799                	lui	a5,0x6
    125a:	16812423          	sw	s0,360(sp)
    125e:	17212023          	sw	s2,352(sp)
    1262:	15312e23          	sw	s3,348(sp)
    1266:	15512a23          	sw	s5,340(sp)
    126a:	16112623          	sw	ra,364(sp)
    126e:	02878913          	add	s2,a5,40 # 6028 <aft>
    1272:	842a                	mv	s0,a0
    1274:	02878513          	add	a0,a5,40
    1278:	06400793          	li	a5,100
    127c:	00f91023          	sh	a5,0(s2) # 2000 <_ZN5cue_t11CommandExecEv+0x2f4>
    1280:	89ae                	mv	s3,a1
    1282:	f96ff0ef          	jal	a18 <_Z19GetFileNameDataSlotP13dataslot_type>
    1286:	77c1                	lui	a5,0xffff0
    1288:	0047aa83          	lw	s5,4(a5) # ffff0004 <_end+0xfffe5644>
    128c:	06400513          	li	a0,100
    1290:	440a8263          	beqz	s5,16d4 <_ZN5cue_t7LoadCUEEi+0x47e>
    1294:	6591                	lui	a1,0x4
    1296:	4501                	li	a0,0
    1298:	16912223          	sw	s1,356(sp)
    129c:	15612823          	sw	s6,336(sp)
    12a0:	15712623          	sw	s7,332(sp)
    12a4:	15812423          	sw	s8,328(sp)
    12a8:	15912223          	sw	s9,324(sp)
    12ac:	15a12023          	sw	s10,320(sp)
    12b0:	15412c23          	sw	s4,344(sp)
    12b4:	13b12e23          	sw	s11,316(sp)
    12b8:	94bff0ef          	jal	c02 <_Z14clearscrachrammm>
    12bc:	010007b7          	lui	a5,0x1000
    12c0:	810005b7          	lui	a1,0x81000
    12c4:	20078793          	add	a5,a5,512 # 1000200 <_end+0xff5840>
    12c8:	6c29                	lui	s8,0xa
    12ca:	86d6                	mv	a3,s5
    12cc:	4601                	li	a2,0
    12ce:	20058593          	add	a1,a1,512 # 81000200 <_end+0x80ff5840>
    12d2:	06400513          	li	a0,100
    12d6:	6499                	lui	s1,0x6
    12d8:	ff000b37          	lui	s6,0xff000
    12dc:	5afc2223          	sw	a5,1444(s8) # a5a4 <foo1>
    12e0:	4cb5                	li	s9,13
    12e2:	c9cff0ef          	jal	77e <_Z13dataslot_readtmmm>
    12e6:	07e00d13          	li	s10,126
    12ea:	01391023          	sh	s3,0(s2)
    12ee:	ca02                	sw	zero,20(sp)
    12f0:	cc02                	sw	zero,24(sp)
    12f2:	ce02                	sw	zero,28(sp)
    12f4:	25448b93          	add	s7,s1,596 # 6254 <_ZZN5cue_t7LoadCUEEiE4line>
    12f8:	e00b0b13          	add	s6,s6,-512 # fefffe00 <_end+0xfeff5440>
    12fc:	5a4c2703          	lw	a4,1444(s8)
    1300:	24048a23          	sb	zero,596(s1)
    1304:	4e29                	li	t3,10
    1306:	00074783          	lbu	a5,0(a4)
    130a:	c7a9                	beqz	a5,1354 <_ZN5cue_t7LoadCUEEi+0xfe>
    130c:	5a4c2683          	lw	a3,1444(s8)
    1310:	4601                	li	a2,0
    1312:	13c78c63          	beq	a5,t3,144a <_ZN5cue_t7LoadCUEEi+0x1f4>
    1316:	0705                	add	a4,a4,1
    1318:	0685                	add	a3,a3,1 # 2001 <_ZN5cue_t11CommandExecEv+0x2f5>
    131a:	01978f63          	beq	a5,s9,1338 <_ZN5cue_t7LoadCUEEi+0xe2>
    131e:	00160593          	add	a1,a2,1
    1322:	01760333          	add	t1,a2,s7
    1326:	01758533          	add	a0,a1,s7
    132a:	00cd4763          	blt	s10,a2,1338 <_ZN5cue_t7LoadCUEEi+0xe2>
    132e:	00f30023          	sb	a5,0(t1) # 2000 <_ZN5cue_t11CommandExecEv+0x2f4>
    1332:	00050023          	sb	zero,0(a0)
    1336:	862e                	mv	a2,a1
    1338:	5adc2223          	sw	a3,1444(s8)
    133c:	00074783          	lbu	a5,0(a4)
    1340:	fbe9                	bnez	a5,1312 <_ZN5cue_t7LoadCUEEi+0xbc>
    1342:	00074783          	lbu	a5,0(a4)
    1346:	c799                	beqz	a5,1354 <_ZN5cue_t7LoadCUEEi+0xfe>
    1348:	5a4c2703          	lw	a4,1444(s8)
    134c:	016707b3          	add	a5,a4,s6
    1350:	fb57fbe3          	bgeu	a5,s5,1306 <_ZN5cue_t7LoadCUEEi+0xb0>
    1354:	2544c783          	lbu	a5,596(s1)
    1358:	2a078863          	beqz	a5,1608 <_ZN5cue_t7LoadCUEEi+0x3b2>
    135c:	2544c683          	lbu	a3,596(s1)
    1360:	02000793          	li	a5,32
    1364:	25448a13          	add	s4,s1,596
    1368:	02000713          	li	a4,32
    136c:	00f69763          	bne	a3,a5,137a <_ZN5cue_t7LoadCUEEi+0x124>
    1370:	001a4783          	lbu	a5,1(s4) # 1000001 <_end+0xff5641>
    1374:	0a05                	add	s4,s4,1
    1376:	fee78de3          	beq	a5,a4,1370 <_ZN5cue_t7LoadCUEEi+0x11a>
    137a:	000a4703          	lbu	a4,0(s4)
    137e:	04600793          	li	a5,70
    1382:	0cf70b63          	beq	a4,a5,1458 <_ZN5cue_t7LoadCUEEi+0x202>
    1386:	6d95                	lui	s11,0x5
    1388:	1070                	add	a2,sp,44
    138a:	154d8593          	add	a1,s11,340 # 5154 <stream_vscanf+0xb18>
    138e:	8552                	mv	a0,s4
    1390:	16c030ef          	jal	44fc <sscanf>
    1394:	20050163          	beqz	a0,1596 <_ZN5cue_t7LoadCUEEi+0x340>
    1398:	501c                	lw	a5,32(s0)
    139a:	5732                	lw	a4,44(sp)
    139c:	00178693          	add	a3,a5,1
    13a0:	4ce69663          	bne	a3,a4,186c <_ZN5cue_t7LoadCUEEi+0x616>
    13a4:	20092683          	lw	a3,512(s2)
    13a8:	20492703          	lw	a4,516(s2)
    13ac:	6799                	lui	a5,0x6
    13ae:	6599                	lui	a1,0x6
    13b0:	6515                	lui	a0,0x5
    13b2:	02a78613          	add	a2,a5,42 # 602a <aft+0x2>
    13b6:	12958593          	add	a1,a1,297 # 6129 <aft+0x101>
    13ba:	17c50513          	add	a0,a0,380 # 517c <stream_vscanf+0xb40>
    13be:	45c020ef          	jal	381a <riscprintf_>
    13c2:	02042d83          	lw	s11,32(s0)
    13c6:	0a400793          	li	a5,164
    13ca:	20492683          	lw	a3,516(s2)
    13ce:	02fd87b3          	mul	a5,s11,a5
    13d2:	00095603          	lhu	a2,0(s2)
    13d6:	6595                	lui	a1,0x5
    13d8:	1c458593          	add	a1,a1,452 # 51c4 <stream_vscanf+0xb88>
    13dc:	8552                	mv	a0,s4
    13de:	00f409b3          	add	s3,s0,a5
    13e2:	0ac9a223          	sw	a2,164(s3) # 20a4 <_ZN5cue_t11CommandExecEv+0x398>
    13e6:	0ad9a623          	sw	a3,172(s3)
    13ea:	21a030ef          	jal	4604 <strstr>
    13ee:	1e050c63          	beqz	a0,15e6 <_ZN5cue_t7LoadCUEEi+0x390>
    13f2:	6685                	lui	a3,0x1
    13f4:	80068693          	add	a3,a3,-2048 # 800 <_Z13dataslot_readtmmm+0x82>
    13f8:	0cd9a223          	sw	a3,196(s3)
    13fc:	4685                	li	a3,1
    13fe:	0cd9a023          	sw	a3,192(s3)
    1402:	47e2                	lw	a5,24(sp)
    1404:	16078563          	beqz	a5,156e <_ZN5cue_t7LoadCUEEi+0x318>
    1408:	0a400793          	li	a5,164
    140c:	02fd87b3          	mul	a5,s11,a5
    1410:	17b05e63          	blez	s11,158c <_ZN5cue_t7LoadCUEEi+0x336>
    1414:	4685                	li	a3,1
    1416:	97a2                	add	a5,a5,s0
    1418:	0ad7a423          	sw	a3,168(a5)
    141c:	00dd8463          	beq	s11,a3,1424 <_ZN5cue_t7LoadCUEEi+0x1ce>
    1420:	cc02                	sw	zero,24(sp)
    1422:	bde9                	j	12fc <_ZN5cue_t7LoadCUEEi+0xa6>
    1424:	0ac42783          	lw	a5,172(s0)
    1428:	0b042583          	lw	a1,176(s0)
    142c:	0c442603          	lw	a2,196(s0)
    1430:	0b842683          	lw	a3,184(s0)
    1434:	8f8d                	sub	a5,a5,a1
    1436:	02c7c7b3          	div	a5,a5,a2
    143a:	0bb42423          	sw	s11,168(s0)
    143e:	cc02                	sw	zero,24(sp)
    1440:	97b6                	add	a5,a5,a3
    1442:	0af42e23          	sw	a5,188(s0)
    1446:	cc5c                	sw	a5,28(s0)
    1448:	bd55                	j	12fc <_ZN5cue_t7LoadCUEEi+0xa6>
    144a:	5a4c2783          	lw	a5,1444(s8)
    144e:	0705                	add	a4,a4,1
    1450:	0785                	add	a5,a5,1
    1452:	5afc2223          	sw	a5,1444(s8)
    1456:	b5f5                	j	1342 <_ZN5cue_t7LoadCUEEi+0xec>
    1458:	001a4703          	lbu	a4,1(s4)
    145c:	04900793          	li	a5,73
    1460:	f2f713e3          	bne	a4,a5,1386 <_ZN5cue_t7LoadCUEEi+0x130>
    1464:	002a4703          	lbu	a4,2(s4)
    1468:	04c00793          	li	a5,76
    146c:	f0f71de3          	bne	a4,a5,1386 <_ZN5cue_t7LoadCUEEi+0x130>
    1470:	003a4703          	lbu	a4,3(s4)
    1474:	04500793          	li	a5,69
    1478:	f0f717e3          	bne	a4,a5,1386 <_ZN5cue_t7LoadCUEEi+0x130>
    147c:	02042383          	lw	t2,32(s0)
    1480:	0a400793          	li	a5,164
    1484:	005a0713          	add	a4,s4,5
    1488:	02f383b3          	mul	t2,t2,a5
    148c:	00074783          	lbu	a5,0(a4)
    1490:	4681                	li	a3,0
    1492:	05c00e13          	li	t3,92
    1496:	4501                	li	a0,0
    1498:	02200e93          	li	t4,34
    149c:	02f00f13          	li	t5,47
    14a0:	02000293          	li	t0,32
    14a4:	4f85                	li	t6,1
    14a6:	007405b3          	add	a1,s0,t2
    14aa:	00d58633          	add	a2,a1,a3
    14ae:	0cf60423          	sb	a5,200(a2)
    14b2:	03c78663          	beq	a5,t3,14de <_ZN5cue_t7LoadCUEEi+0x288>
    14b6:	03e78463          	beq	a5,t5,14de <_ZN5cue_t7LoadCUEEi+0x288>
    14ba:	00168613          	add	a2,a3,1
    14be:	0bd78563          	beq	a5,t4,1568 <_ZN5cue_t7LoadCUEEi+0x312>
    14c2:	00579463          	bne	a5,t0,14ca <_ZN5cue_t7LoadCUEEi+0x274>
    14c6:	03f51563          	bne	a0,t6,14f0 <_ZN5cue_t7LoadCUEEi+0x29a>
    14ca:	86b2                	mv	a3,a2
    14cc:	0705                	add	a4,a4,1
    14ce:	00074783          	lbu	a5,0(a4)
    14d2:	00d58633          	add	a2,a1,a3
    14d6:	0cf60423          	sb	a5,200(a2)
    14da:	fdc79ee3          	bne	a5,t3,14b6 <_ZN5cue_t7LoadCUEEi+0x260>
    14de:	0c75c783          	lbu	a5,199(a1)
    14e2:	4681                	li	a3,0
    14e4:	ffd794e3          	bne	a5,t4,14cc <_ZN5cue_t7LoadCUEEi+0x276>
    14e8:	0505                	add	a0,a0,1
    14ea:	56fd                	li	a3,-1
    14ec:	0705                	add	a4,a4,1
    14ee:	b7c5                	j	14ce <_ZN5cue_t7LoadCUEEi+0x278>
    14f0:	0c838693          	add	a3,t2,200
    14f4:	6619                	lui	a2,0x6
    14f6:	6595                	lui	a1,0x5
    14f8:	fb458593          	add	a1,a1,-76 # 4fb4 <stream_vscanf+0x978>
    14fc:	96a2                	add	a3,a3,s0
    14fe:	12960613          	add	a2,a2,297 # 6129 <aft+0x101>
    1502:	1808                	add	a0,sp,48
    1504:	767020ef          	jal	446a <sprintf>
    1508:	6799                	lui	a5,0x6
    150a:	180c                	add	a1,sp,48
    150c:	02878513          	add	a0,a5,40 # 6028 <aft>
    1510:	de0ff0ef          	jal	af0 <_Z20OpenFileNameDataSlotP13dataslot_typePKc>
    1514:	18a04f63          	bgtz	a0,16b2 <_ZN5cue_t7LoadCUEEi+0x45c>
    1518:	6595                	lui	a1,0x5
    151a:	13058593          	add	a1,a1,304 # 5130 <stream_vscanf+0xaf4>
    151e:	8552                	mv	a0,s4
    1520:	0e4030ef          	jal	4604 <strstr>
    1524:	c501                	beqz	a0,152c <_ZN5cue_t7LoadCUEEi+0x2d6>
    1526:	02c00793          	li	a5,44
    152a:	ce3e                	sw	a5,28(sp)
    152c:	6595                	lui	a1,0x5
    152e:	13858593          	add	a1,a1,312 # 5138 <stream_vscanf+0xafc>
    1532:	8552                	mv	a0,s4
    1534:	0d0030ef          	jal	4604 <strstr>
    1538:	4785                	li	a5,1
    153a:	ca02                	sw	zero,20(sp)
    153c:	cc3e                	sw	a5,24(sp)
    153e:	da051fe3          	bnez	a0,12fc <_ZN5cue_t7LoadCUEEi+0xa6>
    1542:	6595                	lui	a1,0x5
    1544:	14058593          	add	a1,a1,320 # 5140 <stream_vscanf+0xb04>
    1548:	8552                	mv	a0,s4
    154a:	0ba030ef          	jal	4604 <strstr>
    154e:	da0517e3          	bnez	a0,12fc <_ZN5cue_t7LoadCUEEi+0xa6>
    1552:	6595                	lui	a1,0x5
    1554:	14c58593          	add	a1,a1,332 # 514c <stream_vscanf+0xb10>
    1558:	8552                	mv	a0,s4
    155a:	0aa030ef          	jal	4604 <strstr>
    155e:	d8051fe3          	bnez	a0,12fc <_ZN5cue_t7LoadCUEEi+0xa6>
    1562:	6541                	lui	a0,0x10
    1564:	157d                	add	a0,a0,-1 # ffff <_end+0x563f>
    1566:	a2b9                	j	16b4 <_ZN5cue_t7LoadCUEEi+0x45e>
    1568:	0505                	add	a0,a0,1
    156a:	0705                	add	a4,a4,1
    156c:	b78d                	j	14ce <_ZN5cue_t7LoadCUEEi+0x278>
    156e:	0a400a13          	li	s4,164
    1572:	034d8533          	mul	a0,s11,s4
    1576:	6799                	lui	a5,0x6
    1578:	02a78593          	add	a1,a5,42 # 602a <aft+0x2>
    157c:	0c850513          	add	a0,a0,200
    1580:	9522                	add	a0,a0,s0
    1582:	7c5020ef          	jal	4546 <strcpy>
    1586:	501c                	lw	a5,32(s0)
    1588:	034787b3          	mul	a5,a5,s4
    158c:	97a2                	add	a5,a5,s0
    158e:	0a07a423          	sw	zero,168(a5)
    1592:	cc02                	sw	zero,24(sp)
    1594:	b3a5                	j	12fc <_ZN5cue_t7LoadCUEEi+0xa6>
    1596:	1070                	add	a2,sp,44
    1598:	154d8593          	add	a1,s11,340
    159c:	8552                	mv	a0,s4
    159e:	75f020ef          	jal	44fc <sscanf>
    15a2:	de051be3          	bnez	a0,1398 <_ZN5cue_t7LoadCUEEi+0x142>
    15a6:	6595                	lui	a1,0x5
    15a8:	1078                	add	a4,sp,44
    15aa:	1034                	add	a3,sp,40
    15ac:	1050                	add	a2,sp,36
    15ae:	16458593          	add	a1,a1,356 # 5164 <stream_vscanf+0xb28>
    15b2:	8552                	mv	a0,s4
    15b4:	749020ef          	jal	44fc <sscanf>
    15b8:	4d8d                	li	s11,3
    15ba:	15b51863          	bne	a0,s11,170a <_ZN5cue_t7LoadCUEEi+0x4b4>
    15be:	5692                	lw	a3,36(sp)
    15c0:	6785                	lui	a5,0x1
    15c2:	19478793          	add	a5,a5,404 # 1194 <_ZN5cue_t8ReadDataEv.part.0+0x42>
    15c6:	02f686b3          	mul	a3,a3,a5
    15ca:	57a2                	lw	a5,40(sp)
    15cc:	00279713          	sll	a4,a5,0x2
    15d0:	973e                	add	a4,a4,a5
    15d2:	00471793          	sll	a5,a4,0x4
    15d6:	8f99                	sub	a5,a5,a4
    15d8:	5732                	lw	a4,44(sp)
    15da:	97ba                	add	a5,a5,a4
    15dc:	4752                	lw	a4,20(sp)
    15de:	97b6                	add	a5,a5,a3
    15e0:	97ba                	add	a5,a5,a4
    15e2:	ca3e                	sw	a5,20(sp)
    15e4:	bb21                	j	12fc <_ZN5cue_t7LoadCUEEi+0xa6>
    15e6:	6595                	lui	a1,0x5
    15e8:	1d058593          	add	a1,a1,464 # 51d0 <stream_vscanf+0xb94>
    15ec:	8552                	mv	a0,s4
    15ee:	016030ef          	jal	4604 <strstr>
    15f2:	0e050d63          	beqz	a0,16ec <_ZN5cue_t7LoadCUEEi+0x496>
    15f6:	6685                	lui	a3,0x1
    15f8:	93068693          	add	a3,a3,-1744 # 930 <_Z22dataslot_read_lba_fastmb+0x6>
    15fc:	0cd9a223          	sw	a3,196(s3)
    1600:	4685                	li	a3,1
    1602:	0cd9a023          	sw	a3,192(s3)
    1606:	bbf5                	j	1402 <_ZN5cue_t7LoadCUEEi+0x1ac>
    1608:	501c                	lw	a5,32(s0)
    160a:	fff78713          	add	a4,a5,-1
    160e:	0a400693          	li	a3,164
    1612:	02d706b3          	mul	a3,a4,a3
    1616:	96a2                	add	a3,a3,s0
    1618:	0a86a683          	lw	a3,168(a3)
    161c:	e695                	bnez	a3,1648 <_ZN5cue_t7LoadCUEEi+0x3f2>
    161e:	0a400693          	li	a3,164
    1622:	02d706b3          	mul	a3,a4,a3
    1626:	96a2                	add	a3,a3,s0
    1628:	0ac6a603          	lw	a2,172(a3)
    162c:	0b06a803          	lw	a6,176(a3)
    1630:	0c46a503          	lw	a0,196(a3)
    1634:	0b86a583          	lw	a1,184(a3)
    1638:	41060633          	sub	a2,a2,a6
    163c:	02a64633          	div	a2,a2,a0
    1640:	962e                	add	a2,a2,a1
    1642:	0ac6ae23          	sw	a2,188(a3)
    1646:	cc50                	sw	a2,28(s0)
    1648:	c7ad                	beqz	a5,16b2 <_ZN5cue_t7LoadCUEEi+0x45c>
    164a:	0a400693          	li	a3,164
    164e:	02d706b3          	mul	a3,a4,a3
    1652:	96a2                	add	a3,a3,s0
    1654:	0bc6a683          	lw	a3,188(a3)
    1658:	ee81                	bnez	a3,1670 <_ZN5cue_t7LoadCUEEi+0x41a>
    165a:	0a400693          	li	a3,164
    165e:	02d70733          	mul	a4,a4,a3
    1662:	4652                	lw	a2,20(sp)
    1664:	4c54                	lw	a3,28(s0)
    1666:	96b2                	add	a3,a3,a2
    1668:	cc54                	sw	a3,28(s0)
    166a:	9722                	add	a4,a4,s0
    166c:	0ad72e23          	sw	a3,188(a4)
    1670:	04f05163          	blez	a5,16b2 <_ZN5cue_t7LoadCUEEi+0x45c>
    1674:	0c840493          	add	s1,s0,200
    1678:	4901                	li	s2,0
    167a:	6995                	lui	s3,0x5
    167c:	ffc4a783          	lw	a5,-4(s1)
    1680:	fdc4a883          	lw	a7,-36(s1)
    1684:	ff84a803          	lw	a6,-8(s1)
    1688:	fe84a703          	lw	a4,-24(s1)
    168c:	ff44a683          	lw	a3,-12(s1)
    1690:	ff04a603          	lw	a2,-16(s1)
    1694:	c226                	sw	s1,4(sp)
    1696:	fe04a583          	lw	a1,-32(s1)
    169a:	27898513          	add	a0,s3,632 # 5278 <stream_vscanf+0xc3c>
    169e:	0a448493          	add	s1,s1,164
    16a2:	c02e                	sw	a1,0(sp)
    16a4:	85ca                	mv	a1,s2
    16a6:	174020ef          	jal	381a <riscprintf_>
    16aa:	501c                	lw	a5,32(s0)
    16ac:	0905                	add	s2,s2,1
    16ae:	fcf947e3          	blt	s2,a5,167c <_ZN5cue_t7LoadCUEEi+0x426>
    16b2:	4505                	li	a0,1
    16b4:	16412483          	lw	s1,356(sp)
    16b8:	15812a03          	lw	s4,344(sp)
    16bc:	15012b03          	lw	s6,336(sp)
    16c0:	14c12b83          	lw	s7,332(sp)
    16c4:	14812c03          	lw	s8,328(sp)
    16c8:	14412c83          	lw	s9,324(sp)
    16cc:	14012d03          	lw	s10,320(sp)
    16d0:	13c12d83          	lw	s11,316(sp)
    16d4:	16c12083          	lw	ra,364(sp)
    16d8:	16812403          	lw	s0,360(sp)
    16dc:	16012903          	lw	s2,352(sp)
    16e0:	15c12983          	lw	s3,348(sp)
    16e4:	15412a83          	lw	s5,340(sp)
    16e8:	6175                	add	sp,sp,368
    16ea:	8082                	ret
    16ec:	6595                	lui	a1,0x5
    16ee:	1dc58593          	add	a1,a1,476 # 51dc <stream_vscanf+0xba0>
    16f2:	8552                	mv	a0,s4
    16f4:	711020ef          	jal	4604 <strstr>
    16f8:	c149                	beqz	a0,177a <_ZN5cue_t7LoadCUEEi+0x524>
    16fa:	6685                	lui	a3,0x1
    16fc:	93068693          	add	a3,a3,-1744 # 930 <_Z22dataslot_read_lba_fastmb+0x6>
    1700:	0cd9a223          	sw	a3,196(s3)
    1704:	0c09a023          	sw	zero,192(s3)
    1708:	b9ed                	j	1402 <_ZN5cue_t7LoadCUEEi+0x1ac>
    170a:	6595                	lui	a1,0x5
    170c:	1078                	add	a4,sp,44
    170e:	1034                	add	a3,sp,40
    1710:	1050                	add	a2,sp,36
    1712:	1e858593          	add	a1,a1,488 # 51e8 <stream_vscanf+0xbac>
    1716:	8552                	mv	a0,s4
    1718:	5e5020ef          	jal	44fc <sscanf>
    171c:	01b50d63          	beq	a0,s11,1736 <_ZN5cue_t7LoadCUEEi+0x4e0>
    1720:	6595                	lui	a1,0x5
    1722:	1078                	add	a4,sp,44
    1724:	1034                	add	a3,sp,40
    1726:	1050                	add	a2,sp,36
    1728:	20058593          	add	a1,a1,512 # 5200 <stream_vscanf+0xbc4>
    172c:	8552                	mv	a0,s4
    172e:	5cf020ef          	jal	44fc <sscanf>
    1732:	07b51563          	bne	a0,s11,179c <_ZN5cue_t7LoadCUEEi+0x546>
    1736:	501c                	lw	a5,32(s0)
    1738:	bc0782e3          	beqz	a5,12fc <_ZN5cue_t7LoadCUEEi+0xa6>
    173c:	0a400713          	li	a4,164
    1740:	17fd                	add	a5,a5,-1
    1742:	02e787b3          	mul	a5,a5,a4
    1746:	97a2                	add	a5,a5,s0
    1748:	0bc7a703          	lw	a4,188(a5)
    174c:	ba0718e3          	bnez	a4,12fc <_ZN5cue_t7LoadCUEEi+0xa6>
    1750:	5612                	lw	a2,36(sp)
    1752:	6705                	lui	a4,0x1
    1754:	19470713          	add	a4,a4,404 # 1194 <_ZN5cue_t8ReadDataEv.part.0+0x42>
    1758:	02e60633          	mul	a2,a2,a4
    175c:	5722                	lw	a4,40(sp)
    175e:	00271693          	sll	a3,a4,0x2
    1762:	96ba                	add	a3,a3,a4
    1764:	00469713          	sll	a4,a3,0x4
    1768:	8f15                	sub	a4,a4,a3
    176a:	56b2                	lw	a3,44(sp)
    176c:	9736                	add	a4,a4,a3
    176e:	46d2                	lw	a3,20(sp)
    1770:	9732                	add	a4,a4,a2
    1772:	9736                	add	a4,a4,a3
    1774:	0ae7ae23          	sw	a4,188(a5)
    1778:	b651                	j	12fc <_ZN5cue_t7LoadCUEEi+0xa6>
    177a:	6595                	lui	a1,0x5
    177c:	1e458593          	add	a1,a1,484 # 51e4 <stream_vscanf+0xba8>
    1780:	8552                	mv	a0,s4
    1782:	683020ef          	jal	4604 <strstr>
    1786:	c6050ee3          	beqz	a0,1402 <_ZN5cue_t7LoadCUEEi+0x1ac>
    178a:	6685                	lui	a3,0x1
    178c:	99068693          	add	a3,a3,-1648 # 990 <_Z29dataslot_pathname_file_decodeP13dataslot_type+0x32>
    1790:	0cd9a223          	sw	a3,196(s3)
    1794:	4689                	li	a3,2
    1796:	0cd9a023          	sw	a3,192(s3)
    179a:	b1a5                	j	1402 <_ZN5cue_t7LoadCUEEi+0x1ac>
    179c:	6595                	lui	a1,0x5
    179e:	1078                	add	a4,sp,44
    17a0:	1034                	add	a3,sp,40
    17a2:	1050                	add	a2,sp,36
    17a4:	21858593          	add	a1,a1,536 # 5218 <stream_vscanf+0xbdc>
    17a8:	8552                	mv	a0,s4
    17aa:	553020ef          	jal	44fc <sscanf>
    17ae:	01b50d63          	beq	a0,s11,17c8 <_ZN5cue_t7LoadCUEEi+0x572>
    17b2:	6595                	lui	a1,0x5
    17b4:	1078                	add	a4,sp,44
    17b6:	1034                	add	a3,sp,40
    17b8:	1050                	add	a2,sp,36
    17ba:	23058593          	add	a1,a1,560 # 5230 <stream_vscanf+0xbf4>
    17be:	8552                	mv	a0,s4
    17c0:	53d020ef          	jal	44fc <sscanf>
    17c4:	b3b51ce3          	bne	a0,s11,12fc <_ZN5cue_t7LoadCUEEi+0xa6>
    17c8:	56a2                	lw	a3,40(sp)
    17ca:	5010                	lw	a2,32(s0)
    17cc:	0a400593          	li	a1,164
    17d0:	00269793          	sll	a5,a3,0x2
    17d4:	97b6                	add	a5,a5,a3
    17d6:	00479693          	sll	a3,a5,0x4
    17da:	02b60733          	mul	a4,a2,a1
    17de:	8e9d                	sub	a3,a3,a5
    17e0:	5792                	lw	a5,36(sp)
    17e2:	6505                	lui	a0,0x1
    17e4:	19450513          	add	a0,a0,404 # 1194 <_ZN5cue_t8ReadDataEv.part.0+0x42>
    17e8:	5332                	lw	t1,44(sp)
    17ea:	969a                	add	a3,a3,t1
    17ec:	02a787b3          	mul	a5,a5,a0
    17f0:	9722                	add	a4,a4,s0
    17f2:	0a872503          	lw	a0,168(a4)
    17f6:	96be                	add	a3,a3,a5
    17f8:	ed2d                	bnez	a0,1872 <_ZN5cue_t7LoadCUEEi+0x61c>
    17fa:	4552                	lw	a0,20(sp)
    17fc:	0c472783          	lw	a5,196(a4)
    1800:	96aa                	add	a3,a3,a0
    1802:	02f687b3          	mul	a5,a3,a5
    1806:	4572                	lw	a0,28(sp)
    1808:	0ad72c23          	sw	a3,184(a4)
    180c:	8f89                	sub	a5,a5,a0
    180e:	0af72823          	sw	a5,176(a4)
    1812:	ca19                	beqz	a2,1828 <_ZN5cue_t7LoadCUEEi+0x5d2>
    1814:	fff60713          	add	a4,a2,-1
    1818:	02b70733          	mul	a4,a4,a1
    181c:	9722                	add	a4,a4,s0
    181e:	0bc72583          	lw	a1,188(a4)
    1822:	e199                	bnez	a1,1828 <_ZN5cue_t7LoadCUEEi+0x5d2>
    1824:	0ad72e23          	sw	a3,188(a4)
    1828:	0a400713          	li	a4,164
    182c:	02e60733          	mul	a4,a2,a4
    1830:	45d2                	lw	a1,20(sp)
    1832:	4672                	lw	a2,28(sp)
    1834:	6515                	lui	a0,0x5
    1836:	24850513          	add	a0,a0,584 # 5248 <stream_vscanf+0xc0c>
    183a:	9722                	add	a4,a4,s0
    183c:	0bc72703          	lw	a4,188(a4)
    1840:	7db010ef          	jal	381a <riscprintf_>
    1844:	501c                	lw	a5,32(s0)
    1846:	06300713          	li	a4,99
    184a:	0785                	add	a5,a5,1
    184c:	d01c                	sw	a5,32(s0)
    184e:	aae797e3          	bne	a5,a4,12fc <_ZN5cue_t7LoadCUEEi+0xa6>
    1852:	6691                	lui	a3,0x4
    1854:	96a2                	add	a3,a3,s0
    1856:	f706a603          	lw	a2,-144(a3) # 3f70 <outnum+0x100>
    185a:	06200713          	li	a4,98
    185e:	dc0600e3          	beqz	a2,161e <_ZN5cue_t7LoadCUEEi+0x3c8>
    1862:	f846a683          	lw	a3,-124(a3)
    1866:	de068ae3          	beqz	a3,165a <_ZN5cue_t7LoadCUEEi+0x404>
    186a:	b529                	j	1674 <_ZN5cue_t7LoadCUEEi+0x41e>
    186c:	fff78713          	add	a4,a5,-1
    1870:	bb79                	j	160e <_ZN5cue_t7LoadCUEEi+0x3b8>
    1872:	0ac72603          	lw	a2,172(a4)
    1876:	4872                	lw	a6,28(sp)
    1878:	0c472783          	lw	a5,196(a4)
    187c:	01c42303          	lw	t1,28(s0)
    1880:	41060633          	sub	a2,a2,a6
    1884:	963e                	add	a2,a2,a5
    1886:	167d                	add	a2,a2,-1
    1888:	02f64633          	div	a2,a2,a5
    188c:	45d2                	lw	a1,20(sp)
    188e:	6515                	lui	a0,0x5
    1890:	26050513          	add	a0,a0,608 # 5260 <stream_vscanf+0xc24>
    1894:	932e                	add	t1,t1,a1
    1896:	00d305b3          	add	a1,t1,a3
    189a:	0ab72c23          	sw	a1,184(a4)
    189e:	02f307b3          	mul	a5,t1,a5
    18a2:	961a                	add	a2,a2,t1
    18a4:	0ac72e23          	sw	a2,188(a4)
    18a8:	410786b3          	sub	a3,a5,a6
    18ac:	0ad72823          	sw	a3,176(a4)
    18b0:	cc50                	sw	a2,28(s0)
    18b2:	769010ef          	jal	381a <riscprintf_>
    18b6:	b779                	j	1844 <_ZN5cue_t7LoadCUEEi+0x5ee>

000018b8 <_ZN5cue_t4LoadEi>:
    18b8:	1141                	add	sp,sp,-16
    18ba:	c422                	sw	s0,8(sp)
    18bc:	c606                	sw	ra,12(sp)
    18be:	842a                	mv	s0,a0
    18c0:	997ff0ef          	jal	1256 <_ZN5cue_t7LoadCUEEi>
    18c4:	00a037b3          	snez	a5,a0
    18c8:	40b2                	lw	ra,12(sp)
    18ca:	c45c                	sw	a5,12(s0)
    18cc:	4422                	lw	s0,8(sp)
    18ce:	0141                	add	sp,sp,16
    18d0:	8082                	ret

000018d2 <_ZN5cue_t6UnloadEv>:
    18d2:	455c                	lw	a5,12(a0)
    18d4:	510c                	lw	a1,32(a0)
    18d6:	c7b9                	beqz	a5,1924 <_ZN5cue_t6UnloadEv+0x52>
    18d8:	02b05f63          	blez	a1,1916 <_ZN5cue_t6UnloadEv+0x44>
    18dc:	0a400793          	li	a5,164
    18e0:	02f585b3          	mul	a1,a1,a5
    18e4:	0a450793          	add	a5,a0,164
    18e8:	95be                	add	a1,a1,a5
    18ea:	0007a023          	sw	zero,0(a5)
    18ee:	0007a223          	sw	zero,4(a5)
    18f2:	0007a423          	sw	zero,8(a5)
    18f6:	0007a623          	sw	zero,12(a5)
    18fa:	0007a823          	sw	zero,16(a5)
    18fe:	0007aa23          	sw	zero,20(a5)
    1902:	0007ac23          	sw	zero,24(a5)
    1906:	0007ae23          	sw	zero,28(a5)
    190a:	0207a023          	sw	zero,32(a5)
    190e:	0a478793          	add	a5,a5,164
    1912:	fcb79ce3          	bne	a5,a1,18ea <_ZN5cue_t6UnloadEv+0x18>
    1916:	00052623          	sw	zero,12(a0)
    191a:	00052e23          	sw	zero,28(a0)
    191e:	02052023          	sw	zero,32(a0)
    1922:	4581                	li	a1,0
    1924:	6515                	lui	a0,0x5
    1926:	2fc50513          	add	a0,a0,764 # 52fc <stream_vscanf+0xcc0>
    192a:	6f10106f          	j	381a <riscprintf_>

0000192e <_ZN5cue_t5ResetEv>:
    192e:	6791                	lui	a5,0x4
    1930:	00052023          	sw	zero,0(a0)
    1934:	00052223          	sw	zero,4(a0)
    1938:	97aa                	add	a5,a5,a0
    193a:	0007a823          	sw	zero,16(a5) # 4010 <outnum+0x1a0>
    193e:	0007ac23          	sw	zero,24(a5)
    1942:	0207a023          	sw	zero,32(a5)
    1946:	4558                	lw	a4,12(a0)
    1948:	4685                	li	a3,1
    194a:	00d504a3          	sb	a3,9(a0)
    194e:	00173713          	seqz	a4,a4
    1952:	00e50423          	sb	a4,8(a0)
    1956:	0207a223          	sw	zero,36(a5)
    195a:	0207a423          	sw	zero,40(a5)
    195e:	00052a23          	sw	zero,20(a0)
    1962:	00051c23          	sh	zero,24(a0)
    1966:	0207a623          	sw	zero,44(a5)
    196a:	0207a823          	sw	zero,48(a5)
    196e:	02078c23          	sb	zero,56(a5)
    1972:	02052023          	sw	zero,32(a0)
    1976:	04079423          	sh	zero,72(a5)
    197a:	8082                	ret

0000197c <_ZN5cue_t6UpdateEv>:
    197c:	7179                	add	sp,sp,-48
    197e:	d422                	sw	s0,40(sp)
    1980:	d606                	sw	ra,44(sp)
    1982:	00854783          	lbu	a5,8(a0)
    1986:	4709                	li	a4,2
    1988:	842a                	mv	s0,a0
    198a:	18e78563          	beq	a5,a4,1b14 <_ZN5cue_t6UpdateEv+0x198>
    198e:	470d                	li	a4,3
    1990:	06e78e63          	beq	a5,a4,1a0c <_ZN5cue_t6UpdateEv+0x90>
    1994:	4711                	li	a4,4
    1996:	16e78663          	beq	a5,a4,1b02 <_ZN5cue_t6UpdateEv+0x186>
    199a:	6791                	lui	a5,0x4
    199c:	97a2                	add	a5,a5,s0
    199e:	4b88                	lw	a0,16(a5)
    19a0:	0187a803          	lw	a6,24(a5) # 4018 <outnum+0x1a8>
    19a4:	0bc42783          	lw	a5,188(s0)
    19a8:	2ef84a63          	blt	a6,a5,1c9c <_ZN5cue_t6UpdateEv+0x320>
    19ac:	5010                	lw	a2,32(s0)
    19ae:	16040713          	add	a4,s0,352
    19b2:	4781                	li	a5,0
    19b4:	a031                	j	19c0 <_ZN5cue_t6UpdateEv+0x44>
    19b6:	f5c72683          	lw	a3,-164(a4)
    19ba:	0785                	add	a5,a5,1
    19bc:	00d84663          	blt	a6,a3,19c8 <_ZN5cue_t6UpdateEv+0x4c>
    19c0:	0a470713          	add	a4,a4,164
    19c4:	fec7c9e3          	blt	a5,a2,19b6 <_ZN5cue_t6UpdateEv+0x3a>
    19c8:	0a400713          	li	a4,164
    19cc:	02e787b3          	mul	a5,a5,a4
    19d0:	04b00613          	li	a2,75
    19d4:	6705                	lui	a4,0x1
    19d6:	19470713          	add	a4,a4,404 # 1194 <_ZN5cue_t8ReadDataEv.part.0+0x42>
    19da:	50b2                	lw	ra,44(sp)
    19dc:	0505                	add	a0,a0,1
    19de:	0ff57513          	zext.b	a0,a0
    19e2:	943e                	add	s0,s0,a5
    19e4:	0b842783          	lw	a5,184(s0)
    19e8:	5422                	lw	s0,40(sp)
    19ea:	40f80833          	sub	a6,a6,a5
    19ee:	02c84633          	div	a2,a6,a2
    19f2:	03c00793          	li	a5,60
    19f6:	6145                	add	sp,sp,48
    19f8:	02e84833          	div	a6,a6,a4
    19fc:	02f66633          	rem	a2,a2,a5
    1a00:	0ff87593          	zext.b	a1,a6
    1a04:	0ff67613          	zext.b	a2,a2
    1a08:	3fe0106f          	j	2e06 <_Z18osd_display_timinghhh>
    1a0c:	411c                	lw	a5,0(a0)
    1a0e:	0e079d63          	bnez	a5,1b08 <_ZN5cue_t6UpdateEv+0x18c>
    1a12:	415c                	lw	a5,4(a0)
    1a14:	1e079c63          	bnez	a5,1c0c <_ZN5cue_t6UpdateEv+0x290>
    1a18:	6791                	lui	a5,0x4
    1a1a:	97aa                	add	a5,a5,a0
    1a1c:	0187a803          	lw	a6,24(a5) # 4018 <outnum+0x1a8>
    1a20:	0bc52783          	lw	a5,188(a0)
    1a24:	d226                	sw	s1,36(sp)
    1a26:	c85a                	sw	s6,16(sp)
    1a28:	2ef84063          	blt	a6,a5,1d08 <_ZN5cue_t6UpdateEv+0x38c>
    1a2c:	5110                	lw	a2,32(a0)
    1a2e:	16050793          	add	a5,a0,352
    1a32:	4681                	li	a3,0
    1a34:	a031                	j	1a40 <_ZN5cue_t6UpdateEv+0xc4>
    1a36:	f5c7a703          	lw	a4,-164(a5)
    1a3a:	0685                	add	a3,a3,1
    1a3c:	00e84663          	blt	a6,a4,1a48 <_ZN5cue_t6UpdateEv+0xcc>
    1a40:	0a478793          	add	a5,a5,164
    1a44:	fec6c9e3          	blt	a3,a2,1a36 <_ZN5cue_t6UpdateEv+0xba>
    1a48:	6b11                	lui	s6,0x4
    1a4a:	9b22                	add	s6,s6,s0
    1a4c:	034b2783          	lw	a5,52(s6) # 4034 <outnum+0x1c4>
    1a50:	00db2823          	sw	a3,16(s6)
    1a54:	1607c463          	bltz	a5,1bbc <_ZN5cue_t6UpdateEv+0x240>
    1a58:	cc52                	sw	s4,24(sp)
    1a5a:	ca56                	sw	s5,20(sp)
    1a5c:	6a05                	lui	s4,0x1
    1a5e:	6a85                	lui	s5,0x1
    1a60:	d04a                	sw	s2,32(sp)
    1a62:	ce4e                	sw	s3,28(sp)
    1a64:	c65e                	sw	s7,12(sp)
    1a66:	c462                	sw	s8,8(sp)
    1a68:	4b81                	li	s7,0
    1a6a:	0a400c13          	li	s8,164
    1a6e:	4905                	li	s2,1
    1a70:	6499                	lui	s1,0x6
    1a72:	4989                	li	s3,2
    1a74:	930a0a13          	add	s4,s4,-1744 # 930 <_Z22dataslot_read_lba_fastmb+0x6>
    1a78:	990a8a93          	add	s5,s5,-1648 # 990 <_Z29dataslot_pathname_file_decodeP13dataslot_type+0x32>
    1a7c:	038688b3          	mul	a7,a3,s8
    1a80:	02848713          	add	a4,s1,40 # 6028 <aft>
    1a84:	87c6                	mv	a5,a7
    1a86:	98a2                	add	a7,a7,s0
    1a88:	0c48a603          	lw	a2,196(a7)
    1a8c:	0a88a303          	lw	t1,168(a7)
    1a90:	0c878513          	add	a0,a5,200
    1a94:	030605b3          	mul	a1,a2,a6
    1a98:	9522                	add	a0,a0,s0
    1a9a:	87c6                	mv	a5,a7
    1a9c:	00030663          	beqz	t1,1aa8 <_ZN5cue_t6UpdateEv+0x12c>
    1aa0:	0b08a883          	lw	a7,176(a7)
    1aa4:	411585b3          	sub	a1,a1,a7
    1aa8:	0c07a783          	lw	a5,192(a5)
    1aac:	05278063          	beq	a5,s2,1aec <_ZN5cue_t6UpdateEv+0x170>
    1ab0:	968ff0ef          	jal	c18 <_Z12RISCFileSeekPKcmmmP13dataslot_type>
    1ab4:	010b2783          	lw	a5,16(s6)
    1ab8:	6705                	lui	a4,0x1
    1aba:	93070713          	add	a4,a4,-1744 # 930 <_Z22dataslot_read_lba_fastmb+0x6>
    1abe:	038787b3          	mul	a5,a5,s8
    1ac2:	03600693          	li	a3,54
    1ac6:	4625                	li	a2,9
    1ac8:	03000593          	li	a1,48
    1acc:	97a2                	add	a5,a5,s0
    1ace:	0c07a503          	lw	a0,192(a5)
    1ad2:	0b350d63          	beq	a0,s3,1b8c <_ZN5cue_t6UpdateEv+0x210>
    1ad6:	e909                	bnez	a0,1ae8 <_ZN5cue_t6UpdateEv+0x16c>
    1ad8:	034b2223          	sw	s4,36(s6)
    1adc:	020b2423          	sw	zero,40(s6)
    1ae0:	0a47a503          	lw	a0,164(a5)
    1ae4:	dacff0ef          	jal	1090 <_Z15RISCFileReadAdvihhhm>
    1ae8:	018b2803          	lw	a6,24(s6)
    1aec:	034b2783          	lw	a5,52(s6)
    1af0:	0805                	add	a6,a6,1
    1af2:	0b85                	add	s7,s7,1
    1af4:	010b2c23          	sw	a6,24(s6)
    1af8:	0b77cc63          	blt	a5,s7,1bb0 <_ZN5cue_t6UpdateEv+0x234>
    1afc:	010b2683          	lw	a3,16(s6)
    1b00:	bfb5                	j	1a7c <_ZN5cue_t6UpdateEv+0x100>
    1b02:	411c                	lw	a5,0(a0)
    1b04:	e8078be3          	beqz	a5,199a <_ZN5cue_t6UpdateEv+0x1e>
    1b08:	17fd                	add	a5,a5,-1
    1b0a:	c01c                	sw	a5,0(s0)
    1b0c:	50b2                	lw	ra,44(sp)
    1b0e:	5422                	lw	s0,40(sp)
    1b10:	6145                	add	sp,sp,48
    1b12:	8082                	ret
    1b14:	411c                	lw	a5,0(a0)
    1b16:	fbed                	bnez	a5,1b08 <_ZN5cue_t6UpdateEv+0x18c>
    1b18:	d226                	sw	s1,36(sp)
    1b1a:	6491                	lui	s1,0x4
    1b1c:	94aa                	add	s1,s1,a0
    1b1e:	4888                	lw	a0,16(s1)
    1b20:	501c                	lw	a5,32(s0)
    1b22:	06f55163          	bge	a0,a5,1b84 <_ZN5cue_t6UpdateEv+0x208>
    1b26:	01944783          	lbu	a5,25(s0)
    1b2a:	cff9                	beqz	a5,1c08 <_ZN5cue_t6UpdateEv+0x28c>
    1b2c:	d04a                	sw	s2,32(sp)
    1b2e:	0a400913          	li	s2,164
    1b32:	032507b3          	mul	a5,a0,s2
    1b36:	00040ca3          	sb	zero,25(s0)
    1b3a:	4705                	li	a4,1
    1b3c:	97a2                	add	a5,a5,s0
    1b3e:	0c07a683          	lw	a3,192(a5)
    1b42:	16e68763          	beq	a3,a4,1cb0 <_ZN5cue_t6UpdateEv+0x334>
    1b46:	0184a803          	lw	a6,24(s1) # 4018 <outnum+0x1a8>
    1b4a:	0b87a783          	lw	a5,184(a5)
    1b4e:	00f84463          	blt	a6,a5,1b56 <_ZN5cue_t6UpdateEv+0x1da>
    1b52:	000404a3          	sb	zero,9(s0)
    1b56:	6791                	lui	a5,0x4
    1b58:	97a2                	add	a5,a5,s0
    1b5a:	4fd8                	lw	a4,28(a5)
    1b5c:	177d                	add	a4,a4,-1
    1b5e:	cfd8                	sw	a4,28(a5)
    1b60:	cb4d                	beqz	a4,1c12 <_ZN5cue_t6UpdateEv+0x296>
    1b62:	0a400913          	li	s2,164
    1b66:	032507b3          	mul	a5,a0,s2
    1b6a:	6491                	lui	s1,0x4
    1b6c:	0805                	add	a6,a6,1
    1b6e:	94a2                	add	s1,s1,s0
    1b70:	0104ac23          	sw	a6,24(s1) # 4018 <outnum+0x1a8>
    1b74:	97a2                	add	a5,a5,s0
    1b76:	0bc7a783          	lw	a5,188(a5) # 40bc <vbuf_printf+0x3a>
    1b7a:	0cf85963          	bge	a6,a5,1c4c <_ZN5cue_t6UpdateEv+0x2d0>
    1b7e:	5492                	lw	s1,36(sp)
    1b80:	5902                	lw	s2,32(sp)
    1b82:	b50d                	j	19a4 <_ZN5cue_t6UpdateEv+0x28>
    1b84:	00040423          	sb	zero,8(s0)
    1b88:	5492                	lw	s1,36(sp)
    1b8a:	b749                	j	1b0c <_ZN5cue_t6UpdateEv+0x190>
    1b8c:	035b2223          	sw	s5,36(s6)
    1b90:	020b2423          	sw	zero,40(s6)
    1b94:	0a47a503          	lw	a0,164(a5)
    1b98:	6705                	lui	a4,0x1
    1b9a:	99070713          	add	a4,a4,-1648 # 990 <_Z29dataslot_pathname_file_decodeP13dataslot_type+0x32>
    1b9e:	08900613          	li	a2,137
    1ba2:	09000593          	li	a1,144
    1ba6:	ceaff0ef          	jal	1090 <_Z15RISCFileReadAdvihhhm>
    1baa:	018b2803          	lw	a6,24(s6)
    1bae:	bf3d                	j	1aec <_ZN5cue_t6UpdateEv+0x170>
    1bb0:	5902                	lw	s2,32(sp)
    1bb2:	49f2                	lw	s3,28(sp)
    1bb4:	4a62                	lw	s4,24(sp)
    1bb6:	4ad2                	lw	s5,20(sp)
    1bb8:	4bb2                	lw	s7,12(sp)
    1bba:	4c22                	lw	s8,8(sp)
    1bbc:	6791                	lui	a5,0x4
    1bbe:	97a2                	add	a5,a5,s0
    1bc0:	5b98                	lw	a4,48(a5)
    1bc2:	0207aa23          	sw	zero,52(a5) # 4034 <outnum+0x1c4>
    1bc6:	03074163          	blt	a4,a6,1be8 <_ZN5cue_t6UpdateEv+0x26c>
    1bca:	4b88                	lw	a0,16(a5)
    1bcc:	0a400793          	li	a5,164
    1bd0:	02f507b3          	mul	a5,a0,a5
    1bd4:	97a2                	add	a5,a5,s0
    1bd6:	0c07a783          	lw	a5,192(a5)
    1bda:	e799                	bnez	a5,1be8 <_ZN5cue_t6UpdateEv+0x26c>
    1bdc:	501c                	lw	a5,32(s0)
    1bde:	00a7c563          	blt	a5,a0,1be8 <_ZN5cue_t6UpdateEv+0x26c>
    1be2:	5492                	lw	s1,36(sp)
    1be4:	4b42                	lw	s6,16(sp)
    1be6:	bb7d                	j	19a4 <_ZN5cue_t6UpdateEv+0x28>
    1be8:	6491                	lui	s1,0x4
    1bea:	94a2                	add	s1,s1,s0
    1bec:	0384c783          	lbu	a5,56(s1) # 4038 <outnum+0x1c8>
    1bf0:	4705                	li	a4,1
    1bf2:	0ae78763          	beq	a5,a4,1ca0 <_ZN5cue_t6UpdateEv+0x324>
    1bf6:	00040423          	sb	zero,8(s0)
    1bfa:	4709                	li	a4,2
    1bfc:	02e78263          	beq	a5,a4,1c20 <_ZN5cue_t6UpdateEv+0x2a4>
    1c00:	4888                	lw	a0,16(s1)
    1c02:	4b42                	lw	s6,16(sp)
    1c04:	5492                	lw	s1,36(sp)
    1c06:	bb79                	j	19a4 <_ZN5cue_t6UpdateEv+0x28>
    1c08:	5492                	lw	s1,36(sp)
    1c0a:	b709                	j	1b0c <_ZN5cue_t6UpdateEv+0x190>
    1c0c:	17fd                	add	a5,a5,-1
    1c0e:	c15c                	sw	a5,4(a0)
    1c10:	bdf5                	j	1b0c <_ZN5cue_t6UpdateEv+0x190>
    1c12:	04079423          	sh	zero,72(a5)
    1c16:	4785                	li	a5,1
    1c18:	c85c                	sw	a5,20(s0)
    1c1a:	00040423          	sb	zero,8(s0)
    1c1e:	b791                	j	1b62 <_ZN5cue_t6UpdateEv+0x1e6>
    1c20:	03500513          	li	a0,53
    1c24:	335000ef          	jal	2758 <_Z20HPS_spi_uio_cmd_contt>
    1c28:	4501                	li	a0,0
    1c2a:	28d000ef          	jal	26b6 <_Z12HPS_fpga_spit>
    1c2e:	03d4c503          	lbu	a0,61(s1)
    1c32:	00a03533          	snez	a0,a0
    1c36:	0506                	sll	a0,a0,0x1
    1c38:	27f000ef          	jal	26b6 <_Z12HPS_fpga_spit>
    1c3c:	25d000ef          	jal	2698 <_Z13HPS_DisableIOv>
    1c40:	4888                	lw	a0,16(s1)
    1c42:	0184a803          	lw	a6,24(s1)
    1c46:	4b42                	lw	s6,16(sp)
    1c48:	5492                	lw	s1,36(sp)
    1c4a:	bba9                	j	19a4 <_ZN5cue_t6UpdateEv+0x28>
    1c4c:	0505                	add	a0,a0,1
    1c4e:	c888                	sw	a0,16(s1)
    1c50:	4785                	li	a5,1
    1c52:	6515                	lui	a0,0x5
    1c54:	00f404a3          	sb	a5,9(s0)
    1c58:	32c50513          	add	a0,a0,812 # 532c <stream_vscanf+0xcf0>
    1c5c:	3bf010ef          	jal	381a <riscprintf_>
    1c60:	4894                	lw	a3,16(s1)
    1c62:	4c8c                	lw	a1,24(s1)
    1c64:	03268933          	mul	s2,a3,s2
    1c68:	012407b3          	add	a5,s0,s2
    1c6c:	0a87a703          	lw	a4,168(a5)
    1c70:	eb2d                	bnez	a4,1ce2 <_ZN5cue_t6UpdateEv+0x366>
    1c72:	6705                	lui	a4,0x1
    1c74:	93070713          	add	a4,a4,-1744 # 930 <_Z22dataslot_read_lba_fastmb+0x6>
    1c78:	02e585b3          	mul	a1,a1,a4
    1c7c:	0c47a603          	lw	a2,196(a5)
    1c80:	0c890913          	add	s2,s2,200
    1c84:	6719                	lui	a4,0x6
    1c86:	02870713          	add	a4,a4,40 # 6028 <aft>
    1c8a:	01240533          	add	a0,s0,s2
    1c8e:	05c1                	add	a1,a1,16
    1c90:	f89fe0ef          	jal	c18 <_Z12RISCFileSeekPKcmmmP13dataslot_type>
    1c94:	4888                	lw	a0,16(s1)
    1c96:	0184a803          	lw	a6,24(s1)
    1c9a:	b5d5                	j	1b7e <_ZN5cue_t6UpdateEv+0x202>
    1c9c:	4781                	li	a5,0
    1c9e:	b32d                	j	19c8 <_ZN5cue_t6UpdateEv+0x4c>
    1ca0:	02c4a803          	lw	a6,44(s1)
    1ca4:	4888                	lw	a0,16(s1)
    1ca6:	4b42                	lw	s6,16(sp)
    1ca8:	0104ac23          	sw	a6,24(s1)
    1cac:	5492                	lw	s1,36(sp)
    1cae:	b9dd                	j	19a4 <_ZN5cue_t6UpdateEv+0x28>
    1cb0:	6515                	lui	a0,0x5
    1cb2:	31450513          	add	a0,a0,788 # 5314 <stream_vscanf+0xcd8>
    1cb6:	365010ef          	jal	381a <riscprintf_>
    1cba:	4888                	lw	a0,16(s1)
    1cbc:	032507b3          	mul	a5,a0,s2
    1cc0:	97a2                	add	a5,a5,s0
    1cc2:	0c07a783          	lw	a5,192(a5)
    1cc6:	c789                	beqz	a5,1cd0 <_ZN5cue_t6UpdateEv+0x354>
    1cc8:	8522                	mv	a0,s0
    1cca:	c88ff0ef          	jal	1152 <_ZN5cue_t8ReadDataEv.part.0>
    1cce:	4888                	lw	a0,16(s1)
    1cd0:	6791                	lui	a5,0x4
    1cd2:	97a2                	add	a5,a5,s0
    1cd4:	0187a803          	lw	a6,24(a5) # 4018 <outnum+0x1a8>
    1cd8:	4705                	li	a4,1
    1cda:	67a9                	lui	a5,0xa
    1cdc:	56e7ac23          	sw	a4,1400(a5) # a578 <apf_data_already_streamed>
    1ce0:	bd9d                	j	1b56 <_ZN5cue_t6UpdateEv+0x1da>
    1ce2:	6705                	lui	a4,0x1
    1ce4:	93070713          	add	a4,a4,-1744 # 930 <_Z22dataslot_read_lba_fastmb+0x6>
    1ce8:	02e585b3          	mul	a1,a1,a4
    1cec:	0b07a803          	lw	a6,176(a5)
    1cf0:	0c890913          	add	s2,s2,200
    1cf4:	6719                	lui	a4,0x6
    1cf6:	0c47a603          	lw	a2,196(a5)
    1cfa:	02870713          	add	a4,a4,40 # 6028 <aft>
    1cfe:	01240533          	add	a0,s0,s2
    1d02:	410585b3          	sub	a1,a1,a6
    1d06:	b769                	j	1c90 <_ZN5cue_t6UpdateEv+0x314>
    1d08:	4681                	li	a3,0
    1d0a:	bb3d                	j	1a48 <_ZN5cue_t6UpdateEv+0xcc>

00001d0c <_ZN5cue_t11CommandExecEv>:
    1d0c:	1141                	add	sp,sp,-16
    1d0e:	c226                	sw	s1,4(sp)
    1d10:	6491                	lui	s1,0x4
    1d12:	c422                	sw	s0,8(sp)
    1d14:	c606                	sw	ra,12(sp)
    1d16:	94aa                	add	s1,s1,a0
    1d18:	842a                	mv	s0,a0
    1d1a:	04a4c703          	lbu	a4,74(s1) # 404a <outnum+0x1da>
    1d1e:	6519                	lui	a0,0x6
    1d20:	23450793          	add	a5,a0,564 # 6234 <_ZZN5cue_t11CommandExecEvE3buf>
    1d24:	0007a023          	sw	zero,0(a5)
    1d28:	0007a223          	sw	zero,4(a5)
    1d2c:	0007a423          	sw	zero,8(a5)
    1d30:	0007a623          	sw	zero,12(a5)
    1d34:	0007a823          	sw	zero,16(a5)
    1d38:	0007aa23          	sw	zero,20(a5)
    1d3c:	0007ac23          	sw	zero,24(a5)
    1d40:	0007ae23          	sw	zero,28(a5)
    1d44:	0de00693          	li	a3,222
    1d48:	0ce6e563          	bltu	a3,a4,1e12 <_ZN5cue_t11CommandExecEv+0x106>
    1d4c:	0d700693          	li	a3,215
    1d50:	02e6f063          	bgeu	a3,a4,1d70 <_ZN5cue_t11CommandExecEv+0x64>
    1d54:	02870713          	add	a4,a4,40
    1d58:	0ff77713          	zext.b	a4,a4
    1d5c:	4699                	li	a3,6
    1d5e:	0ae6ea63          	bltu	a3,a4,1e12 <_ZN5cue_t11CommandExecEv+0x106>
    1d62:	6695                	lui	a3,0x5
    1d64:	070a                	sll	a4,a4,0x2
    1d66:	73468693          	add	a3,a3,1844 # 5734 <stream_vscanf+0x10f8>
    1d6a:	9736                	add	a4,a4,a3
    1d6c:	4318                	lw	a4,0(a4)
    1d6e:	8702                	jr	a4
    1d70:	46a1                	li	a3,8
    1d72:	42d70b63          	beq	a4,a3,21a8 <_ZN5cue_t11CommandExecEv+0x49c>
    1d76:	40e6ea63          	bltu	a3,a4,218a <_ZN5cue_t11CommandExecEv+0x47e>
    1d7a:	cf35                	beqz	a4,1df6 <_ZN5cue_t11CommandExecEv+0xea>
    1d7c:	468d                	li	a3,3
    1d7e:	08d71a63          	bne	a4,a3,1e12 <_ZN5cue_t11CommandExecEv+0x106>
    1d82:	03c4c703          	lbu	a4,60(s1)
    1d86:	0394c583          	lbu	a1,57(s1)
    1d8a:	03a4d603          	lhu	a2,58(s1)
    1d8e:	00e78823          	sb	a4,16(a5)
    1d92:	7761                	lui	a4,0xffff8
    1d94:	0749                	add	a4,a4,18 # ffff8012 <_end+0xfffed652>
    1d96:	02048ca3          	sb	zero,57(s1)
    1d9a:	02049d23          	sh	zero,58(s1)
    1d9e:	02048e23          	sb	zero,60(s1)
    1da2:	22e51a23          	sh	a4,564(a0)
    1da6:	4814                	lw	a3,16(s0)
    1da8:	07000713          	li	a4,112
    1dac:	00e78123          	sb	a4,2(a5)
    1db0:	4729                	li	a4,10
    1db2:	00b78223          	sb	a1,4(a5)
    1db6:	00e784a3          	sb	a4,9(a5)
    1dba:	00c79723          	sh	a2,14(a5)
    1dbe:	c691                	beqz	a3,1dca <_ZN5cue_t11CommandExecEv+0xbe>
    1dc0:	4609                	li	a2,2
    1dc2:	45d1                	li	a1,20
    1dc4:	23450513          	add	a0,a0,564
    1dc8:	9682                	jalr	a3
    1dca:	03500513          	li	a0,53
    1dce:	18b000ef          	jal	2758 <_Z20HPS_spi_uio_cmd_contt>
    1dd2:	4501                	li	a0,0
    1dd4:	0e3000ef          	jal	26b6 <_Z12HPS_fpga_spit>
    1dd8:	6791                	lui	a5,0x4
    1dda:	97a2                	add	a5,a5,s0
    1ddc:	03d7c503          	lbu	a0,61(a5) # 403d <outnum+0x1cd>
    1de0:	00a03533          	snez	a0,a0
    1de4:	0506                	sll	a0,a0,0x1
    1de6:	0d1000ef          	jal	26b6 <_Z12HPS_fpga_spit>
    1dea:	4422                	lw	s0,8(sp)
    1dec:	40b2                	lw	ra,12(sp)
    1dee:	4492                	lw	s1,4(sp)
    1df0:	0141                	add	sp,sp,16
    1df2:	0a70006f          	j	2698 <_Z13HPS_DisableIOv>
    1df6:	00844703          	lbu	a4,8(s0)
    1dfa:	4785                	li	a5,1
    1dfc:	fcf717e3          	bne	a4,a5,1dca <_ZN5cue_t11CommandExecEv+0xbe>
    1e00:	4789                	li	a5,2
    1e02:	02f48ca3          	sb	a5,57(s1)
    1e06:	47ad                	li	a5,11
    1e08:	02f49d23          	sh	a5,58(s1)
    1e0c:	02048e23          	sb	zero,60(s1)
    1e10:	a831                	j	1e2c <_ZN5cue_t11CommandExecEv+0x120>
    1e12:	6491                	lui	s1,0x4
    1e14:	94a2                	add	s1,s1,s0
    1e16:	4795                	li	a5,5
    1e18:	02f48ca3          	sb	a5,57(s1) # 4039 <outnum+0x1c9>
    1e1c:	02000793          	li	a5,32
    1e20:	02f49d23          	sh	a5,58(s1)
    1e24:	02048e23          	sb	zero,60(s1)
    1e28:	00042a23          	sw	zero,20(s0)
    1e2c:	03500513          	li	a0,53
    1e30:	129000ef          	jal	2758 <_Z20HPS_spi_uio_cmd_contt>
    1e34:	4505                	li	a0,1
    1e36:	081000ef          	jal	26b6 <_Z12HPS_fpga_spit>
    1e3a:	03d4c503          	lbu	a0,61(s1)
    1e3e:	b74d                	j	1de0 <_ZN5cue_t11CommandExecEv+0xd4>
    1e40:	6711                	lui	a4,0x4
    1e42:	9722                	add	a4,a4,s0
    1e44:	05374783          	lbu	a5,83(a4) # 4053 <outnum+0x1e3>
    1e48:	04000693          	li	a3,64
    1e4c:	0c07f793          	and	a5,a5,192
    1e50:	58d78263          	beq	a5,a3,23d4 <_ZN5cue_t11CommandExecEv+0x6c8>
    1e54:	08000693          	li	a3,128
    1e58:	42d79963          	bne	a5,a3,228a <_ZN5cue_t11CommandExecEv+0x57e>
    1e5c:	04c74703          	lbu	a4,76(a4)
    1e60:	00475793          	srl	a5,a4,0x4
    1e64:	00279693          	sll	a3,a5,0x2
    1e68:	97b6                	add	a5,a5,a3
    1e6a:	8b3d                	and	a4,a4,15
    1e6c:	0786                	sll	a5,a5,0x1
    1e6e:	97ba                	add	a5,a5,a4
    1e70:	0ff7f713          	zext.b	a4,a5
    1e74:	e311                	bnez	a4,1e78 <_ZN5cue_t11CommandExecEv+0x16c>
    1e76:	4785                	li	a5,1
    1e78:	5018                	lw	a4,32(s0)
    1e7a:	0ff7f793          	zext.b	a5,a5
    1e7e:	5cf75363          	bge	a4,a5,2444 <_ZN5cue_t11CommandExecEv+0x738>
    1e82:	4c5c                	lw	a5,28(s0)
    1e84:	6711                	lui	a4,0x4
    1e86:	9722                	add	a4,a4,s0
    1e88:	04b74683          	lbu	a3,75(a4) # 404b <outnum+0x1db>
    1e8c:	db1c                	sw	a5,48(a4)
    1e8e:	02d70c23          	sb	a3,56(a4)
    1e92:	42069163          	bnez	a3,22b4 <_ZN5cue_t11CommandExecEv+0x5a8>
    1e96:	00040423          	sb	zero,8(s0)
    1e9a:	bf05                	j	1dca <_ZN5cue_t11CommandExecEv+0xbe>
    1e9c:	6791                	lui	a5,0x4
    1e9e:	97a2                	add	a5,a5,s0
    1ea0:	0537c703          	lbu	a4,83(a5) # 4053 <outnum+0x1e3>
    1ea4:	04000693          	li	a3,64
    1ea8:	0c077713          	and	a4,a4,192
    1eac:	4ad70f63          	beq	a4,a3,236a <_ZN5cue_t11CommandExecEv+0x65e>
    1eb0:	08000693          	li	a3,128
    1eb4:	3ad70063          	beq	a4,a3,2254 <_ZN5cue_t11CommandExecEv+0x548>
    1eb8:	04d7c483          	lbu	s1,77(a5)
    1ebc:	04e7c703          	lbu	a4,78(a5)
    1ec0:	04f7c683          	lbu	a3,79(a5)
    1ec4:	04c2                	sll	s1,s1,0x10
    1ec6:	00871793          	sll	a5,a4,0x8
    1eca:	8cdd                	or	s1,s1,a5
    1ecc:	8cd5                	or	s1,s1,a3
    1ece:	6791                	lui	a5,0x4
    1ed0:	97a2                	add	a5,a5,s0
    1ed2:	05778703          	lb	a4,87(a5) # 4057 <outnum+0x1e7>
    1ed6:	3e075663          	bgez	a4,22c2 <_ZN5cue_t11CommandExecEv+0x5b6>
    1eda:	00042023          	sw	zero,0(s0)
    1ede:	00042223          	sw	zero,4(s0)
    1ee2:	6791                	lui	a5,0x4
    1ee4:	97a2                	add	a5,a5,s0
    1ee6:	cf84                	sw	s1,24(a5)
    1ee8:	0bc42783          	lw	a5,188(s0)
    1eec:	56f4c563          	blt	s1,a5,2456 <_ZN5cue_t11CommandExecEv+0x74a>
    1ef0:	5010                	lw	a2,32(s0)
    1ef2:	16040713          	add	a4,s0,352
    1ef6:	4781                	li	a5,0
    1ef8:	00c7d863          	bge	a5,a2,1f08 <_ZN5cue_t11CommandExecEv+0x1fc>
    1efc:	4314                	lw	a3,0(a4)
    1efe:	0785                	add	a5,a5,1 # 4001 <outnum+0x191>
    1f00:	0a470713          	add	a4,a4,164
    1f04:	fed4dae3          	bge	s1,a3,1ef8 <_ZN5cue_t11CommandExecEv+0x1ec>
    1f08:	6711                	lui	a4,0x4
    1f0a:	9722                	add	a4,a4,s0
    1f0c:	04b74603          	lbu	a2,75(a4) # 404b <outnum+0x1db>
    1f10:	cb1c                	sw	a5,16(a4)
    1f12:	d744                	sw	s1,44(a4)
    1f14:	4c4c                	lw	a1,28(s0)
    1f16:	4685                	li	a3,1
    1f18:	00163793          	seqz	a5,a2
    1f1c:	02c70c23          	sb	a2,56(a4)
    1f20:	db0c                	sw	a1,48(a4)
    1f22:	db54                	sw	a3,52(a4)
    1f24:	078d                	add	a5,a5,3
    1f26:	00f40423          	sb	a5,8(s0)
    1f2a:	04071423          	sh	zero,72(a4)
    1f2e:	40b2                	lw	ra,12(sp)
    1f30:	c854                	sw	a3,20(s0)
    1f32:	4422                	lw	s0,8(sp)
    1f34:	4492                	lw	s1,4(sp)
    1f36:	0141                	add	sp,sp,16
    1f38:	8082                	ret
    1f3a:	6711                	lui	a4,0x4
    1f3c:	9722                	add	a4,a4,s0
    1f3e:	04b74683          	lbu	a3,75(a4) # 404b <outnum+0x1db>
    1f42:	4605                	li	a2,1
    1f44:	3ac68763          	beq	a3,a2,22f2 <_ZN5cue_t11CommandExecEv+0x5e6>
    1f48:	4589                	li	a1,2
    1f4a:	2eb69463          	bne	a3,a1,2232 <_ZN5cue_t11CommandExecEv+0x526>
    1f4e:	04c74683          	lbu	a3,76(a4)
    1f52:	04b00893          	li	a7,75
    1f56:	45a9                	li	a1,10
    1f58:	0046d713          	srl	a4,a3,0x4
    1f5c:	00271613          	sll	a2,a4,0x2
    1f60:	9732                	add	a4,a4,a2
    1f62:	8abd                	and	a3,a3,15
    1f64:	0706                	sll	a4,a4,0x1
    1f66:	9736                	add	a4,a4,a3
    1f68:	0ff77713          	zext.b	a4,a4
    1f6c:	0a400693          	li	a3,164
    1f70:	177d                	add	a4,a4,-1
    1f72:	02d70733          	mul	a4,a4,a3
    1f76:	76e1                	lui	a3,0xffff8
    1f78:	0691                	add	a3,a3,4 # ffff8004 <_end+0xfffed644>
    1f7a:	22d51a23          	sh	a3,564(a0)
    1f7e:	6605                	lui	a2,0x1
    1f80:	19460613          	add	a2,a2,404 # 1194 <_ZN5cue_t8ReadDataEv.part.0+0x42>
    1f84:	9722                	add	a4,a4,s0
    1f86:	0b872683          	lw	a3,184(a4)
    1f8a:	0c072803          	lw	a6,192(a4)
    1f8e:	09668713          	add	a4,a3,150
    1f92:	031746b3          	div	a3,a4,a7
    1f96:	080a                	sll	a6,a6,0x2
    1f98:	010782a3          	sb	a6,5(a5)
    1f9c:	03c00813          	li	a6,60
    1fa0:	02c74633          	div	a2,a4,a2
    1fa4:	0306e6b3          	rem	a3,a3,a6
    1fa8:	0ff67613          	zext.b	a2,a2
    1fac:	03176733          	rem	a4,a4,a7
    1fb0:	0ff6f693          	zext.b	a3,a3
    1fb4:	0ff77713          	zext.b	a4,a4
    1fb8:	02b65333          	divu	t1,a2,a1
    1fbc:	02b6d8b3          	divu	a7,a3,a1
    1fc0:	0312                	sll	t1,t1,0x4
    1fc2:	02b75833          	divu	a6,a4,a1
    1fc6:	0892                	sll	a7,a7,0x4
    1fc8:	02b67633          	remu	a2,a2,a1
    1fcc:	0812                	sll	a6,a6,0x4
    1fce:	02b6f6b3          	remu	a3,a3,a1
    1fd2:	00c36633          	or	a2,t1,a2
    1fd6:	00c78123          	sb	a2,2(a5)
    1fda:	02b77733          	remu	a4,a4,a1
    1fde:	00d8e6b3          	or	a3,a7,a3
    1fe2:	00d781a3          	sb	a3,3(a5)
    1fe6:	00e86733          	or	a4,a6,a4
    1fea:	00e78223          	sb	a4,4(a5)
    1fee:	481c                	lw	a5,16(s0)
    1ff0:	dc078de3          	beqz	a5,1dca <_ZN5cue_t11CommandExecEv+0xbe>
    1ff4:	4609                	li	a2,2
    1ff6:	4599                	li	a1,6
    1ff8:	23450513          	add	a0,a0,564
    1ffc:	9782                	jalr	a5
    1ffe:	b3f1                	j	1dca <_ZN5cue_t11CommandExecEv+0xbe>
    2000:	6711                	lui	a4,0x4
    2002:	9722                	add	a4,a4,s0
    2004:	4b10                	lw	a2,16(a4)
    2006:	0a400593          	li	a1,164
    200a:	c04a                	sw	s2,0(sp)
    200c:	02b605b3          	mul	a1,a2,a1
    2010:	4f14                	lw	a3,24(a4)
    2012:	7861                	lui	a6,0xffff8
    2014:	00844703          	lbu	a4,8(s0)
    2018:	0829                	add	a6,a6,10 # ffff800a <_end+0xfffed64a>
    201a:	23051a23          	sh	a6,564(a0)
    201e:	4811                	li	a6,4
    2020:	4e09                	li	t3,2
    2022:	95a2                	add	a1,a1,s0
    2024:	0b85a583          	lw	a1,184(a1)
    2028:	40b685b3          	sub	a1,a3,a1
    202c:	01070963          	beq	a4,a6,203e <_ZN5cue_t11CommandExecEv+0x332>
    2030:	1775                	add	a4,a4,-3 # 3ffd <outnum+0x18d>
    2032:	00e03733          	snez	a4,a4
    2036:	40e00733          	neg	a4,a4
    203a:	00377e13          	and	t3,a4,3
    203e:	04b00893          	li	a7,75
    2042:	09668693          	add	a3,a3,150
    2046:	0316c4b3          	div	s1,a3,a7
    204a:	6805                	lui	a6,0x1
    204c:	19480813          	add	a6,a6,404 # 1194 <_ZN5cue_t8ReadDataEv.part.0+0x42>
    2050:	4729                	li	a4,10
    2052:	03c00313          	li	t1,60
    2056:	00160093          	add	ra,a2,1
    205a:	01c78123          	sb	t3,2(a5)
    205e:	01000fb7          	lui	t6,0x1000
    2062:	1ffd                	add	t6,t6,-1 # ffffff <_end+0xff563f>
    2064:	01042e83          	lw	t4,16(s0)
    2068:	0315cf33          	div	t5,a1,a7
    206c:	0306c2b3          	div	t0,a3,a6
    2070:	0305c833          	div	a6,a1,a6
    2074:	0ff2f293          	zext.b	t0,t0
    2078:	0316e6b3          	rem	a3,a3,a7
    207c:	0ff87813          	zext.b	a6,a6
    2080:	0315e5b3          	rem	a1,a1,a7
    2084:	0ff6fe13          	zext.b	t3,a3
    2088:	0264e4b3          	rem	s1,s1,t1
    208c:	0ff5f593          	zext.b	a1,a1
    2090:	026f6f33          	rem	t5,t5,t1
    2094:	0ff4f493          	zext.b	s1,s1
    2098:	02e64333          	div	t1,a2,a4
    209c:	0fff7f13          	zext.b	t5,t5
    20a0:	02e66633          	rem	a2,a2,a4
    20a4:	0312                	sll	t1,t1,0x4
    20a6:	02e0c6b3          	div	a3,ra,a4
    20aa:	00c36333          	or	t1,t1,a2
    20ae:	0ff37313          	zext.b	t1,t1
    20b2:	0322                	sll	t1,t1,0x8
    20b4:	02e853b3          	divu	t2,a6,a4
    20b8:	0692                	sll	a3,a3,0x4
    20ba:	02e2d8b3          	divu	a7,t0,a4
    20be:	0392                	sll	t2,t2,0x4
    20c0:	02e0e0b3          	rem	ra,ra,a4
    20c4:	0892                	sll	a7,a7,0x4
    20c6:	02e87833          	remu	a6,a6,a4
    20ca:	0016e6b3          	or	a3,a3,ra
    20ce:	0ff6f693          	zext.b	a3,a3
    20d2:	0066e6b3          	or	a3,a3,t1
    20d6:	02e5d633          	divu	a2,a1,a4
    20da:	0103e833          	or	a6,t2,a6
    20de:	0ff87813          	zext.b	a6,a6
    20e2:	0842                	sll	a6,a6,0x10
    20e4:	0106e6b3          	or	a3,a3,a6
    20e8:	01f6f6b3          	and	a3,a3,t6
    20ec:	02e2f2b3          	remu	t0,t0,a4
    20f0:	0612                	sll	a2,a2,0x4
    20f2:	02e4d933          	divu	s2,s1,a4
    20f6:	0058e8b3          	or	a7,a7,t0
    20fa:	0ff8f893          	zext.b	a7,a7
    20fe:	08a2                	sll	a7,a7,0x8
    2100:	02e5f5b3          	remu	a1,a1,a4
    2104:	00491293          	sll	t0,s2,0x4
    2108:	02e4f4b3          	remu	s1,s1,a4
    210c:	8e4d                	or	a2,a2,a1
    210e:	0ff67613          	zext.b	a2,a2
    2112:	01166633          	or	a2,a2,a7
    2116:	0092e5b3          	or	a1,t0,s1
    211a:	02ef5833          	divu	a6,t5,a4
    211e:	0ff5f593          	zext.b	a1,a1
    2122:	05c2                	sll	a1,a1,0x10
    2124:	8e4d                	or	a2,a2,a1
    2126:	01f67633          	and	a2,a2,t6
    212a:	02ef7f33          	remu	t5,t5,a4
    212e:	0812                	sll	a6,a6,0x4
    2130:	02ee55b3          	divu	a1,t3,a4
    2134:	02ee7e33          	remu	t3,t3,a4
    2138:	01e86733          	or	a4,a6,t5
    213c:	0762                	sll	a4,a4,0x18
    213e:	0592                	sll	a1,a1,0x4
    2140:	8ed9                	or	a3,a3,a4
    2142:	c3d4                	sw	a3,4(a5)
    2144:	01c5e733          	or	a4,a1,t3
    2148:	0762                	sll	a4,a4,0x18
    214a:	8f51                	or	a4,a4,a2
    214c:	c798                	sw	a4,8(a5)
    214e:	000e8763          	beqz	t4,215c <_ZN5cue_t11CommandExecEv+0x450>
    2152:	4609                	li	a2,2
    2154:	45b1                	li	a1,12
    2156:	23450513          	add	a0,a0,564
    215a:	9e82                	jalr	t4
    215c:	03500513          	li	a0,53
    2160:	2be5                	jal	2758 <_Z20HPS_spi_uio_cmd_contt>
    2162:	4501                	li	a0,0
    2164:	2b89                	jal	26b6 <_Z12HPS_fpga_spit>
    2166:	6791                	lui	a5,0x4
    2168:	97a2                	add	a5,a5,s0
    216a:	03d7c503          	lbu	a0,61(a5) # 403d <outnum+0x1cd>
    216e:	00a03533          	snez	a0,a0
    2172:	0506                	sll	a0,a0,0x1
    2174:	2389                	jal	26b6 <_Z12HPS_fpga_spit>
    2176:	4422                	lw	s0,8(sp)
    2178:	4902                	lw	s2,0(sp)
    217a:	40b2                	lw	ra,12(sp)
    217c:	4492                	lw	s1,4(sp)
    217e:	0141                	add	sp,sp,16
    2180:	ab21                	j	2698 <_Z13HPS_DisableIOv>
    2182:	4791                	li	a5,4
    2184:	00f40423          	sb	a5,8(s0)
    2188:	b189                	j	1dca <_ZN5cue_t11CommandExecEv+0xbe>
    218a:	47d5                	li	a5,21
    218c:	c8f713e3          	bne	a4,a5,1e12 <_ZN5cue_t11CommandExecEv+0x106>
    2190:	04e4c783          	lbu	a5,78(s1)
    2194:	c2078be3          	beqz	a5,1dca <_ZN5cue_t11CommandExecEv+0xbe>
    2198:	4785                	li	a5,1
    219a:	00f40c23          	sb	a5,24(s0)
    219e:	40b2                	lw	ra,12(sp)
    21a0:	4422                	lw	s0,8(sp)
    21a2:	4492                	lw	s1,4(sp)
    21a4:	0141                	add	sp,sp,16
    21a6:	8082                	ret
    21a8:	c04a                	sw	s2,0(sp)
    21aa:	04b4c583          	lbu	a1,75(s1)
    21ae:	04c4c783          	lbu	a5,76(s1)
    21b2:	04d4c703          	lbu	a4,77(s1)
    21b6:	05c2                	sll	a1,a1,0x10
    21b8:	07a2                	sll	a5,a5,0x8
    21ba:	8ddd                	or	a1,a1,a5
    21bc:	04e4c783          	lbu	a5,78(s1)
    21c0:	00e5e4b3          	or	s1,a1,a4
    21c4:	04ae                	sll	s1,s1,0xb
    21c6:	80ad                	srl	s1,s1,0xb
    21c8:	10000913          	li	s2,256
    21cc:	c391                	beqz	a5,21d0 <_ZN5cue_t11CommandExecEv+0x4c4>
    21ce:	893e                	mv	s2,a5
    21d0:	0bc42783          	lw	a5,188(s0)
    21d4:	28f4c363          	blt	s1,a5,245a <_ZN5cue_t11CommandExecEv+0x74e>
    21d8:	5010                	lw	a2,32(s0)
    21da:	16040713          	add	a4,s0,352
    21de:	4781                	li	a5,0
    21e0:	00c7d863          	bge	a5,a2,21f0 <_ZN5cue_t11CommandExecEv+0x4e4>
    21e4:	4314                	lw	a3,0(a4)
    21e6:	0785                	add	a5,a5,1
    21e8:	0a470713          	add	a4,a4,164
    21ec:	fed4dae3          	bge	s1,a3,21e0 <_ZN5cue_t11CommandExecEv+0x4d4>
    21f0:	6711                	lui	a4,0x4
    21f2:	9722                	add	a4,a4,s0
    21f4:	4f08                	lw	a0,24(a4)
    21f6:	cb1c                	sw	a5,16(a4)
    21f8:	0ea48263          	beq	s1,a0,22dc <_ZN5cue_t11CommandExecEv+0x5d0>
    21fc:	6791                	lui	a5,0x4
    21fe:	97a2                	add	a5,a5,s0
    2200:	05778783          	lb	a5,87(a5) # 4057 <outnum+0x1e7>
    2204:	0807df63          	bgez	a5,22a2 <_ZN5cue_t11CommandExecEv+0x596>
    2208:	00042023          	sw	zero,0(s0)
    220c:	6791                	lui	a5,0x4
    220e:	97a2                	add	a5,a5,s0
    2210:	cf84                	sw	s1,24(a5)
    2212:	0127ae23          	sw	s2,28(a5) # 401c <outnum+0x1ac>
    2216:	0207a423          	sw	zero,40(a5)
    221a:	4785                	li	a5,1
    221c:	00f40ca3          	sb	a5,25(s0)
    2220:	4789                	li	a5,2
    2222:	00f40423          	sb	a5,8(s0)
    2226:	40b2                	lw	ra,12(sp)
    2228:	4422                	lw	s0,8(sp)
    222a:	4902                	lw	s2,0(sp)
    222c:	4492                	lw	s1,4(sp)
    222e:	0141                	add	sp,sp,16
    2230:	8082                	ret
    2232:	5014                	lw	a3,32(s0)
    2234:	4829                	li	a6,10
    2236:	75e1                	lui	a1,0xffff8
    2238:	0306c733          	div	a4,a3,a6
    223c:	0591                	add	a1,a1,4 # ffff8004 <_end+0xfffed644>
    223e:	22b51a23          	sh	a1,564(a0)
    2242:	00c78123          	sb	a2,2(a5)
    2246:	0306e6b3          	rem	a3,a3,a6
    224a:	0712                	sll	a4,a4,0x4
    224c:	8f55                	or	a4,a4,a3
    224e:	00e781a3          	sb	a4,3(a5)
    2252:	bb71                	j	1fee <_ZN5cue_t11CommandExecEv+0x2e2>
    2254:	04c7c683          	lbu	a3,76(a5)
    2258:	4701                	li	a4,0
    225a:	0046d793          	srl	a5,a3,0x4
    225e:	00279613          	sll	a2,a5,0x2
    2262:	97b2                	add	a5,a5,a2
    2264:	0786                	sll	a5,a5,0x1
    2266:	8abd                	and	a3,a3,15
    2268:	97b6                	add	a5,a5,a3
    226a:	0ff7f793          	zext.b	a5,a5
    226e:	c791                	beqz	a5,227a <_ZN5cue_t11CommandExecEv+0x56e>
    2270:	5018                	lw	a4,32(s0)
    2272:	00e7d363          	bge	a5,a4,2278 <_ZN5cue_t11CommandExecEv+0x56c>
    2276:	873e                	mv	a4,a5
    2278:	177d                	add	a4,a4,-1 # 3fff <outnum+0x18f>
    227a:	0a400793          	li	a5,164
    227e:	02f70733          	mul	a4,a4,a5
    2282:	9722                	add	a4,a4,s0
    2284:	0b872483          	lw	s1,184(a4)
    2288:	b199                	j	1ece <_ZN5cue_t11CommandExecEv+0x1c2>
    228a:	04d74783          	lbu	a5,77(a4)
    228e:	04e74683          	lbu	a3,78(a4)
    2292:	04f74603          	lbu	a2,79(a4)
    2296:	07c2                	sll	a5,a5,0x10
    2298:	00869713          	sll	a4,a3,0x8
    229c:	8fd9                	or	a5,a5,a4
    229e:	8fd1                	or	a5,a5,a2
    22a0:	b6d5                	j	1e84 <_ZN5cue_t11CommandExecEv+0x178>
    22a2:	85a6                	mv	a1,s1
    22a4:	24a1                	jal	24ec <_Z14get_cd_seek_msii>
    22a6:	47b5                	li	a5,13
    22a8:	02f54533          	div	a0,a0,a5
    22ac:	00042223          	sw	zero,4(s0)
    22b0:	c008                	sw	a0,0(s0)
    22b2:	bfa9                	j	220c <_ZN5cue_t11CommandExecEv+0x500>
    22b4:	478d                	li	a5,3
    22b6:	00f40423          	sb	a5,8(s0)
    22ba:	4789                	li	a5,2
    22bc:	eef681e3          	beq	a3,a5,219e <_ZN5cue_t11CommandExecEv+0x492>
    22c0:	b629                	j	1dca <_ZN5cue_t11CommandExecEv+0xbe>
    22c2:	4f88                	lw	a0,24(a5)
    22c4:	85a6                	mv	a1,s1
    22c6:	241d                	jal	24ec <_Z14get_cd_seek_msii>
    22c8:	47b5                	li	a5,13
    22ca:	02f54533          	div	a0,a0,a5
    22ce:	47c1                	li	a5,16
    22d0:	c05c                	sw	a5,4(s0)
    22d2:	16a7f563          	bgeu	a5,a0,243c <_ZN5cue_t11CommandExecEv+0x730>
    22d6:	1541                	add	a0,a0,-16
    22d8:	c008                	sw	a0,0(s0)
    22da:	b121                	j	1ee2 <_ZN5cue_t11CommandExecEv+0x1d6>
    22dc:	07800793          	li	a5,120
    22e0:	f2f904e3          	beq	s2,a5,2208 <_ZN5cue_t11CommandExecEv+0x4fc>
    22e4:	0fc00793          	li	a5,252
    22e8:	f0f91ae3          	bne	s2,a5,21fc <_ZN5cue_t11CommandExecEv+0x4f0>
    22ec:	4795                	li	a5,5
    22ee:	c01c                	sw	a5,0(s0)
    22f0:	bf31                	j	220c <_ZN5cue_t11CommandExecEv+0x500>
    22f2:	4c58                	lw	a4,28(s0)
    22f4:	04b00593          	li	a1,75
    22f8:	7661                	lui	a2,0xffff8
    22fa:	09670713          	add	a4,a4,150
    22fe:	02b74833          	div	a6,a4,a1
    2302:	0611                	add	a2,a2,4 # ffff8004 <_end+0xfffed644>
    2304:	22c51a23          	sh	a2,564(a0)
    2308:	03c00613          	li	a2,60
    230c:	6685                	lui	a3,0x1
    230e:	19468693          	add	a3,a3,404 # 1194 <_ZN5cue_t8ReadDataEv.part.0+0x42>
    2312:	48a9                	li	a7,10
    2314:	02c86833          	rem	a6,a6,a2
    2318:	02d746b3          	div	a3,a4,a3
    231c:	0ff87813          	zext.b	a6,a6
    2320:	02b76733          	rem	a4,a4,a1
    2324:	0ff6f693          	zext.b	a3,a3
    2328:	031855b3          	divu	a1,a6,a7
    232c:	0ff77713          	zext.b	a4,a4
    2330:	03187833          	remu	a6,a6,a7
    2334:	0592                	sll	a1,a1,0x4
    2336:	0316d633          	divu	a2,a3,a7
    233a:	0105e5b3          	or	a1,a1,a6
    233e:	0ff5f593          	zext.b	a1,a1
    2342:	05a2                	sll	a1,a1,0x8
    2344:	0316f6b3          	remu	a3,a3,a7
    2348:	0612                	sll	a2,a2,0x4
    234a:	03175833          	divu	a6,a4,a7
    234e:	8ed1                	or	a3,a3,a2
    2350:	0ff6f693          	zext.b	a3,a3
    2354:	8ecd                	or	a3,a3,a1
    2356:	00d79123          	sh	a3,2(a5)
    235a:	03177733          	remu	a4,a4,a7
    235e:	00481693          	sll	a3,a6,0x4
    2362:	8f55                	or	a4,a4,a3
    2364:	00e78223          	sb	a4,4(a5)
    2368:	b159                	j	1fee <_ZN5cue_t11CommandExecEv+0x2e2>
    236a:	04c7c683          	lbu	a3,76(a5)
    236e:	04d7c603          	lbu	a2,77(a5)
    2372:	6505                	lui	a0,0x1
    2374:	0046d713          	srl	a4,a3,0x4
    2378:	00271593          	sll	a1,a4,0x2
    237c:	972e                	add	a4,a4,a1
    237e:	8abd                	and	a3,a3,15
    2380:	0706                	sll	a4,a4,0x1
    2382:	9736                	add	a4,a4,a3
    2384:	0ff77713          	zext.b	a4,a4
    2388:	00465693          	srl	a3,a2,0x4
    238c:	19450513          	add	a0,a0,404 # 1194 <_ZN5cue_t8ReadDataEv.part.0+0x42>
    2390:	04e7c583          	lbu	a1,78(a5)
    2394:	02a707b3          	mul	a5,a4,a0
    2398:	00269713          	sll	a4,a3,0x2
    239c:	9736                	add	a4,a4,a3
    239e:	8a3d                	and	a2,a2,15
    23a0:	0706                	sll	a4,a4,0x1
    23a2:	0045d693          	srl	a3,a1,0x4
    23a6:	9732                	add	a4,a4,a2
    23a8:	0ff77713          	zext.b	a4,a4
    23ac:	00269513          	sll	a0,a3,0x2
    23b0:	00271613          	sll	a2,a4,0x2
    23b4:	96aa                	add	a3,a3,a0
    23b6:	963a                	add	a2,a2,a4
    23b8:	89bd                	and	a1,a1,15
    23ba:	00169713          	sll	a4,a3,0x1
    23be:	00461493          	sll	s1,a2,0x4
    23c2:	972e                	add	a4,a4,a1
    23c4:	8c91                	sub	s1,s1,a2
    23c6:	0ff77713          	zext.b	a4,a4
    23ca:	94ba                	add	s1,s1,a4
    23cc:	94be                	add	s1,s1,a5
    23ce:	f6a48493          	add	s1,s1,-150
    23d2:	bcf5                	j	1ece <_ZN5cue_t11CommandExecEv+0x1c2>
    23d4:	04c74683          	lbu	a3,76(a4)
    23d8:	04d74603          	lbu	a2,77(a4)
    23dc:	6505                	lui	a0,0x1
    23de:	0046d793          	srl	a5,a3,0x4
    23e2:	00279593          	sll	a1,a5,0x2
    23e6:	97ae                	add	a5,a5,a1
    23e8:	8abd                	and	a3,a3,15
    23ea:	0786                	sll	a5,a5,0x1
    23ec:	97b6                	add	a5,a5,a3
    23ee:	0ff7f793          	zext.b	a5,a5
    23f2:	00465693          	srl	a3,a2,0x4
    23f6:	19450513          	add	a0,a0,404 # 1194 <_ZN5cue_t8ReadDataEv.part.0+0x42>
    23fa:	04e74583          	lbu	a1,78(a4)
    23fe:	02a78733          	mul	a4,a5,a0
    2402:	00269793          	sll	a5,a3,0x2
    2406:	97b6                	add	a5,a5,a3
    2408:	8a3d                	and	a2,a2,15
    240a:	0786                	sll	a5,a5,0x1
    240c:	0045d693          	srl	a3,a1,0x4
    2410:	97b2                	add	a5,a5,a2
    2412:	0ff7f793          	zext.b	a5,a5
    2416:	00269513          	sll	a0,a3,0x2
    241a:	00279613          	sll	a2,a5,0x2
    241e:	96aa                	add	a3,a3,a0
    2420:	963e                	add	a2,a2,a5
    2422:	0686                	sll	a3,a3,0x1
    2424:	89bd                	and	a1,a1,15
    2426:	00461793          	sll	a5,a2,0x4
    242a:	96ae                	add	a3,a3,a1
    242c:	8f91                	sub	a5,a5,a2
    242e:	0ff6f693          	zext.b	a3,a3
    2432:	97b6                	add	a5,a5,a3
    2434:	97ba                	add	a5,a5,a4
    2436:	f6a78793          	add	a5,a5,-150
    243a:	b4a9                	j	1e84 <_ZN5cue_t11CommandExecEv+0x178>
    243c:	c008                	sw	a0,0(s0)
    243e:	00042223          	sw	zero,4(s0)
    2442:	b445                	j	1ee2 <_ZN5cue_t11CommandExecEv+0x1d6>
    2444:	17fd                	add	a5,a5,-1
    2446:	0a400713          	li	a4,164
    244a:	02e787b3          	mul	a5,a5,a4
    244e:	97a2                	add	a5,a5,s0
    2450:	0b87a783          	lw	a5,184(a5)
    2454:	bc05                	j	1e84 <_ZN5cue_t11CommandExecEv+0x178>
    2456:	4781                	li	a5,0
    2458:	bc45                	j	1f08 <_ZN5cue_t11CommandExecEv+0x1fc>
    245a:	4781                	li	a5,0
    245c:	bb51                	j	21f0 <_ZN5cue_t11CommandExecEv+0x4e4>

0000245e <_ZN5cue_t9GetStatusEv>:
    245e:	6791                	lui	a5,0x4
    2460:	953e                	add	a0,a0,a5
    2462:	04855503          	lhu	a0,72(a0)
    2466:	8082                	ret

00002468 <_ZN5cue_t10SetCommandEPh>:
    2468:	6791                	lui	a5,0x4
    246a:	04a78793          	add	a5,a5,74 # 404a <outnum+0x1da>
    246e:	1141                	add	sp,sp,-16
    2470:	4639                	li	a2,14
    2472:	953e                	add	a0,a0,a5
    2474:	c606                	sw	ra,12(sp)
    2476:	18d010ef          	jal	3e02 <memcpy>
    247a:	40b2                	lw	ra,12(sp)
    247c:	4501                	li	a0,0
    247e:	0141                	add	sp,sp,16
    2480:	8082                	ret

00002482 <_ZN5cue_t10SendStatusEt>:
    2482:	1141                	add	sp,sp,-16
    2484:	c422                	sw	s0,8(sp)
    2486:	842a                	mv	s0,a0
    2488:	03500513          	li	a0,53
    248c:	c606                	sw	ra,12(sp)
    248e:	c226                	sw	s1,4(sp)
    2490:	84ae                	mv	s1,a1
    2492:	24d9                	jal	2758 <_Z20HPS_spi_uio_cmd_contt>
    2494:	8526                	mv	a0,s1
    2496:	2405                	jal	26b6 <_Z12HPS_fpga_spit>
    2498:	6791                	lui	a5,0x4
    249a:	943e                	add	s0,s0,a5
    249c:	03d44503          	lbu	a0,61(s0)
    24a0:	00a03533          	snez	a0,a0
    24a4:	0506                	sll	a0,a0,0x1
    24a6:	2c01                	jal	26b6 <_Z12HPS_fpga_spit>
    24a8:	4422                	lw	s0,8(sp)
    24aa:	40b2                	lw	ra,12(sp)
    24ac:	4492                	lw	s1,4(sp)
    24ae:	0141                	add	sp,sp,16
    24b0:	a2e5                	j	2698 <_Z13HPS_DisableIOv>

000024b2 <_ZN5cue_t15SendDataRequestEv>:
    24b2:	1141                	add	sp,sp,-16
    24b4:	c422                	sw	s0,8(sp)
    24b6:	842a                	mv	s0,a0
    24b8:	03500513          	li	a0,53
    24bc:	c606                	sw	ra,12(sp)
    24be:	2c69                	jal	2758 <_Z20HPS_spi_uio_cmd_contt>
    24c0:	4501                	li	a0,0
    24c2:	2ad5                	jal	26b6 <_Z12HPS_fpga_spit>
    24c4:	6791                	lui	a5,0x4
    24c6:	943e                	add	s0,s0,a5
    24c8:	03d44503          	lbu	a0,61(s0)
    24cc:	00153513          	seqz	a0,a0
    24d0:	40a00533          	neg	a0,a0
    24d4:	9979                	and	a0,a0,-2
    24d6:	050d                	add	a0,a0,3
    24d8:	2af9                	jal	26b6 <_Z12HPS_fpga_spit>
    24da:	4422                	lw	s0,8(sp)
    24dc:	40b2                	lw	ra,12(sp)
    24de:	0141                	add	sp,sp,16
    24e0:	aa65                	j	2698 <_Z13HPS_DisableIOv>

000024e2 <_ZN5cue_t9SetRegionEh>:
    24e2:	6791                	lui	a5,0x4
    24e4:	953e                	add	a0,a0,a5
    24e6:	02b50ea3          	sb	a1,61(a0)
    24ea:	8082                	ret

000024ec <_Z14get_cd_seek_msii>:
    24ec:	1141                	add	sp,sp,-16
    24ee:	6799                	lui	a5,0x6
    24f0:	9f078693          	add	a3,a5,-1552 # 59f0 <sector_list+0x4>
    24f4:	c606                	sw	ra,12(sp)
    24f6:	c422                	sw	s0,8(sp)
    24f8:	862e                	mv	a2,a1
    24fa:	9f078793          	add	a5,a5,-1552
    24fe:	4701                	li	a4,0
    2500:	4839                	li	a6,14
    2502:	438c                	lw	a1,0(a5)
    2504:	00b54563          	blt	a0,a1,250e <_Z14get_cd_seek_msii+0x22>
    2508:	43cc                	lw	a1,4(a5)
    250a:	00a5d763          	bge	a1,a0,2518 <_Z14get_cd_seek_msii+0x2c>
    250e:	0705                	add	a4,a4,1
    2510:	07d1                	add	a5,a5,20
    2512:	ff0718e3          	bne	a4,a6,2502 <_Z14get_cd_seek_msii+0x16>
    2516:	4701                	li	a4,0
    2518:	4781                	li	a5,0
    251a:	4839                	li	a6,14
    251c:	428c                	lw	a1,0(a3)
    251e:	00b64563          	blt	a2,a1,2528 <_Z14get_cd_seek_msii+0x3c>
    2522:	42cc                	lw	a1,4(a3)
    2524:	0cc5d163          	bge	a1,a2,25e6 <_Z14get_cd_seek_msii+0xfa>
    2528:	0785                	add	a5,a5,1
    252a:	06d1                	add	a3,a3,20
    252c:	ff0798e3          	bne	a5,a6,251c <_Z14get_cd_seek_msii+0x30>
    2530:	6599                	lui	a1,0x6
    2532:	9ec58593          	add	a1,a1,-1556 # 59ec <sector_list>
    2536:	0005ae83          	lw	t4,0(a1)
    253a:	40a60833          	sub	a6,a2,a0
    253e:	cf41                	beqz	a4,25d6 <_Z14get_cd_seek_msii+0xea>
    2540:	00271693          	sll	a3,a4,0x2
    2544:	00e687b3          	add	a5,a3,a4
    2548:	078a                	sll	a5,a5,0x2
    254a:	97ae                	add	a5,a5,a1
    254c:	0007af03          	lw	t5,0(a5)
    2550:	4881                	li	a7,0
    2552:	4781                	li	a5,0
    2554:	96ba                	add	a3,a3,a4
    2556:	98be                	add	a7,a7,a5
    2558:	068a                	sll	a3,a3,0x2
    255a:	088a                	sll	a7,a7,0x2
    255c:	96ae                	add	a3,a3,a1
    255e:	98ae                	add	a7,a7,a1
    2560:	0046a303          	lw	t1,4(a3)
    2564:	0088a883          	lw	a7,8(a7)
    2568:	40f706b3          	sub	a3,a4,a5
    256c:	40650333          	sub	t1,a0,t1
    2570:	40c888b3          	sub	a7,a7,a2
    2574:	03e34333          	div	t1,t1,t5
    2578:	16fd                	add	a3,a3,-1
    257a:	873e                	mv	a4,a5
    257c:	64700793          	li	a5,1607
    2580:	03d8c8b3          	div	a7,a7,t4
    2584:	02f687b3          	mul	a5,a3,a5
    2588:	006886b3          	add	a3,a7,t1
    258c:	97b6                	add	a5,a5,a3
    258e:	00380693          	add	a3,a6,3
    2592:	4899                	li	a7,6
    2594:	02100413          	li	s0,33
    2598:	00d8fe63          	bgeu	a7,a3,25b4 <_Z14get_cd_seek_msii+0xc8>
    259c:	00271693          	sll	a3,a4,0x2
    25a0:	9736                	add	a4,a4,a3
    25a2:	070a                	sll	a4,a4,0x2
    25a4:	972e                	add	a4,a4,a1
    25a6:	0819                	add	a6,a6,6
    25a8:	46b1                	li	a3,12
    25aa:	4740                	lw	s0,12(a4)
    25ac:	0906e163          	bltu	a3,a6,262e <_Z14get_cd_seek_msii+0x142>
    25b0:	09640413          	add	s0,s0,150
    25b4:	85aa                	mv	a1,a0
    25b6:	6515                	lui	a0,0x5
    25b8:	34850513          	add	a0,a0,840 # 5348 <stream_vscanf+0xd0c>
    25bc:	7ec010ef          	jal	3da8 <riscprintff_>
    25c0:	6515                	lui	a0,0x5
    25c2:	85a2                	mv	a1,s0
    25c4:	36850513          	add	a0,a0,872 # 5368 <stream_vscanf+0xd2c>
    25c8:	7e0010ef          	jal	3da8 <riscprintff_>
    25cc:	40b2                	lw	ra,12(sp)
    25ce:	8522                	mv	a0,s0
    25d0:	4422                	lw	s0,8(sp)
    25d2:	0141                	add	sp,sp,16
    25d4:	8082                	ret
    25d6:	41f85693          	sra	a3,a6,0x1f
    25da:	0106c7b3          	xor	a5,a3,a6
    25de:	8f95                	sub	a5,a5,a3
    25e0:	03d7c7b3          	div	a5,a5,t4
    25e4:	b76d                	j	258e <_Z14get_cd_seek_msii+0xa2>
    25e6:	00279893          	sll	a7,a5,0x2
    25ea:	6599                	lui	a1,0x6
    25ec:	00f88333          	add	t1,a7,a5
    25f0:	9ec58593          	add	a1,a1,-1556 # 59ec <sector_list>
    25f4:	030a                	sll	t1,t1,0x2
    25f6:	932e                	add	t1,t1,a1
    25f8:	00032e83          	lw	t4,0(t1)
    25fc:	40a60833          	sub	a6,a2,a0
    2600:	fcf70be3          	beq	a4,a5,25d6 <_Z14get_cd_seek_msii+0xea>
    2604:	00271693          	sll	a3,a4,0x2
    2608:	00e68e33          	add	t3,a3,a4
    260c:	0e0a                	sll	t3,t3,0x2
    260e:	9e2e                	add	t3,t3,a1
    2610:	000e2f03          	lw	t5,0(t3)
    2614:	f4f750e3          	bge	a4,a5,2554 <_Z14get_cd_seek_msii+0x68>
    2618:	00432883          	lw	a7,4(t1)
    261c:	008e2e03          	lw	t3,8(t3)
    2620:	40e786b3          	sub	a3,a5,a4
    2624:	411608b3          	sub	a7,a2,a7
    2628:	40ae0333          	sub	t1,t3,a0
    262c:	b7a1                	j	2574 <_Z14get_cd_seek_msii+0x88>
    262e:	05000713          	li	a4,80
    2632:	00f75963          	bge	a4,a5,2644 <_Z14get_cd_seek_msii+0x158>
    2636:	0a000693          	li	a3,160
    263a:	00f6c863          	blt	a3,a5,264a <_Z14get_cd_seek_msii+0x15e>
    263e:	16e40413          	add	s0,s0,366
    2642:	bf8d                	j	25b4 <_Z14get_cd_seek_msii+0xc8>
    2644:	11b40413          	add	s0,s0,283
    2648:	b7b5                	j	25b4 <_Z14get_cd_seek_msii+0xc8>
    264a:	28400693          	li	a3,644
    264e:	00f6cd63          	blt	a3,a5,2668 <_Z14get_cd_seek_msii+0x17c>
    2652:	f5f78793          	add	a5,a5,-161
    2656:	00479693          	sll	a3,a5,0x4
    265a:	97b6                	add	a5,a5,a3
    265c:	02e7c7b3          	div	a5,a5,a4
    2660:	16e40413          	add	s0,s0,366
    2664:	943e                	add	s0,s0,a5
    2666:	b7b9                	j	25b4 <_Z14get_cd_seek_msii+0xc8>
    2668:	d7c78793          	add	a5,a5,-644
    266c:	00479713          	sll	a4,a5,0x4
    2670:	97ba                	add	a5,a5,a4
    2672:	0c300713          	li	a4,195
    2676:	02e7c7b3          	div	a5,a5,a4
    267a:	25840413          	add	s0,s0,600
    267e:	943e                	add	s0,s0,a5
    2680:	bf15                	j	25b4 <_Z14get_cd_seek_msii+0xc8>

00002682 <_Z12HPS_EnableIOv>:
    2682:	fd000713          	li	a4,-48
    2686:	431c                	lw	a5,0(a4)
    2688:	0001                	nop
    268a:	0001                	nop
    268c:	0001                	nop
    268e:	801006b7          	lui	a3,0x80100
    2692:	8fd5                	or	a5,a5,a3
    2694:	c31c                	sw	a5,0(a4)
    2696:	8082                	ret

00002698 <_Z13HPS_DisableIOv>:
    2698:	fd000693          	li	a3,-48
    269c:	429c                	lw	a5,0(a3)
    269e:	0001                	nop
    26a0:	0001                	nop
    26a2:	0001                	nop
    26a4:	fff00737          	lui	a4,0xfff00
    26a8:	177d                	add	a4,a4,-1 # ffefffff <_end+0xffef563f>
    26aa:	8ff9                	and	a5,a5,a4
    26ac:	80000737          	lui	a4,0x80000
    26b0:	8fd9                	or	a5,a5,a4
    26b2:	c29c                	sw	a5,0(a3)
    26b4:	8082                	ret

000026b6 <_Z12HPS_fpga_spit>:
    26b6:	fd002683          	lw	a3,-48(zero) # ffffffd0 <_end+0xffff5610>
    26ba:	0001                	nop
    26bc:	0001                	nop
    26be:	fffd07b7          	lui	a5,0xfffd0
    26c2:	8efd                	and	a3,a3,a5
    26c4:	8ec9                	or	a3,a3,a0
    26c6:	0001                	nop
    26c8:	000207b7          	lui	a5,0x20
    26cc:	fcd02823          	sw	a3,-48(zero) # ffffffd0 <_end+0xffff5610>
    26d0:	8fd5                	or	a5,a5,a3
    26d2:	fcf02823          	sw	a5,-48(zero) # ffffffd0 <_end+0xffff5610>
    26d6:	fd402783          	lw	a5,-44(zero) # ffffffd4 <_end+0xffff5614>
    26da:	00e79713          	sll	a4,a5,0xe
    26de:	fe075ce3          	bgez	a4,26d6 <_Z12HPS_fpga_spit+0x20>
    26e2:	fcd02823          	sw	a3,-48(zero) # ffffffd0 <_end+0xffff5610>
    26e6:	fd402503          	lw	a0,-44(zero) # ffffffd4 <_end+0xffff5614>
    26ea:	00e51793          	sll	a5,a0,0xe
    26ee:	fe07cce3          	bltz	a5,26e6 <_Z12HPS_fpga_spit+0x30>
    26f2:	0542                	sll	a0,a0,0x10
    26f4:	8141                	srl	a0,a0,0x10
    26f6:	8082                	ret

000026f8 <_Z13HPS_spi_writePKhmi>:
    26f8:	1141                	add	sp,sp,-16
    26fa:	c422                	sw	s0,8(sp)
    26fc:	c04a                	sw	s2,0(sp)
    26fe:	c606                	sw	ra,12(sp)
    2700:	c226                	sw	s1,4(sp)
    2702:	842a                	mv	s0,a0
    2704:	892e                	mv	s2,a1
    2706:	e205                	bnez	a2,2726 <_Z13HPS_spi_writePKhmi+0x2e>
    2708:	00b504b3          	add	s1,a0,a1
    270c:	c599                	beqz	a1,271a <_Z13HPS_spi_writePKhmi+0x22>
    270e:	00044503          	lbu	a0,0(s0)
    2712:	0405                	add	s0,s0,1
    2714:	374d                	jal	26b6 <_Z12HPS_fpga_spit>
    2716:	fe849ce3          	bne	s1,s0,270e <_Z13HPS_spi_writePKhmi+0x16>
    271a:	40b2                	lw	ra,12(sp)
    271c:	4422                	lw	s0,8(sp)
    271e:	4492                	lw	s1,4(sp)
    2720:	4902                	lw	s2,0(sp)
    2722:	0141                	add	sp,sp,16
    2724:	8082                	ret
    2726:	0015d493          	srl	s1,a1,0x1
    272a:	c48d                	beqz	s1,2754 <_Z13HPS_spi_writePKhmi+0x5c>
    272c:	0486                	sll	s1,s1,0x1
    272e:	94aa                	add	s1,s1,a0
    2730:	00045503          	lhu	a0,0(s0)
    2734:	0409                	add	s0,s0,2
    2736:	3741                	jal	26b6 <_Z12HPS_fpga_spit>
    2738:	fe941ce3          	bne	s0,s1,2730 <_Z13HPS_spi_writePKhmi+0x38>
    273c:	00197913          	and	s2,s2,1
    2740:	fc090de3          	beqz	s2,271a <_Z13HPS_spi_writePKhmi+0x22>
    2744:	4422                	lw	s0,8(sp)
    2746:	0004c503          	lbu	a0,0(s1)
    274a:	40b2                	lw	ra,12(sp)
    274c:	4492                	lw	s1,4(sp)
    274e:	4902                	lw	s2,0(sp)
    2750:	0141                	add	sp,sp,16
    2752:	b795                	j	26b6 <_Z12HPS_fpga_spit>
    2754:	84aa                	mv	s1,a0
    2756:	b7dd                	j	273c <_Z13HPS_spi_writePKhmi+0x44>

00002758 <_Z20HPS_spi_uio_cmd_contt>:
    2758:	fd000713          	li	a4,-48
    275c:	431c                	lw	a5,0(a4)
    275e:	0001                	nop
    2760:	0001                	nop
    2762:	0001                	nop
    2764:	801006b7          	lui	a3,0x80100
    2768:	8fd5                	or	a5,a5,a3
    276a:	c31c                	sw	a5,0(a4)
    276c:	0001                	nop
    276e:	0001                	nop
    2770:	b799                	j	26b6 <_Z12HPS_fpga_spit>

00002772 <_Z16HPS_spi_uio_cmd8hh>:
    2772:	1141                	add	sp,sp,-16
    2774:	c422                	sw	s0,8(sp)
    2776:	fd000413          	li	s0,-48
    277a:	c226                	sw	s1,4(sp)
    277c:	c04a                	sw	s2,0(sp)
    277e:	c606                	sw	ra,12(sp)
    2780:	401c                	lw	a5,0(s0)
    2782:	892a                	mv	s2,a0
    2784:	84ae                	mv	s1,a1
    2786:	0001                	nop
    2788:	0001                	nop
    278a:	0001                	nop
    278c:	80100737          	lui	a4,0x80100
    2790:	8fd9                	or	a5,a5,a4
    2792:	c01c                	sw	a5,0(s0)
    2794:	4505                	li	a0,1
    2796:	648010ef          	jal	3dde <_Z10riscusleepi>
    279a:	854a                	mv	a0,s2
    279c:	3f29                	jal	26b6 <_Z12HPS_fpga_spit>
    279e:	4505                	li	a0,1
    27a0:	63e010ef          	jal	3dde <_Z10riscusleepi>
    27a4:	8526                	mv	a0,s1
    27a6:	3f01                	jal	26b6 <_Z12HPS_fpga_spit>
    27a8:	84aa                	mv	s1,a0
    27aa:	4505                	li	a0,1
    27ac:	632010ef          	jal	3dde <_Z10riscusleepi>
    27b0:	401c                	lw	a5,0(s0)
    27b2:	0001                	nop
    27b4:	0001                	nop
    27b6:	0001                	nop
    27b8:	fff00737          	lui	a4,0xfff00
    27bc:	177d                	add	a4,a4,-1 # ffefffff <_end+0xffef563f>
    27be:	8ff9                	and	a5,a5,a4
    27c0:	80000737          	lui	a4,0x80000
    27c4:	8fd9                	or	a5,a5,a4
    27c6:	40b2                	lw	ra,12(sp)
    27c8:	c01c                	sw	a5,0(s0)
    27ca:	4422                	lw	s0,8(sp)
    27cc:	4902                	lw	s2,0(sp)
    27ce:	0ff4f513          	zext.b	a0,s1
    27d2:	4492                	lw	s1,4(sp)
    27d4:	0141                	add	sp,sp,16
    27d6:	8082                	ret

000027d8 <_Z19HPS_io_file_tx_dataPKhmi>:
    27d8:	1101                	add	sp,sp,-32
    27da:	cc22                	sw	s0,24(sp)
    27dc:	fd000413          	li	s0,-48
    27e0:	ca26                	sw	s1,20(sp)
    27e2:	c84a                	sw	s2,16(sp)
    27e4:	c64e                	sw	s3,12(sp)
    27e6:	ce06                	sw	ra,28(sp)
    27e8:	401c                	lw	a5,0(s0)
    27ea:	84aa                	mv	s1,a0
    27ec:	892e                	mv	s2,a1
    27ee:	89b2                	mv	s3,a2
    27f0:	0001                	nop
    27f2:	0001                	nop
    27f4:	0001                	nop
    27f6:	80100737          	lui	a4,0x80100
    27fa:	8fd9                	or	a5,a5,a4
    27fc:	c01c                	sw	a5,0(s0)
    27fe:	4505                	li	a0,1
    2800:	5de010ef          	jal	3dde <_Z10riscusleepi>
    2804:	0ff9f513          	zext.b	a0,s3
    2808:	357d                	jal	26b6 <_Z12HPS_fpga_spit>
    280a:	4605                	li	a2,1
    280c:	85ca                	mv	a1,s2
    280e:	8526                	mv	a0,s1
    2810:	35e5                	jal	26f8 <_Z13HPS_spi_writePKhmi>
    2812:	401c                	lw	a5,0(s0)
    2814:	0001                	nop
    2816:	0001                	nop
    2818:	0001                	nop
    281a:	fff00737          	lui	a4,0xfff00
    281e:	177d                	add	a4,a4,-1 # ffefffff <_end+0xffef563f>
    2820:	8ff9                	and	a5,a5,a4
    2822:	80000737          	lui	a4,0x80000
    2826:	8fd9                	or	a5,a5,a4
    2828:	40f2                	lw	ra,28(sp)
    282a:	c01c                	sw	a5,0(s0)
    282c:	4462                	lw	s0,24(sp)
    282e:	44d2                	lw	s1,20(sp)
    2830:	4942                	lw	s2,16(sp)
    2832:	49b2                	lw	s3,12(sp)
    2834:	6105                	add	sp,sp,32
    2836:	8082                	ret

00002838 <_Z14HPS_DisableOsdv>:
    2838:	fd000693          	li	a3,-48
    283c:	429c                	lw	a5,0(a3)
    283e:	0001                	nop
    2840:	0001                	nop
    2842:	0001                	nop
    2844:	ffe40737          	lui	a4,0xffe40
    2848:	177d                	add	a4,a4,-1 # ffe3ffff <_end+0xffe3563f>
    284a:	8ff9                	and	a5,a5,a4
    284c:	80000737          	lui	a4,0x80000
    2850:	8fd9                	or	a5,a5,a4
    2852:	c29c                	sw	a5,0(a3)
    2854:	8082                	ret

00002856 <_Z20HPS_spi_osd_cmd_conth>:
    2856:	fd000713          	li	a4,-48
    285a:	431c                	lw	a5,0(a4)
    285c:	0001                	nop
    285e:	0001                	nop
    2860:	0001                	nop
    2862:	801c06b7          	lui	a3,0x801c0
    2866:	8fd5                	or	a5,a5,a3
    2868:	c31c                	sw	a5,0(a4)
    286a:	0001                	nop
    286c:	b5a9                	j	26b6 <_Z12HPS_fpga_spit>

0000286e <_Z15HPS_spi_osd_cmdh>:
    286e:	1141                	add	sp,sp,-16
    2870:	c422                	sw	s0,8(sp)
    2872:	fd000413          	li	s0,-48
    2876:	c606                	sw	ra,12(sp)
    2878:	401c                	lw	a5,0(s0)
    287a:	0001                	nop
    287c:	0001                	nop
    287e:	0001                	nop
    2880:	801c0737          	lui	a4,0x801c0
    2884:	8fd9                	or	a5,a5,a4
    2886:	c01c                	sw	a5,0(s0)
    2888:	0001                	nop
    288a:	3535                	jal	26b6 <_Z12HPS_fpga_spit>
    288c:	0001                	nop
    288e:	0001                	nop
    2890:	0001                	nop
    2892:	401c                	lw	a5,0(s0)
    2894:	0001                	nop
    2896:	0001                	nop
    2898:	0001                	nop
    289a:	ffe40737          	lui	a4,0xffe40
    289e:	177d                	add	a4,a4,-1 # ffe3ffff <_end+0xffe3563f>
    28a0:	8ff9                	and	a5,a5,a4
    28a2:	80000737          	lui	a4,0x80000
    28a6:	8fd9                	or	a5,a5,a4
    28a8:	40b2                	lw	ra,12(sp)
    28aa:	c01c                	sw	a5,0(s0)
    28ac:	4422                	lw	s0,8(sp)
    28ae:	0141                	add	sp,sp,16
    28b0:	8082                	ret

000028b2 <_Z17OSD_HPS_spi_writePKhmi>:
    28b2:	1141                	add	sp,sp,-16
    28b4:	c422                	sw	s0,8(sp)
    28b6:	c04a                	sw	s2,0(sp)
    28b8:	c606                	sw	ra,12(sp)
    28ba:	c226                	sw	s1,4(sp)
    28bc:	842a                	mv	s0,a0
    28be:	892e                	mv	s2,a1
    28c0:	e205                	bnez	a2,28e0 <_Z17OSD_HPS_spi_writePKhmi+0x2e>
    28c2:	00b504b3          	add	s1,a0,a1
    28c6:	c599                	beqz	a1,28d4 <_Z17OSD_HPS_spi_writePKhmi+0x22>
    28c8:	00044503          	lbu	a0,0(s0)
    28cc:	0405                	add	s0,s0,1
    28ce:	33e5                	jal	26b6 <_Z12HPS_fpga_spit>
    28d0:	fe941ce3          	bne	s0,s1,28c8 <_Z17OSD_HPS_spi_writePKhmi+0x16>
    28d4:	40b2                	lw	ra,12(sp)
    28d6:	4422                	lw	s0,8(sp)
    28d8:	4492                	lw	s1,4(sp)
    28da:	4902                	lw	s2,0(sp)
    28dc:	0141                	add	sp,sp,16
    28de:	8082                	ret
    28e0:	0015d493          	srl	s1,a1,0x1
    28e4:	c48d                	beqz	s1,290e <_Z17OSD_HPS_spi_writePKhmi+0x5c>
    28e6:	0486                	sll	s1,s1,0x1
    28e8:	94aa                	add	s1,s1,a0
    28ea:	00045503          	lhu	a0,0(s0)
    28ee:	0409                	add	s0,s0,2
    28f0:	33d9                	jal	26b6 <_Z12HPS_fpga_spit>
    28f2:	fe849ce3          	bne	s1,s0,28ea <_Z17OSD_HPS_spi_writePKhmi+0x38>
    28f6:	00197913          	and	s2,s2,1
    28fa:	fc090de3          	beqz	s2,28d4 <_Z17OSD_HPS_spi_writePKhmi+0x22>
    28fe:	4422                	lw	s0,8(sp)
    2900:	0004c503          	lbu	a0,0(s1)
    2904:	40b2                	lw	ra,12(sp)
    2906:	4492                	lw	s1,4(sp)
    2908:	4902                	lw	s2,0(sp)
    290a:	0141                	add	sp,sp,16
    290c:	b36d                	j	26b6 <_Z12HPS_fpga_spit>
    290e:	84aa                	mv	s1,a0
    2910:	b7dd                	j	28f6 <_Z17OSD_HPS_spi_writePKhmi+0x44>

00002912 <_Z14OsdWriteOffsethPKchhcccii>:
    2912:	7139                	add	sp,sp,-64
    2914:	d25a                	sw	s6,36(sp)
    2916:	ce62                	sw	s8,28(sp)
    2918:	c86e                	sw	s11,16(sp)
    291a:	67a9                	lui	a5,0xa
    291c:	da4a                	sw	s2,52(sp)
    291e:	d84e                	sw	s3,48(sp)
    2920:	d652                	sw	s4,44(sp)
    2922:	d456                	sw	s5,40(sp)
    2924:	d05e                	sw	s7,32(sp)
    2926:	4d86                	lw	s11,64(sp)
    2928:	5b07ab03          	lw	s6,1456(a5) # a5b0 <_ZL5arrow>
    292c:	0ff00c13          	li	s8,255
    2930:	c689                	beqz	a3,293a <_Z14OsdWriteOffsethPKchhcccii+0x28>
    2932:	05500c13          	li	s8,85
    2936:	0ff00693          	li	a3,255
    293a:	6aa9                	lui	s5,0xa
    293c:	5a8aa303          	lw	t1,1448(s5) # a5a8 <_ZL6osdset>
    2940:	6799                	lui	a5,0x6
    2942:	f207a383          	lw	t2,-224(a5) # 5f20 <_ZL8osd_size>
    2946:	01f57f93          	and	t6,a0,31
    294a:	4785                	li	a5,1
    294c:	01f797b3          	sll	a5,a5,t6
    2950:	0067e7b3          	or	a5,a5,t1
    2954:	0fa2                	sll	t6,t6,0x8
    2956:	6ba9                	lui	s7,0xa
    2958:	6915                	lui	s2,0x5
    295a:	5afaa423          	sw	a5,1448(s5)
    295e:	5bfba623          	sw	t6,1452(s7) # a5ac <_ZL9osdbufpos>
    2962:	13fd                	add	t2,t2,-1
    2964:	4e81                	li	t4,0
    2966:	4a01                	li	s4,0
    2968:	4781                	li	a5,0
    296a:	4301                	li	t1,0
    296c:	49b5                	li	s3,13
    296e:	75090913          	add	s2,s2,1872 # 5750 <stream_vscanf+0x1114>
    2972:	ce09                	beqz	a2,298c <_Z14OsdWriteOffsethPKchhcccii+0x7a>
    2974:	00335e13          	srl	t3,t1,0x3
    2978:	01be4463          	blt	t3,s11,2980 <_Z14OsdWriteOffsethPKchhcccii+0x6e>
    297c:	0ff00793          	li	a5,255
    2980:	011e2e33          	slt	t3,t3,a7
    2984:	41c00e33          	neg	t3,t3
    2988:	01c7f7b3          	and	a5,a5,t3
    298c:	14750b63          	beq	a0,t2,2ae2 <_Z14OsdWriteOffsethPKchhcccii+0x1d0>
    2990:	0005cf03          	lbu	t5,0(a1)
    2994:	0585                	add	a1,a1,1
    2996:	01e9e863          	bltu	s3,t5,29a6 <_Z14OsdWriteOffsethPKchhcccii+0x94>
    299a:	002f1e13          	sll	t3,t5,0x2
    299e:	9e4a                	add	t3,t3,s2
    29a0:	000e2e03          	lw	t3,0(t3)
    29a4:	8e02                	jr	t3
    29a6:	0f700e13          	li	t3,247
    29aa:	fc6e64e3          	bltu	t3,t1,2972 <_Z14OsdWriteOffsethPKchhcccii+0x60>
    29ae:	6e19                	lui	t3,0x6
    29b0:	b04e0e13          	add	t3,t3,-1276 # 5b04 <charfont>
    29b4:	0f0e                	sll	t5,t5,0x3
    29b6:	9f72                	add	t5,t5,t3
    29b8:	de22                	sw	s0,60(sp)
    29ba:	6e29                	lui	t3,0xa
    29bc:	6429                	lui	s0,0xa
    29be:	42ce0e13          	add	t3,t3,1068 # a42c <framebuffer>
    29c2:	dc26                	sw	s1,56(sp)
    29c4:	ca6a                	sw	s10,20(sp)
    29c6:	fea30493          	add	s1,t1,-22
    29ca:	0147cd33          	xor	s10,a5,s4
    29ce:	32c40413          	add	s0,s0,812 # a32c <_ZL6osdbuf>
    29d2:	cc66                	sw	s9,24(sp)
    29d4:	94f2                	add	s1,s1,t3
    29d6:	0ffd7d13          	zext.b	s10,s10
    29da:	947e                	add	s0,s0,t6
    29dc:	008f0c93          	add	s9,t5,8
    29e0:	8e62                	mv	t3,s8
    29e2:	c61e                	sw	t2,12(sp)
    29e4:	4281                	li	t0,0
    29e6:	00080463          	beqz	a6,29ee <_Z14OsdWriteOffsethPKchhcccii+0xdc>
    29ea:	0004c283          	lbu	t0,0(s1)
    29ee:	000f4e83          	lbu	t4,0(t5)
    29f2:	01c6c3b3          	xor	t2,a3,t3
    29f6:	0f05                	add	t5,t5,1
    29f8:	00ee9eb3          	sll	t4,t4,a4
    29fc:	01de7eb3          	and	t4,t3,t4
    2a00:	01dd4eb3          	xor	t4,s10,t4
    2a04:	01d2e2b3          	or	t0,t0,t4
    2a08:	00540023          	sb	t0,0(s0)
    2a0c:	0ff3fe13          	zext.b	t3,t2
    2a10:	0405                	add	s0,s0,1
    2a12:	0485                	add	s1,s1,1
    2a14:	fd9f18e3          	bne	t5,s9,29e4 <_Z14OsdWriteOffsethPKchhcccii+0xd2>
    2a18:	0321                	add	t1,t1,8
    2a1a:	0342                	sll	t1,t1,0x10
    2a1c:	43b2                	lw	t2,12(sp)
    2a1e:	5472                	lw	s0,60(sp)
    2a20:	54e2                	lw	s1,56(sp)
    2a22:	4ce2                	lw	s9,24(sp)
    2a24:	4d52                	lw	s10,20(sp)
    2a26:	0fa1                	add	t6,t6,8
    2a28:	01035313          	srl	t1,t1,0x10
    2a2c:	4e85                	li	t4,1
    2a2e:	b791                	j	2972 <_Z14OsdWriteOffsethPKchhcccii+0x60>
    2a30:	5a8aae83          	lw	t4,1448(s5)
    2a34:	0505                	add	a0,a0,1
    2a36:	01f57f93          	and	t6,a0,31
    2a3a:	4e05                	li	t3,1
    2a3c:	01fe1e33          	sll	t3,t3,t6
    2a40:	01de6e33          	or	t3,t3,t4
    2a44:	0ff57513          	zext.b	a0,a0
    2a48:	5bcaa423          	sw	t3,1448(s5)
    2a4c:	0fa2                	sll	t6,t6,0x8
    2a4e:	4e85                	li	t4,1
    2a50:	b70d                	j	2972 <_Z14OsdWriteOffsethPKchhcccii+0x60>
    2a52:	000e8463          	beqz	t4,2a5a <_Z14OsdWriteOffsethPKchhcccii+0x148>
    2a56:	5bfba623          	sw	t6,1452(s7)
    2a5a:	0ff00693          	li	a3,255
    2a5e:	0466ea63          	bltu	a3,t1,2ab2 <_Z14OsdWriteOffsethPKchhcccii+0x1a0>
    2a62:	5acba883          	lw	a7,1452(s7)
    2a66:	66a9                	lui	a3,0xa
    2a68:	0ff00e13          	li	t3,255
    2a6c:	32c68693          	add	a3,a3,812 # a32c <_ZL6osdbuf>
    2a70:	406e0e33          	sub	t3,t3,t1
    2a74:	00168593          	add	a1,a3,1
    2a78:	0e42                	sll	t3,t3,0x10
    2a7a:	6629                	lui	a2,0xa
    2a7c:	1329                	add	t1,t1,-22
    2a7e:	010e5e13          	srl	t3,t3,0x10
    2a82:	95c6                	add	a1,a1,a7
    2a84:	42c60613          	add	a2,a2,1068 # a42c <framebuffer>
    2a88:	96c6                	add	a3,a3,a7
    2a8a:	9332                	add	t1,t1,a2
    2a8c:	95f2                	add	a1,a1,t3
    2a8e:	863e                	mv	a2,a5
    2a90:	00080763          	beqz	a6,2a9e <_Z14OsdWriteOffsethPKchhcccii+0x18c>
    2a94:	00034603          	lbu	a2,0(t1)
    2a98:	8e5d                	or	a2,a2,a5
    2a9a:	0ff67613          	zext.b	a2,a2
    2a9e:	00c68023          	sb	a2,0(a3)
    2aa2:	0685                	add	a3,a3,1
    2aa4:	0305                	add	t1,t1,1
    2aa6:	fed594e3          	bne	a1,a3,2a8e <_Z14OsdWriteOffsethPKchhcccii+0x17c>
    2aaa:	0885                	add	a7,a7,1
    2aac:	98f2                	add	a7,a7,t3
    2aae:	5b1ba623          	sw	a7,1452(s7)
    2ab2:	0e750863          	beq	a0,t2,2ba2 <_Z14OsdWriteOffsethPKchhcccii+0x290>
    2ab6:	5952                	lw	s2,52(sp)
    2ab8:	59c2                	lw	s3,48(sp)
    2aba:	5a32                	lw	s4,44(sp)
    2abc:	5aa2                	lw	s5,40(sp)
    2abe:	5b12                	lw	s6,36(sp)
    2ac0:	5b82                	lw	s7,32(sp)
    2ac2:	4c72                	lw	s8,28(sp)
    2ac4:	4dc2                	lw	s11,16(sp)
    2ac6:	6121                	add	sp,sp,64
    2ac8:	8082                	ret
    2aca:	fffa4a13          	not	s4,s4
    2ace:	0ffa7a13          	zext.b	s4,s4
    2ad2:	b545                	j	2972 <_Z14OsdWriteOffsethPKchhcccii+0x60>
    2ad4:	fff6c693          	not	a3,a3
    2ad8:	0aac4c13          	xor	s8,s8,170
    2adc:	0ff6f693          	zext.b	a3,a3
    2ae0:	bd49                	j	2972 <_Z14OsdWriteOffsethPKchhcccii+0x60>
    2ae2:	001b7e13          	and	t3,s6,1
    2ae6:	ea0e05e3          	beqz	t3,2990 <_Z14OsdWriteOffsethPKchhcccii+0x7e>
    2aea:	6f29                	lui	t5,0xa
    2aec:	32cf0f13          	add	t5,t5,812 # a32c <_ZL6osdbuf>
    2af0:	de22                	sw	s0,60(sp)
    2af2:	01ff0e33          	add	t3,t5,t6
    2af6:	003f8293          	add	t0,t6,3
    2afa:	6e99                	lui	t4,0x6
    2afc:	6419                	lui	s0,0x6
    2afe:	00fe0023          	sb	a5,0(t3)
    2b02:	00fe00a3          	sb	a5,1(t3)
    2b06:	00fe0123          	sb	a5,2(t3)
    2b0a:	92fa                	add	t0,t0,t5
    2b0c:	b84e8e93          	add	t4,t4,-1148 # 5b84 <charfont+0x80>
    2b10:	b8c40413          	add	s0,s0,-1140 # 5b8c <charfont+0x88>
    2b14:	000ece03          	lbu	t3,0(t4)
    2b18:	0285                	add	t0,t0,1
    2b1a:	0e85                	add	t4,t4,1
    2b1c:	00ee1e33          	sll	t3,t3,a4
    2b20:	01c7ce33          	xor	t3,a5,t3
    2b24:	ffc28fa3          	sb	t3,-1(t0)
    2b28:	fe8e96e3          	bne	t4,s0,2b14 <_Z14OsdWriteOffsethPKchhcccii+0x202>
    2b2c:	00bf8293          	add	t0,t6,11
    2b30:	6e99                	lui	t4,0x6
    2b32:	6419                	lui	s0,0x6
    2b34:	92fa                	add	t0,t0,t5
    2b36:	ba4e8e93          	add	t4,t4,-1116 # 5ba4 <charfont+0xa0>
    2b3a:	bac40413          	add	s0,s0,-1108 # 5bac <charfont+0xa8>
    2b3e:	000ece03          	lbu	t3,0(t4)
    2b42:	0285                	add	t0,t0,1
    2b44:	0e85                	add	t4,t4,1
    2b46:	00ee1e33          	sll	t3,t3,a4
    2b4a:	01c7ce33          	xor	t3,a5,t3
    2b4e:	ffc28fa3          	sb	t3,-1(t0)
    2b52:	fe8e96e3          	bne	t4,s0,2b3e <_Z14OsdWriteOffsethPKchhcccii+0x22c>
    2b56:	01ff0e33          	add	t3,t5,t6
    2b5a:	017f8e93          	add	t4,t6,23
    2b5e:	00fe09a3          	sb	a5,19(t3)
    2b62:	00fe0a23          	sb	a5,20(t3)
    2b66:	00fe0aa3          	sb	a5,21(t3)
    2b6a:	00fe0b23          	sb	a5,22(t3)
    2b6e:	9f76                	add	t5,t5,t4
    2b70:	00ff0023          	sb	a5,0(t5)
    2b74:	0005ce03          	lbu	t3,0(a1)
    2b78:	0361                	add	t1,t1,24
    2b7a:	0342                	sll	t1,t1,0x10
    2b7c:	0fe1                	add	t6,t6,24
    2b7e:	01035313          	srl	t1,t1,0x10
    2b82:	ffeb7b13          	and	s6,s6,-2
    2b86:	0a0e0263          	beqz	t3,2c2a <_Z14OsdWriteOffsethPKchhcccii+0x318>
    2b8a:	0015ce03          	lbu	t3,1(a1)
    2b8e:	080e0e63          	beqz	t3,2c2a <_Z14OsdWriteOffsethPKchhcccii+0x318>
    2b92:	0025ce03          	lbu	t3,2(a1)
    2b96:	058d                	add	a1,a1,3
    2b98:	080e0963          	beqz	t3,2c2a <_Z14OsdWriteOffsethPKchhcccii+0x318>
    2b9c:	5472                	lw	s0,60(sp)
    2b9e:	4e85                	li	t4,1
    2ba0:	bbc9                	j	2972 <_Z14OsdWriteOffsethPKchhcccii+0x60>
    2ba2:	002b7b13          	and	s6,s6,2
    2ba6:	f00b08e3          	beqz	s6,2ab6 <_Z14OsdWriteOffsethPKchhcccii+0x1a4>
    2baa:	5acba883          	lw	a7,1452(s7)
    2bae:	6829                	lui	a6,0xa
    2bb0:	32c80813          	add	a6,a6,812 # a32c <_ZL6osdbuf>
    2bb4:	011806b3          	add	a3,a6,a7
    2bb8:	00388593          	add	a1,a7,3
    2bbc:	6619                	lui	a2,0x6
    2bbe:	6519                	lui	a0,0x6
    2bc0:	00f68023          	sb	a5,0(a3)
    2bc4:	00f680a3          	sb	a5,1(a3)
    2bc8:	00f68123          	sb	a5,2(a3)
    2bcc:	95c2                	add	a1,a1,a6
    2bce:	bac60613          	add	a2,a2,-1108 # 5bac <charfont+0xa8>
    2bd2:	bb450513          	add	a0,a0,-1100 # 5bb4 <charfont+0xb0>
    2bd6:	00064683          	lbu	a3,0(a2)
    2bda:	0585                	add	a1,a1,1
    2bdc:	0605                	add	a2,a2,1
    2bde:	00e696b3          	sll	a3,a3,a4
    2be2:	8ebd                	xor	a3,a3,a5
    2be4:	fed58fa3          	sb	a3,-1(a1)
    2be8:	fea617e3          	bne	a2,a0,2bd6 <_Z14OsdWriteOffsethPKchhcccii+0x2c4>
    2bec:	00b88593          	add	a1,a7,11
    2bf0:	6619                	lui	a2,0x6
    2bf2:	6519                	lui	a0,0x6
    2bf4:	95c2                	add	a1,a1,a6
    2bf6:	b8c60613          	add	a2,a2,-1140 # 5b8c <charfont+0x88>
    2bfa:	b9450513          	add	a0,a0,-1132 # 5b94 <charfont+0x90>
    2bfe:	00064683          	lbu	a3,0(a2)
    2c02:	0585                	add	a1,a1,1
    2c04:	0605                	add	a2,a2,1
    2c06:	00e696b3          	sll	a3,a3,a4
    2c0a:	8ebd                	xor	a3,a3,a5
    2c0c:	fed58fa3          	sb	a3,-1(a1)
    2c10:	fea617e3          	bne	a2,a0,2bfe <_Z14OsdWriteOffsethPKchhcccii+0x2ec>
    2c14:	9846                	add	a6,a6,a7
    2c16:	08d9                	add	a7,a7,22
    2c18:	00f809a3          	sb	a5,19(a6)
    2c1c:	00f80a23          	sb	a5,20(a6)
    2c20:	5b1ba623          	sw	a7,1452(s7)
    2c24:	00f80aa3          	sb	a5,21(a6)
    2c28:	b579                	j	2ab6 <_Z14OsdWriteOffsethPKchhcccii+0x1a4>
    2c2a:	5472                	lw	s0,60(sp)
    2c2c:	5bfba623          	sw	t6,1452(s7)
    2c30:	b52d                	j	2a5a <_Z14OsdWriteOffsethPKchhcccii+0x148>

00002c32 <_Z8OsdWritePKchhcii>:
    2c32:	1101                	add	sp,sp,-32
    2c34:	c03e                	sw	a5,0(sp)
    2c36:	88ba                	mv	a7,a4
    2c38:	8836                	mv	a6,a3
    2c3a:	4781                	li	a5,0
    2c3c:	86b2                	mv	a3,a2
    2c3e:	4701                	li	a4,0
    2c40:	862e                	mv	a2,a1
    2c42:	85aa                	mv	a1,a0
    2c44:	4501                	li	a0,0
    2c46:	ce06                	sw	ra,28(sp)
    2c48:	ccbff0ef          	jal	2912 <_Z14OsdWriteOffsethPKchhcccii>
    2c4c:	40f2                	lw	ra,28(sp)
    2c4e:	6105                	add	sp,sp,32
    2c50:	8082                	ret

00002c52 <_Z8OsdClearv>:
    2c52:	67a9                	lui	a5,0xa
    2c54:	32c78793          	add	a5,a5,812 # a32c <_ZL6osdbuf>
    2c58:	10078713          	add	a4,a5,256
    2c5c:	00078023          	sb	zero,0(a5)
    2c60:	0001                	nop
    2c62:	0785                	add	a5,a5,1
    2c64:	fee79ce3          	bne	a5,a4,2c5c <_Z8OsdClearv+0xa>
    2c68:	8082                	ret

00002c6a <_Z10InfoEnableiiiiii>:
    2c6a:	1101                	add	sp,sp,-32
    2c6c:	c256                	sw	s5,4(sp)
    2c6e:	8aaa                	mv	s5,a0
    2c70:	04500513          	li	a0,69
    2c74:	ce06                	sw	ra,28(sp)
    2c76:	cc22                	sw	s0,24(sp)
    2c78:	ca26                	sw	s1,20(sp)
    2c7a:	c84a                	sw	s2,16(sp)
    2c7c:	c64e                	sw	s3,12(sp)
    2c7e:	c452                	sw	s4,8(sp)
    2c80:	89b2                	mv	s3,a2
    2c82:	8a2e                	mv	s4,a1
    2c84:	8936                	mv	s2,a3
    2c86:	84ba                	mv	s1,a4
    2c88:	843e                	mv	s0,a5
    2c8a:	bcdff0ef          	jal	2856 <_Z20HPS_spi_osd_cmd_conth>
    2c8e:	010a9513          	sll	a0,s5,0x10
    2c92:	8141                	srl	a0,a0,0x10
    2c94:	a23ff0ef          	jal	26b6 <_Z12HPS_fpga_spit>
    2c98:	010a1513          	sll	a0,s4,0x10
    2c9c:	8141                	srl	a0,a0,0x10
    2c9e:	a19ff0ef          	jal	26b6 <_Z12HPS_fpga_spit>
    2ca2:	01099513          	sll	a0,s3,0x10
    2ca6:	8141                	srl	a0,a0,0x10
    2ca8:	a0fff0ef          	jal	26b6 <_Z12HPS_fpga_spit>
    2cac:	01091513          	sll	a0,s2,0x10
    2cb0:	8141                	srl	a0,a0,0x10
    2cb2:	a05ff0ef          	jal	26b6 <_Z12HPS_fpga_spit>
    2cb6:	01049513          	sll	a0,s1,0x10
    2cba:	8141                	srl	a0,a0,0x10
    2cbc:	9fbff0ef          	jal	26b6 <_Z12HPS_fpga_spit>
    2cc0:	01041513          	sll	a0,s0,0x10
    2cc4:	8141                	srl	a0,a0,0x10
    2cc6:	9f1ff0ef          	jal	26b6 <_Z12HPS_fpga_spit>
    2cca:	4462                	lw	s0,24(sp)
    2ccc:	40f2                	lw	ra,28(sp)
    2cce:	44d2                	lw	s1,20(sp)
    2cd0:	4942                	lw	s2,16(sp)
    2cd2:	49b2                	lw	s3,12(sp)
    2cd4:	4a22                	lw	s4,8(sp)
    2cd6:	4a92                	lw	s5,4(sp)
    2cd8:	6105                	add	sp,sp,32
    2cda:	b5fff06f          	j	2838 <_Z14HPS_DisableOsdv>

00002cde <_Z10OsdDisablev>:
    2cde:	04000513          	li	a0,64
    2ce2:	b8dff06f          	j	286e <_Z15HPS_spi_osd_cmdh>

00002ce6 <_Z9OsdUpdatei>:
    2ce6:	02056513          	or	a0,a0,32
    2cea:	1141                	add	sp,sp,-16
    2cec:	0ff57513          	zext.b	a0,a0
    2cf0:	c606                	sw	ra,12(sp)
    2cf2:	b65ff0ef          	jal	2856 <_Z20HPS_spi_osd_cmd_conth>
    2cf6:	0001                	nop
    2cf8:	0001                	nop
    2cfa:	6529                	lui	a0,0xa
    2cfc:	4601                	li	a2,0
    2cfe:	10000593          	li	a1,256
    2d02:	32c50513          	add	a0,a0,812 # a32c <_ZL6osdbuf>
    2d06:	badff0ef          	jal	28b2 <_Z17OSD_HPS_spi_writePKhmi>
    2d0a:	0001                	nop
    2d0c:	0001                	nop
    2d0e:	40b2                	lw	ra,12(sp)
    2d10:	0141                	add	sp,sp,16
    2d12:	b27ff06f          	j	2838 <_Z14HPS_DisableOsdv>

00002d16 <_Z16osd_display_infov>:
    2d16:	f0802703          	lw	a4,-248(zero) # ffffff08 <_end+0xffff5548>
    2d1a:	4785                	li	a5,1
    2d1c:	00f70363          	beq	a4,a5,2d22 <_Z16osd_display_infov+0xc>
    2d20:	bf7d                	j	2cde <_Z10OsdDisablev>
    2d22:	1141                	add	sp,sp,-16
    2d24:	c226                	sw	s1,4(sp)
    2d26:	64a9                	lui	s1,0xa
    2d28:	5b84a603          	lw	a2,1464(s1) # a5b8 <_ZL16timer_wait_value>
    2d2c:	c422                	sw	s0,8(sp)
    2d2e:	6595                	lui	a1,0x5
    2d30:	6429                	lui	s0,0xa
    2d32:	38058593          	add	a1,a1,896 # 5380 <stream_vscanf+0xd44>
    2d36:	52c40513          	add	a0,s0,1324 # a52c <s>
    2d3a:	c606                	sw	ra,12(sp)
    2d3c:	72e010ef          	jal	446a <sprintf>
    2d40:	4781                	li	a5,0
    2d42:	02000713          	li	a4,32
    2d46:	4681                	li	a3,0
    2d48:	4601                	li	a2,0
    2d4a:	4581                	li	a1,0
    2d4c:	52c40513          	add	a0,s0,1324
    2d50:	35cd                	jal	2c32 <_Z8OsdWritePKchhcii>
    2d52:	4505                	li	a0,1
    2d54:	3f49                	jal	2ce6 <_Z9OsdUpdatei>
    2d56:	3df5                	jal	2c52 <_Z8OsdClearv>
    2d58:	67a9                	lui	a5,0xa
    2d5a:	5b57c703          	lbu	a4,1461(a5) # a5b5 <nstore3>
    2d5e:	67a9                	lui	a5,0xa
    2d60:	5b67c683          	lbu	a3,1462(a5) # a5b6 <nstore2>
    2d64:	67a9                	lui	a5,0xa
    2d66:	5b77c603          	lbu	a2,1463(a5) # a5b7 <nstore1>
    2d6a:	6595                	lui	a1,0x5
    2d6c:	38c58593          	add	a1,a1,908 # 538c <stream_vscanf+0xd50>
    2d70:	52c40513          	add	a0,s0,1324
    2d74:	6f6010ef          	jal	446a <sprintf>
    2d78:	4781                	li	a5,0
    2d7a:	02000713          	li	a4,32
    2d7e:	4681                	li	a3,0
    2d80:	4601                	li	a2,0
    2d82:	4581                	li	a1,0
    2d84:	52c40513          	add	a0,s0,1324
    2d88:	356d                	jal	2c32 <_Z8OsdWritePKchhcii>
    2d8a:	4501                	li	a0,0
    2d8c:	3fa9                	jal	2ce6 <_Z9OsdUpdatei>
    2d8e:	6429                	lui	s0,0xa
    2d90:	35c9                	jal	2c52 <_Z8OsdClearv>
    2d92:	5b444783          	lbu	a5,1460(s0) # a5b4 <frame_counter>
    2d96:	cb8d                	beqz	a5,2dc8 <_Z16osd_display_infov+0xb2>
    2d98:	67a1                	lui	a5,0x8
    2d9a:	c0078793          	add	a5,a5,-1024 # 7c00 <cue+0x192c>
    2d9e:	12300713          	li	a4,291
    2da2:	4689                	li	a3,2
    2da4:	4641                	li	a2,16
    2da6:	45a9                	li	a1,10
    2da8:	4529                	li	a0,10
    2daa:	35c1                	jal	2c6a <_Z10InfoEnableiiiiii>
    2dac:	0c800513          	li	a0,200
    2db0:	03c010ef          	jal	3dec <_Z13RISCGetTimer2m>
    2db4:	5b444783          	lbu	a5,1460(s0)
    2db8:	17fd                	add	a5,a5,-1
    2dba:	5af40a23          	sb	a5,1460(s0)
    2dbe:	40b2                	lw	ra,12(sp)
    2dc0:	4422                	lw	s0,8(sp)
    2dc2:	4492                	lw	s1,4(sp)
    2dc4:	0141                	add	sp,sp,16
    2dc6:	8082                	ret
    2dc8:	67c1                	lui	a5,0x10
    2dca:	17fd                	add	a5,a5,-1 # ffff <_end+0x563f>
    2dcc:	12300713          	li	a4,291
    2dd0:	4689                	li	a3,2
    2dd2:	4641                	li	a2,16
    2dd4:	45a9                	li	a1,10
    2dd6:	4529                	li	a0,10
    2dd8:	3d49                	jal	2c6a <_Z10InfoEnableiiiiii>
    2dda:	5a04ac23          	sw	zero,1464(s1)
    2dde:	b7c5                	j	2dbe <_Z16osd_display_infov+0xa8>

00002de0 <_Z23osd_display_info_updatei>:
    2de0:	f0802703          	lw	a4,-248(zero) # ffffff08 <_end+0xffff5548>
    2de4:	4785                	li	a5,1
    2de6:	00f70363          	beq	a4,a5,2dec <_Z23osd_display_info_updatei+0xc>
    2dea:	8082                	ret
    2dec:	6729                	lui	a4,0xa
    2dee:	5b872783          	lw	a5,1464(a4) # a5b8 <_ZL16timer_wait_value>
    2df2:	97aa                	add	a5,a5,a0
    2df4:	5af72c23          	sw	a5,1464(a4)
    2df8:	fea059e3          	blez	a0,2dea <_Z23osd_display_info_updatei+0xa>
    2dfc:	67a9                	lui	a5,0xa
    2dfe:	4709                	li	a4,2
    2e00:	5ae78a23          	sb	a4,1460(a5) # a5b4 <frame_counter>
    2e04:	8082                	ret

00002e06 <_Z18osd_display_timinghhh>:
    2e06:	f0802703          	lw	a4,-248(zero) # ffffff08 <_end+0xffff5548>
    2e0a:	4785                	li	a5,1
    2e0c:	00f70363          	beq	a4,a5,2e12 <_Z18osd_display_timinghhh+0xc>
    2e10:	8082                	ret
    2e12:	67a9                	lui	a5,0xa
    2e14:	5aa78ba3          	sb	a0,1463(a5) # a5b7 <nstore1>
    2e18:	67a9                	lui	a5,0xa
    2e1a:	5ab78b23          	sb	a1,1462(a5) # a5b6 <nstore2>
    2e1e:	67a9                	lui	a5,0xa
    2e20:	5ac78aa3          	sb	a2,1461(a5) # a5b5 <nstore3>
    2e24:	8082                	ret

00002e26 <_Z26osd_display_error_datasloti>:
    2e26:	1141                	add	sp,sp,-16
    2e28:	c606                	sw	ra,12(sp)
    2e2a:	4795                	li	a5,5
    2e2c:	3ef50f63          	beq	a0,a5,322a <_Z26osd_display_error_datasloti+0x404>
    2e30:	4799                	li	a5,6
    2e32:	24f50f63          	beq	a0,a5,3090 <_Z26osd_display_error_datasloti+0x26a>
    2e36:	c422                	sw	s0,8(sp)
    2e38:	6595                	lui	a1,0x5
    2e3a:	6429                	lui	s0,0xa
    2e3c:	862a                	mv	a2,a0
    2e3e:	62058593          	add	a1,a1,1568 # 5620 <stream_vscanf+0xfe4>
    2e42:	52c40513          	add	a0,s0,1324 # a52c <s>
    2e46:	c226                	sw	s1,4(sp)
    2e48:	622010ef          	jal	446a <sprintf>
    2e4c:	4781                	li	a5,0
    2e4e:	02000713          	li	a4,32
    2e52:	4681                	li	a3,0
    2e54:	4601                	li	a2,0
    2e56:	4581                	li	a1,0
    2e58:	52c40513          	add	a0,s0,1324
    2e5c:	dd7ff0ef          	jal	2c32 <_Z8OsdWritePKchhcii>
    2e60:	4501                	li	a0,0
    2e62:	3551                	jal	2ce6 <_Z9OsdUpdatei>
    2e64:	defff0ef          	jal	2c52 <_Z8OsdClearv>
    2e68:	6515                	lui	a0,0x5
    2e6a:	4781                	li	a5,0
    2e6c:	02000713          	li	a4,32
    2e70:	4681                	li	a3,0
    2e72:	4601                	li	a2,0
    2e74:	4581                	li	a1,0
    2e76:	64050513          	add	a0,a0,1600 # 5640 <stream_vscanf+0x1004>
    2e7a:	db9ff0ef          	jal	2c32 <_Z8OsdWritePKchhcii>
    2e7e:	4505                	li	a0,1
    2e80:	359d                	jal	2ce6 <_Z9OsdUpdatei>
    2e82:	dd1ff0ef          	jal	2c52 <_Z8OsdClearv>
    2e86:	6515                	lui	a0,0x5
    2e88:	4781                	li	a5,0
    2e8a:	02000713          	li	a4,32
    2e8e:	4681                	li	a3,0
    2e90:	4601                	li	a2,0
    2e92:	4581                	li	a1,0
    2e94:	66050513          	add	a0,a0,1632 # 5660 <stream_vscanf+0x1024>
    2e98:	d9bff0ef          	jal	2c32 <_Z8OsdWritePKchhcii>
    2e9c:	4509                	li	a0,2
    2e9e:	35a1                	jal	2ce6 <_Z9OsdUpdatei>
    2ea0:	db3ff0ef          	jal	2c52 <_Z8OsdClearv>
    2ea4:	6515                	lui	a0,0x5
    2ea6:	4781                	li	a5,0
    2ea8:	02000713          	li	a4,32
    2eac:	4681                	li	a3,0
    2eae:	4601                	li	a2,0
    2eb0:	4581                	li	a1,0
    2eb2:	68050513          	add	a0,a0,1664 # 5680 <stream_vscanf+0x1044>
    2eb6:	d7dff0ef          	jal	2c32 <_Z8OsdWritePKchhcii>
    2eba:	450d                	li	a0,3
    2ebc:	e2bff0ef          	jal	2ce6 <_Z9OsdUpdatei>
    2ec0:	d93ff0ef          	jal	2c52 <_Z8OsdClearv>
    2ec4:	6515                	lui	a0,0x5
    2ec6:	4781                	li	a5,0
    2ec8:	02000713          	li	a4,32
    2ecc:	4681                	li	a3,0
    2ece:	4601                	li	a2,0
    2ed0:	4581                	li	a1,0
    2ed2:	6a050513          	add	a0,a0,1696 # 56a0 <stream_vscanf+0x1064>
    2ed6:	d5dff0ef          	jal	2c32 <_Z8OsdWritePKchhcii>
    2eda:	4511                	li	a0,4
    2edc:	e0bff0ef          	jal	2ce6 <_Z9OsdUpdatei>
    2ee0:	d73ff0ef          	jal	2c52 <_Z8OsdClearv>
    2ee4:	6515                	lui	a0,0x5
    2ee6:	4781                	li	a5,0
    2ee8:	02000713          	li	a4,32
    2eec:	4681                	li	a3,0
    2eee:	4601                	li	a2,0
    2ef0:	4581                	li	a1,0
    2ef2:	6c050513          	add	a0,a0,1728 # 56c0 <stream_vscanf+0x1084>
    2ef6:	d3dff0ef          	jal	2c32 <_Z8OsdWritePKchhcii>
    2efa:	4515                	li	a0,5
    2efc:	debff0ef          	jal	2ce6 <_Z9OsdUpdatei>
    2f00:	d53ff0ef          	jal	2c52 <_Z8OsdClearv>
    2f04:	6495                	lui	s1,0x5
    2f06:	6699                	lui	a3,0x6
    2f08:	6d448613          	add	a2,s1,1748 # 56d4 <stream_vscanf+0x1098>
    2f0c:	12968693          	add	a3,a3,297 # 6129 <aft+0x101>
    2f10:	45f9                	li	a1,30
    2f12:	52c40513          	add	a0,s0,1324
    2f16:	58e010ef          	jal	44a4 <snprintf>
    2f1a:	4781                	li	a5,0
    2f1c:	02000713          	li	a4,32
    2f20:	4681                	li	a3,0
    2f22:	4601                	li	a2,0
    2f24:	4581                	li	a1,0
    2f26:	52c40513          	add	a0,s0,1324
    2f2a:	d09ff0ef          	jal	2c32 <_Z8OsdWritePKchhcii>
    2f2e:	4519                	li	a0,6
    2f30:	db7ff0ef          	jal	2ce6 <_Z9OsdUpdatei>
    2f34:	d1fff0ef          	jal	2c52 <_Z8OsdClearv>
    2f38:	6699                	lui	a3,0x6
    2f3a:	6d448613          	add	a2,s1,1748
    2f3e:	14668693          	add	a3,a3,326 # 6146 <aft+0x11e>
    2f42:	45f9                	li	a1,30
    2f44:	52c40513          	add	a0,s0,1324
    2f48:	55c010ef          	jal	44a4 <snprintf>
    2f4c:	4781                	li	a5,0
    2f4e:	02000713          	li	a4,32
    2f52:	4681                	li	a3,0
    2f54:	4601                	li	a2,0
    2f56:	4581                	li	a1,0
    2f58:	52c40513          	add	a0,s0,1324
    2f5c:	cd7ff0ef          	jal	2c32 <_Z8OsdWritePKchhcii>
    2f60:	4521                	li	a0,8
    2f62:	d85ff0ef          	jal	2ce6 <_Z9OsdUpdatei>
    2f66:	cedff0ef          	jal	2c52 <_Z8OsdClearv>
    2f6a:	6699                	lui	a3,0x6
    2f6c:	6d448613          	add	a2,s1,1748
    2f70:	16368693          	add	a3,a3,355 # 6163 <aft+0x13b>
    2f74:	45f9                	li	a1,30
    2f76:	52c40513          	add	a0,s0,1324
    2f7a:	52a010ef          	jal	44a4 <snprintf>
    2f7e:	4781                	li	a5,0
    2f80:	02000713          	li	a4,32
    2f84:	4681                	li	a3,0
    2f86:	4601                	li	a2,0
    2f88:	4581                	li	a1,0
    2f8a:	52c40513          	add	a0,s0,1324
    2f8e:	ca5ff0ef          	jal	2c32 <_Z8OsdWritePKchhcii>
    2f92:	4525                	li	a0,9
    2f94:	d53ff0ef          	jal	2ce6 <_Z9OsdUpdatei>
    2f98:	cbbff0ef          	jal	2c52 <_Z8OsdClearv>
    2f9c:	6515                	lui	a0,0x5
    2f9e:	4781                	li	a5,0
    2fa0:	02000713          	li	a4,32
    2fa4:	4681                	li	a3,0
    2fa6:	4601                	li	a2,0
    2fa8:	4581                	li	a1,0
    2faa:	6d850513          	add	a0,a0,1752 # 56d8 <stream_vscanf+0x109c>
    2fae:	c85ff0ef          	jal	2c32 <_Z8OsdWritePKchhcii>
    2fb2:	4529                	li	a0,10
    2fb4:	d33ff0ef          	jal	2ce6 <_Z9OsdUpdatei>
    2fb8:	c9bff0ef          	jal	2c52 <_Z8OsdClearv>
    2fbc:	6699                	lui	a3,0x6
    2fbe:	6d448613          	add	a2,s1,1748
    2fc2:	02a68693          	add	a3,a3,42 # 602a <aft+0x2>
    2fc6:	45f9                	li	a1,30
    2fc8:	52c40513          	add	a0,s0,1324
    2fcc:	4d8010ef          	jal	44a4 <snprintf>
    2fd0:	4781                	li	a5,0
    2fd2:	02000713          	li	a4,32
    2fd6:	4681                	li	a3,0
    2fd8:	4601                	li	a2,0
    2fda:	4581                	li	a1,0
    2fdc:	52c40513          	add	a0,s0,1324
    2fe0:	c53ff0ef          	jal	2c32 <_Z8OsdWritePKchhcii>
    2fe4:	452d                	li	a0,11
    2fe6:	d01ff0ef          	jal	2ce6 <_Z9OsdUpdatei>
    2fea:	c69ff0ef          	jal	2c52 <_Z8OsdClearv>
    2fee:	6699                	lui	a3,0x6
    2ff0:	6d448613          	add	a2,s1,1748
    2ff4:	04768693          	add	a3,a3,71 # 6047 <aft+0x1f>
    2ff8:	45f9                	li	a1,30
    2ffa:	52c40513          	add	a0,s0,1324
    2ffe:	4a6010ef          	jal	44a4 <snprintf>
    3002:	4781                	li	a5,0
    3004:	02000713          	li	a4,32
    3008:	4681                	li	a3,0
    300a:	4601                	li	a2,0
    300c:	4581                	li	a1,0
    300e:	52c40513          	add	a0,s0,1324
    3012:	c21ff0ef          	jal	2c32 <_Z8OsdWritePKchhcii>
    3016:	4531                	li	a0,12
    3018:	ccfff0ef          	jal	2ce6 <_Z9OsdUpdatei>
    301c:	c37ff0ef          	jal	2c52 <_Z8OsdClearv>
    3020:	6699                	lui	a3,0x6
    3022:	6d448613          	add	a2,s1,1748
    3026:	06468693          	add	a3,a3,100 # 6064 <aft+0x3c>
    302a:	45f9                	li	a1,30
    302c:	52c40513          	add	a0,s0,1324
    3030:	474010ef          	jal	44a4 <snprintf>
    3034:	4781                	li	a5,0
    3036:	02000713          	li	a4,32
    303a:	4681                	li	a3,0
    303c:	4601                	li	a2,0
    303e:	4581                	li	a1,0
    3040:	52c40513          	add	a0,s0,1324
    3044:	befff0ef          	jal	2c32 <_Z8OsdWritePKchhcii>
    3048:	4535                	li	a0,13
    304a:	c9dff0ef          	jal	2ce6 <_Z9OsdUpdatei>
    304e:	c05ff0ef          	jal	2c52 <_Z8OsdClearv>
    3052:	6515                	lui	a0,0x5
    3054:	4781                	li	a5,0
    3056:	02000713          	li	a4,32
    305a:	4681                	li	a3,0
    305c:	4601                	li	a2,0
    305e:	4581                	li	a1,0
    3060:	4d450513          	add	a0,a0,1236 # 54d4 <stream_vscanf+0xe98>
    3064:	bcfff0ef          	jal	2c32 <_Z8OsdWritePKchhcii>
    3068:	4539                	li	a0,14
    306a:	c7dff0ef          	jal	2ce6 <_Z9OsdUpdatei>
    306e:	be5ff0ef          	jal	2c52 <_Z8OsdClearv>
    3072:	4422                	lw	s0,8(sp)
    3074:	4492                	lw	s1,4(sp)
    3076:	40b2                	lw	ra,12(sp)
    3078:	67c1                	lui	a5,0x10
    307a:	17fd                	add	a5,a5,-1 # ffff <_end+0x563f>
    307c:	0c000713          	li	a4,192
    3080:	46bd                	li	a3,15
    3082:	4679                	li	a2,30
    3084:	05000593          	li	a1,80
    3088:	4529                	li	a0,10
    308a:	0141                	add	sp,sp,16
    308c:	bdfff06f          	j	2c6a <_Z10InfoEnableiiiiii>
    3090:	6515                	lui	a0,0x5
    3092:	4781                	li	a5,0
    3094:	02000713          	li	a4,32
    3098:	4681                	li	a3,0
    309a:	4601                	li	a2,0
    309c:	4581                	li	a1,0
    309e:	3a050513          	add	a0,a0,928 # 53a0 <stream_vscanf+0xd64>
    30a2:	b91ff0ef          	jal	2c32 <_Z8OsdWritePKchhcii>
    30a6:	4501                	li	a0,0
    30a8:	c3fff0ef          	jal	2ce6 <_Z9OsdUpdatei>
    30ac:	ba7ff0ef          	jal	2c52 <_Z8OsdClearv>
    30b0:	6515                	lui	a0,0x5
    30b2:	4781                	li	a5,0
    30b4:	02000713          	li	a4,32
    30b8:	4681                	li	a3,0
    30ba:	4601                	li	a2,0
    30bc:	4581                	li	a1,0
    30be:	3c050513          	add	a0,a0,960 # 53c0 <stream_vscanf+0xd84>
    30c2:	b71ff0ef          	jal	2c32 <_Z8OsdWritePKchhcii>
    30c6:	4505                	li	a0,1
    30c8:	c1fff0ef          	jal	2ce6 <_Z9OsdUpdatei>
    30cc:	b87ff0ef          	jal	2c52 <_Z8OsdClearv>
    30d0:	6515                	lui	a0,0x5
    30d2:	4781                	li	a5,0
    30d4:	02000713          	li	a4,32
    30d8:	4681                	li	a3,0
    30da:	4601                	li	a2,0
    30dc:	4581                	li	a1,0
    30de:	3e050513          	add	a0,a0,992 # 53e0 <stream_vscanf+0xda4>
    30e2:	b51ff0ef          	jal	2c32 <_Z8OsdWritePKchhcii>
    30e6:	4509                	li	a0,2
    30e8:	bffff0ef          	jal	2ce6 <_Z9OsdUpdatei>
    30ec:	b67ff0ef          	jal	2c52 <_Z8OsdClearv>
    30f0:	6515                	lui	a0,0x5
    30f2:	4781                	li	a5,0
    30f4:	02000713          	li	a4,32
    30f8:	4681                	li	a3,0
    30fa:	4601                	li	a2,0
    30fc:	4581                	li	a1,0
    30fe:	40050513          	add	a0,a0,1024 # 5400 <stream_vscanf+0xdc4>
    3102:	b31ff0ef          	jal	2c32 <_Z8OsdWritePKchhcii>
    3106:	450d                	li	a0,3
    3108:	bdfff0ef          	jal	2ce6 <_Z9OsdUpdatei>
    310c:	b47ff0ef          	jal	2c52 <_Z8OsdClearv>
    3110:	6515                	lui	a0,0x5
    3112:	4781                	li	a5,0
    3114:	02000713          	li	a4,32
    3118:	4681                	li	a3,0
    311a:	4601                	li	a2,0
    311c:	4581                	li	a1,0
    311e:	42050513          	add	a0,a0,1056 # 5420 <stream_vscanf+0xde4>
    3122:	b11ff0ef          	jal	2c32 <_Z8OsdWritePKchhcii>
    3126:	4511                	li	a0,4
    3128:	bbfff0ef          	jal	2ce6 <_Z9OsdUpdatei>
    312c:	b27ff0ef          	jal	2c52 <_Z8OsdClearv>
    3130:	6515                	lui	a0,0x5
    3132:	4781                	li	a5,0
    3134:	02000713          	li	a4,32
    3138:	4681                	li	a3,0
    313a:	4601                	li	a2,0
    313c:	4581                	li	a1,0
    313e:	43850513          	add	a0,a0,1080 # 5438 <stream_vscanf+0xdfc>
    3142:	af1ff0ef          	jal	2c32 <_Z8OsdWritePKchhcii>
    3146:	4515                	li	a0,5
    3148:	b9fff0ef          	jal	2ce6 <_Z9OsdUpdatei>
    314c:	b07ff0ef          	jal	2c52 <_Z8OsdClearv>
    3150:	6515                	lui	a0,0x5
    3152:	4781                	li	a5,0
    3154:	02000713          	li	a4,32
    3158:	4681                	li	a3,0
    315a:	4601                	li	a2,0
    315c:	4581                	li	a1,0
    315e:	45850513          	add	a0,a0,1112 # 5458 <stream_vscanf+0xe1c>
    3162:	ad1ff0ef          	jal	2c32 <_Z8OsdWritePKchhcii>
    3166:	4519                	li	a0,6
    3168:	b7fff0ef          	jal	2ce6 <_Z9OsdUpdatei>
    316c:	ae7ff0ef          	jal	2c52 <_Z8OsdClearv>
    3170:	6515                	lui	a0,0x5
    3172:	4781                	li	a5,0
    3174:	02000713          	li	a4,32
    3178:	4681                	li	a3,0
    317a:	4601                	li	a2,0
    317c:	4581                	li	a1,0
    317e:	47850513          	add	a0,a0,1144 # 5478 <stream_vscanf+0xe3c>
    3182:	ab1ff0ef          	jal	2c32 <_Z8OsdWritePKchhcii>
    3186:	451d                	li	a0,7
    3188:	b5fff0ef          	jal	2ce6 <_Z9OsdUpdatei>
    318c:	ac7ff0ef          	jal	2c52 <_Z8OsdClearv>
    3190:	6515                	lui	a0,0x5
    3192:	4781                	li	a5,0
    3194:	02000713          	li	a4,32
    3198:	4681                	li	a3,0
    319a:	4601                	li	a2,0
    319c:	4581                	li	a1,0
    319e:	49850513          	add	a0,a0,1176 # 5498 <stream_vscanf+0xe5c>
    31a2:	a91ff0ef          	jal	2c32 <_Z8OsdWritePKchhcii>
    31a6:	4521                	li	a0,8
    31a8:	b3fff0ef          	jal	2ce6 <_Z9OsdUpdatei>
    31ac:	aa7ff0ef          	jal	2c52 <_Z8OsdClearv>
    31b0:	6515                	lui	a0,0x5
    31b2:	4781                	li	a5,0
    31b4:	02000713          	li	a4,32
    31b8:	4681                	li	a3,0
    31ba:	4601                	li	a2,0
    31bc:	4581                	li	a1,0
    31be:	4bc50513          	add	a0,a0,1212 # 54bc <stream_vscanf+0xe80>
    31c2:	a71ff0ef          	jal	2c32 <_Z8OsdWritePKchhcii>
    31c6:	4525                	li	a0,9
    31c8:	b1fff0ef          	jal	2ce6 <_Z9OsdUpdatei>
    31cc:	a87ff0ef          	jal	2c52 <_Z8OsdClearv>
    31d0:	6515                	lui	a0,0x5
    31d2:	4781                	li	a5,0
    31d4:	02000713          	li	a4,32
    31d8:	4681                	li	a3,0
    31da:	4601                	li	a2,0
    31dc:	4581                	li	a1,0
    31de:	4d450513          	add	a0,a0,1236 # 54d4 <stream_vscanf+0xe98>
    31e2:	a51ff0ef          	jal	2c32 <_Z8OsdWritePKchhcii>
    31e6:	4529                	li	a0,10
    31e8:	affff0ef          	jal	2ce6 <_Z9OsdUpdatei>
    31ec:	a67ff0ef          	jal	2c52 <_Z8OsdClearv>
    31f0:	6515                	lui	a0,0x5
    31f2:	4781                	li	a5,0
    31f4:	02000713          	li	a4,32
    31f8:	4681                	li	a3,0
    31fa:	4601                	li	a2,0
    31fc:	4581                	li	a1,0
    31fe:	4f450513          	add	a0,a0,1268 # 54f4 <stream_vscanf+0xeb8>
    3202:	a31ff0ef          	jal	2c32 <_Z8OsdWritePKchhcii>
    3206:	452d                	li	a0,11
    3208:	adfff0ef          	jal	2ce6 <_Z9OsdUpdatei>
    320c:	a47ff0ef          	jal	2c52 <_Z8OsdClearv>
    3210:	40b2                	lw	ra,12(sp)
    3212:	67c1                	lui	a5,0x10
    3214:	17fd                	add	a5,a5,-1 # ffff <_end+0x563f>
    3216:	0c000713          	li	a4,192
    321a:	46b1                	li	a3,12
    321c:	467d                	li	a2,31
    321e:	05000593          	li	a1,80
    3222:	4515                	li	a0,5
    3224:	0141                	add	sp,sp,16
    3226:	a45ff06f          	j	2c6a <_Z10InfoEnableiiiiii>
    322a:	6515                	lui	a0,0x5
    322c:	4781                	li	a5,0
    322e:	02000713          	li	a4,32
    3232:	4681                	li	a3,0
    3234:	4601                	li	a2,0
    3236:	4581                	li	a1,0
    3238:	51450513          	add	a0,a0,1300 # 5514 <stream_vscanf+0xed8>
    323c:	9f7ff0ef          	jal	2c32 <_Z8OsdWritePKchhcii>
    3240:	4501                	li	a0,0
    3242:	aa5ff0ef          	jal	2ce6 <_Z9OsdUpdatei>
    3246:	a0dff0ef          	jal	2c52 <_Z8OsdClearv>
    324a:	6515                	lui	a0,0x5
    324c:	4781                	li	a5,0
    324e:	02000713          	li	a4,32
    3252:	4681                	li	a3,0
    3254:	4601                	li	a2,0
    3256:	4581                	li	a1,0
    3258:	53450513          	add	a0,a0,1332 # 5534 <stream_vscanf+0xef8>
    325c:	9d7ff0ef          	jal	2c32 <_Z8OsdWritePKchhcii>
    3260:	4505                	li	a0,1
    3262:	a85ff0ef          	jal	2ce6 <_Z9OsdUpdatei>
    3266:	9edff0ef          	jal	2c52 <_Z8OsdClearv>
    326a:	6515                	lui	a0,0x5
    326c:	4781                	li	a5,0
    326e:	02000713          	li	a4,32
    3272:	4681                	li	a3,0
    3274:	4601                	li	a2,0
    3276:	4581                	li	a1,0
    3278:	55450513          	add	a0,a0,1364 # 5554 <stream_vscanf+0xf18>
    327c:	9b7ff0ef          	jal	2c32 <_Z8OsdWritePKchhcii>
    3280:	4509                	li	a0,2
    3282:	a65ff0ef          	jal	2ce6 <_Z9OsdUpdatei>
    3286:	9cdff0ef          	jal	2c52 <_Z8OsdClearv>
    328a:	6515                	lui	a0,0x5
    328c:	4781                	li	a5,0
    328e:	02000713          	li	a4,32
    3292:	4681                	li	a3,0
    3294:	4601                	li	a2,0
    3296:	4581                	li	a1,0
    3298:	57050513          	add	a0,a0,1392 # 5570 <stream_vscanf+0xf34>
    329c:	997ff0ef          	jal	2c32 <_Z8OsdWritePKchhcii>
    32a0:	450d                	li	a0,3
    32a2:	a45ff0ef          	jal	2ce6 <_Z9OsdUpdatei>
    32a6:	9adff0ef          	jal	2c52 <_Z8OsdClearv>
    32aa:	6515                	lui	a0,0x5
    32ac:	4781                	li	a5,0
    32ae:	02000713          	li	a4,32
    32b2:	4681                	li	a3,0
    32b4:	4601                	li	a2,0
    32b6:	4581                	li	a1,0
    32b8:	58850513          	add	a0,a0,1416 # 5588 <stream_vscanf+0xf4c>
    32bc:	977ff0ef          	jal	2c32 <_Z8OsdWritePKchhcii>
    32c0:	4511                	li	a0,4
    32c2:	a25ff0ef          	jal	2ce6 <_Z9OsdUpdatei>
    32c6:	98dff0ef          	jal	2c52 <_Z8OsdClearv>
    32ca:	6515                	lui	a0,0x5
    32cc:	4781                	li	a5,0
    32ce:	02000713          	li	a4,32
    32d2:	4681                	li	a3,0
    32d4:	4601                	li	a2,0
    32d6:	4581                	li	a1,0
    32d8:	5a850513          	add	a0,a0,1448 # 55a8 <stream_vscanf+0xf6c>
    32dc:	957ff0ef          	jal	2c32 <_Z8OsdWritePKchhcii>
    32e0:	4515                	li	a0,5
    32e2:	a05ff0ef          	jal	2ce6 <_Z9OsdUpdatei>
    32e6:	96dff0ef          	jal	2c52 <_Z8OsdClearv>
    32ea:	6515                	lui	a0,0x5
    32ec:	4781                	li	a5,0
    32ee:	02000713          	li	a4,32
    32f2:	4681                	li	a3,0
    32f4:	4601                	li	a2,0
    32f6:	4581                	li	a1,0
    32f8:	5c450513          	add	a0,a0,1476 # 55c4 <stream_vscanf+0xf88>
    32fc:	937ff0ef          	jal	2c32 <_Z8OsdWritePKchhcii>
    3300:	4519                	li	a0,6
    3302:	9e5ff0ef          	jal	2ce6 <_Z9OsdUpdatei>
    3306:	94dff0ef          	jal	2c52 <_Z8OsdClearv>
    330a:	6515                	lui	a0,0x5
    330c:	4781                	li	a5,0
    330e:	02000713          	li	a4,32
    3312:	4681                	li	a3,0
    3314:	4601                	li	a2,0
    3316:	4581                	li	a1,0
    3318:	5e450513          	add	a0,a0,1508 # 55e4 <stream_vscanf+0xfa8>
    331c:	917ff0ef          	jal	2c32 <_Z8OsdWritePKchhcii>
    3320:	451d                	li	a0,7
    3322:	9c5ff0ef          	jal	2ce6 <_Z9OsdUpdatei>
    3326:	92dff0ef          	jal	2c52 <_Z8OsdClearv>
    332a:	6515                	lui	a0,0x5
    332c:	4781                	li	a5,0
    332e:	02000713          	li	a4,32
    3332:	4681                	li	a3,0
    3334:	4601                	li	a2,0
    3336:	4581                	li	a1,0
    3338:	60450513          	add	a0,a0,1540 # 5604 <stream_vscanf+0xfc8>
    333c:	8f7ff0ef          	jal	2c32 <_Z8OsdWritePKchhcii>
    3340:	4521                	li	a0,8
    3342:	9a5ff0ef          	jal	2ce6 <_Z9OsdUpdatei>
    3346:	90dff0ef          	jal	2c52 <_Z8OsdClearv>
    334a:	6515                	lui	a0,0x5
    334c:	4781                	li	a5,0
    334e:	02000713          	li	a4,32
    3352:	4681                	li	a3,0
    3354:	4601                	li	a2,0
    3356:	4581                	li	a1,0
    3358:	4bc50513          	add	a0,a0,1212 # 54bc <stream_vscanf+0xe80>
    335c:	8d7ff0ef          	jal	2c32 <_Z8OsdWritePKchhcii>
    3360:	4525                	li	a0,9
    3362:	985ff0ef          	jal	2ce6 <_Z9OsdUpdatei>
    3366:	8edff0ef          	jal	2c52 <_Z8OsdClearv>
    336a:	6515                	lui	a0,0x5
    336c:	4781                	li	a5,0
    336e:	02000713          	li	a4,32
    3372:	4681                	li	a3,0
    3374:	4601                	li	a2,0
    3376:	4581                	li	a1,0
    3378:	4d450513          	add	a0,a0,1236 # 54d4 <stream_vscanf+0xe98>
    337c:	8b7ff0ef          	jal	2c32 <_Z8OsdWritePKchhcii>
    3380:	4529                	li	a0,10
    3382:	965ff0ef          	jal	2ce6 <_Z9OsdUpdatei>
    3386:	8cdff0ef          	jal	2c52 <_Z8OsdClearv>
    338a:	40b2                	lw	ra,12(sp)
    338c:	67c1                	lui	a5,0x10
    338e:	17fd                	add	a5,a5,-1 # ffff <_end+0x563f>
    3390:	0c000713          	li	a4,192
    3394:	46ad                	li	a3,11
    3396:	4679                	li	a2,30
    3398:	05000593          	li	a1,80
    339c:	4529                	li	a0,10
    339e:	0141                	add	sp,sp,16
    33a0:	8cbff06f          	j	2c6a <_Z10InfoEnableiiiiii>

000033a4 <riscputchar>:
    33a4:	fc002783          	lw	a5,-64(zero) # ffffffc0 <_end+0xffff5600>
    33a8:	1007f793          	and	a5,a5,256
    33ac:	ffe5                	bnez	a5,33a4 <riscputchar>
    33ae:	fca02023          	sw	a0,-64(zero) # ffffffc0 <_end+0xffff5600>
    33b2:	8082                	ret

000033b4 <SetUART>:
    33b4:	28400793          	li	a5,644
    33b8:	f8f02a23          	sw	a5,-108(zero) # ffffff94 <_end+0xffff55d4>
    33bc:	8082                	ret

000033be <_handle_trap>:
    33be:	6515                	lui	a0,0x5
    33c0:	6f850513          	add	a0,a0,1784 # 56f8 <stream_vscanf+0x10bc>
    33c4:	a999                	j	381a <riscprintf_>

000033c6 <_Z17DisableInterruptsv>:
    33c6:	fe002a23          	sw	zero,-12(zero) # fffffff4 <_end+0xffff5634>
    33ca:	8082                	ret

000033cc <_ZL9_out_charcPvjj>:
    33cc:	e111                	bnez	a0,33d0 <_ZL9_out_charcPvjj+0x4>
    33ce:	8082                	ret
    33d0:	fd5ff06f          	j	33a4 <riscputchar>

000033d4 <_ZL10_ntoa_longPFvcPvjjEPcjjmbmjjj.constprop.0>:
    33d4:	715d                	add	sp,sp,-80
    33d6:	4346                	lw	t1,80(sp)
    33d8:	c2a6                	sw	s1,68(sp)
    33da:	c0ca                	sw	s2,64(sp)
    33dc:	de4e                	sw	s3,60(sp)
    33de:	dc52                	sw	s4,56(sp)
    33e0:	c686                	sw	ra,76(sp)
    33e2:	c4a2                	sw	s0,72(sp)
    33e4:	da56                	sw	s5,52(sp)
    33e6:	d85a                	sw	s6,48(sp)
    33e8:	d65e                	sw	s7,44(sp)
    33ea:	84aa                	mv	s1,a0
    33ec:	892e                	mv	s2,a1
    33ee:	89b2                	mv	s3,a2
    33f0:	8a46                	mv	s4,a7
    33f2:	40037f93          	and	t6,t1,1024
    33f6:	14068063          	beqz	a3,3536 <_ZL10_ntoa_longPFvcPvjjEPcjjmbmjjj.constprop.0+0x162>
    33fa:	01037293          	and	t0,t1,16
    33fe:	8f1a                	mv	t5,t1
    3400:	005f5613          	srl	a2,t5,0x5
    3404:	8a05                	and	a2,a2,1
    3406:	06100513          	li	a0,97
    340a:	1a061763          	bnez	a2,35b8 <_ZL10_ntoa_longPFvcPvjjEPcjjmbmjjj.constprop.0+0x1e4>
    340e:	4401                	li	s0,0
    3410:	860a                	mv	a2,sp
    3412:	48a5                	li	a7,9
    3414:	1559                	add	a0,a0,-10
    3416:	02000e93          	li	t4,32
    341a:	a021                	j	3422 <_ZL10_ntoa_longPFvcPvjjEPcjjmbmjjj.constprop.0+0x4e>
    341c:	03d40963          	beq	s0,t4,344e <_ZL10_ntoa_longPFvcPvjjEPcjjmbmjjj.constprop.0+0x7a>
    3420:	86ae                	mv	a3,a1
    3422:	02f6fe33          	remu	t3,a3,a5
    3426:	0ffe7313          	zext.b	t1,t3
    342a:	03030593          	add	a1,t1,48
    342e:	932a                	add	t1,t1,a0
    3430:	0ff37313          	zext.b	t1,t1
    3434:	01c8e463          	bltu	a7,t3,343c <_ZL10_ntoa_longPFvcPvjjEPcjjmbmjjj.constprop.0+0x68>
    3438:	0ff5f313          	zext.b	t1,a1
    343c:	0405                	add	s0,s0,1
    343e:	008605b3          	add	a1,a2,s0
    3442:	fe658fa3          	sb	t1,-1(a1)
    3446:	02f6d5b3          	divu	a1,a3,a5
    344a:	fcf6f9e3          	bgeu	a3,a5,341c <_ZL10_ntoa_longPFvcPvjjEPcjjmbmjjj.constprop.0+0x48>
    344e:	002f7693          	and	a3,t5,2
    3452:	4b09                	li	s6,2
    3454:	cee5                	beqz	a3,354c <_ZL10_ntoa_longPFvcPvjjEPcjjmbmjjj.constprop.0+0x178>
    3456:	003f7313          	and	t1,t5,3
    345a:	18028c63          	beqz	t0,35f2 <_ZL10_ntoa_longPFvcPvjjEPcjjmbmjjj.constprop.0+0x21e>
    345e:	160f9463          	bnez	t6,35c6 <_ZL10_ntoa_longPFvcPvjjEPcjjmbmjjj.constprop.0+0x1f2>
    3462:	14041e63          	bnez	s0,35be <_ZL10_ntoa_longPFvcPvjjEPcjjmbmjjj.constprop.0+0x1ea>
    3466:	46c1                	li	a3,16
    3468:	2ad78963          	beq	a5,a3,371a <_ZL10_ntoa_longPFvcPvjjEPcjjmbmjjj.constprop.0+0x346>
    346c:	4689                	li	a3,2
    346e:	30d78d63          	beq	a5,a3,3788 <_ZL10_ntoa_longPFvcPvjjEPcjjmbmjjj.constprop.0+0x3b4>
    3472:	03000793          	li	a5,48
    3476:	00f10023          	sb	a5,0(sp)
    347a:	4685                	li	a3,1
    347c:	003f7313          	and	t1,t5,3
    3480:	20070663          	beqz	a4,368c <_ZL10_ntoa_longPFvcPvjjEPcjjmbmjjj.constprop.0+0x2b8>
    3484:	02068793          	add	a5,a3,32
    3488:	978a                	add	a5,a5,sp
    348a:	02d00713          	li	a4,45
    348e:	fee78023          	sb	a4,-32(a5)
    3492:	00168413          	add	s0,a3,1
    3496:	1a031b63          	bnez	t1,364c <_ZL10_ntoa_longPFvcPvjjEPcjjmbmjjj.constprop.0+0x278>
    349a:	1b447963          	bgeu	s0,s4,364c <_ZL10_ntoa_longPFvcPvjjEPcjjmbmjjj.constprop.0+0x278>
    349e:	8ace                	mv	s5,s3
    34a0:	41340bb3          	sub	s7,s0,s3
    34a4:	8656                	mv	a2,s5
    34a6:	56fd                	li	a3,-1
    34a8:	85ca                	mv	a1,s2
    34aa:	02000513          	li	a0,32
    34ae:	0a85                	add	s5,s5,1
    34b0:	9482                	jalr	s1
    34b2:	015b87b3          	add	a5,s7,s5
    34b6:	ff47e7e3          	bltu	a5,s4,34a4 <_ZL10_ntoa_longPFvcPvjjEPcjjmbmjjj.constprop.0+0xd0>
    34ba:	00140793          	add	a5,s0,1
    34be:	4a81                	li	s5,0
    34c0:	00fa6663          	bltu	s4,a5,34cc <_ZL10_ntoa_longPFvcPvjjEPcjjmbmjjj.constprop.0+0xf8>
    34c4:	fffa0a93          	add	s5,s4,-1
    34c8:	408a8ab3          	sub	s5,s5,s0
    34cc:	00198793          	add	a5,s3,1
    34d0:	9abe                	add	s5,s5,a5
    34d2:	c415                	beqz	s0,34fe <_ZL10_ntoa_longPFvcPvjjEPcjjmbmjjj.constprop.0+0x12a>
    34d4:	d462                	sw	s8,40(sp)
    34d6:	d266                	sw	s9,36(sp)
    34d8:	8b8a                	mv	s7,sp
    34da:	008a8c33          	add	s8,s5,s0
    34de:	018b8cb3          	add	s9,s7,s8
    34e2:	945e                	add	s0,s0,s7
    34e4:	fff44503          	lbu	a0,-1(s0)
    34e8:	408c8633          	sub	a2,s9,s0
    34ec:	56fd                	li	a3,-1
    34ee:	85ca                	mv	a1,s2
    34f0:	147d                	add	s0,s0,-1
    34f2:	8ae2                	mv	s5,s8
    34f4:	9482                	jalr	s1
    34f6:	fe8b97e3          	bne	s7,s0,34e4 <_ZL10_ntoa_longPFvcPvjjEPcjjmbmjjj.constprop.0+0x110>
    34fa:	5c22                	lw	s8,40(sp)
    34fc:	5c92                	lw	s9,36(sp)
    34fe:	020b0063          	beqz	s6,351e <_ZL10_ntoa_longPFvcPvjjEPcjjmbmjjj.constprop.0+0x14a>
    3502:	413a89b3          	sub	s3,s5,s3
    3506:	0149fc63          	bgeu	s3,s4,351e <_ZL10_ntoa_longPFvcPvjjEPcjjmbmjjj.constprop.0+0x14a>
    350a:	8656                	mv	a2,s5
    350c:	56fd                	li	a3,-1
    350e:	85ca                	mv	a1,s2
    3510:	02000513          	li	a0,32
    3514:	0985                	add	s3,s3,1
    3516:	0a85                	add	s5,s5,1
    3518:	9482                	jalr	s1
    351a:	ff49e8e3          	bltu	s3,s4,350a <_ZL10_ntoa_longPFvcPvjjEPcjjmbmjjj.constprop.0+0x136>
    351e:	40b6                	lw	ra,76(sp)
    3520:	4426                	lw	s0,72(sp)
    3522:	4496                	lw	s1,68(sp)
    3524:	4906                	lw	s2,64(sp)
    3526:	59f2                	lw	s3,60(sp)
    3528:	5a62                	lw	s4,56(sp)
    352a:	5b42                	lw	s6,48(sp)
    352c:	5bb2                	lw	s7,44(sp)
    352e:	8556                	mv	a0,s5
    3530:	5ad2                	lw	s5,52(sp)
    3532:	6161                	add	sp,sp,80
    3534:	8082                	ret
    3536:	fef37f13          	and	t5,t1,-17
    353a:	0c0f8863          	beqz	t6,360a <_ZL10_ntoa_longPFvcPvjjEPcjjmbmjjj.constprop.0+0x236>
    353e:	00237413          	and	s0,t1,2
    3542:	14041063          	bnez	s0,3682 <_ZL10_ntoa_longPFvcPvjjEPcjjmbmjjj.constprop.0+0x2ae>
    3546:	4281                	li	t0,0
    3548:	40000f93          	li	t6,1024
    354c:	0c0a1163          	bnez	s4,360e <_ZL10_ntoa_longPFvcPvjjEPcjjmbmjjj.constprop.0+0x23a>
    3550:	05047e63          	bgeu	s0,a6,35ac <_ZL10_ntoa_longPFvcPvjjEPcjjmbmjjj.constprop.0+0x1d8>
    3554:	02000693          	li	a3,32
    3558:	001f7b13          	and	s6,t5,1
    355c:	22d40c63          	beq	s0,a3,3794 <_ZL10_ntoa_longPFvcPvjjEPcjjmbmjjj.constprop.0+0x3c0>
    3560:	860a                	mv	a2,sp
    3562:	03000593          	li	a1,48
    3566:	02000513          	li	a0,32
    356a:	a019                	j	3570 <_ZL10_ntoa_longPFvcPvjjEPcjjmbmjjj.constprop.0+0x19c>
    356c:	0ea40463          	beq	s0,a0,3654 <_ZL10_ntoa_longPFvcPvjjEPcjjmbmjjj.constprop.0+0x280>
    3570:	0405                	add	s0,s0,1
    3572:	008606b3          	add	a3,a2,s0
    3576:	feb68fa3          	sb	a1,-1(a3)
    357a:	ff0469e3          	bltu	s0,a6,356c <_ZL10_ntoa_longPFvcPvjjEPcjjmbmjjj.constprop.0+0x198>
    357e:	ec0b0ce3          	beqz	s6,3456 <_ZL10_ntoa_longPFvcPvjjEPcjjmbmjjj.constprop.0+0x82>
    3582:	03447563          	bgeu	s0,s4,35ac <_ZL10_ntoa_longPFvcPvjjEPcjjmbmjjj.constprop.0+0x1d8>
    3586:	02000693          	li	a3,32
    358a:	860a                	mv	a2,sp
    358c:	03000593          	li	a1,48
    3590:	02000513          	li	a0,32
    3594:	00d41563          	bne	s0,a3,359e <_ZL10_ntoa_longPFvcPvjjEPcjjmbmjjj.constprop.0+0x1ca>
    3598:	a499                	j	37de <_ZL10_ntoa_longPFvcPvjjEPcjjmbmjjj.constprop.0+0x40a>
    359a:	12a40b63          	beq	s0,a0,36d0 <_ZL10_ntoa_longPFvcPvjjEPcjjmbmjjj.constprop.0+0x2fc>
    359e:	0405                	add	s0,s0,1
    35a0:	008606b3          	add	a3,a2,s0
    35a4:	feb68fa3          	sb	a1,-1(a3)
    35a8:	ff4419e3          	bne	s0,s4,359a <_ZL10_ntoa_longPFvcPvjjEPcjjmbmjjj.constprop.0+0x1c6>
    35ac:	4b01                	li	s6,0
    35ae:	003f7313          	and	t1,t5,3
    35b2:	ea0296e3          	bnez	t0,345e <_ZL10_ntoa_longPFvcPvjjEPcjjmbmjjj.constprop.0+0x8a>
    35b6:	a835                	j	35f2 <_ZL10_ntoa_longPFvcPvjjEPcjjmbmjjj.constprop.0+0x21e>
    35b8:	04100513          	li	a0,65
    35bc:	bd89                	j	340e <_ZL10_ntoa_longPFvcPvjjEPcjjmbmjjj.constprop.0+0x3a>
    35be:	0e880863          	beq	a6,s0,36ae <_ZL10_ntoa_longPFvcPvjjEPcjjmbmjjj.constprop.0+0x2da>
    35c2:	0f440663          	beq	s0,s4,36ae <_ZL10_ntoa_longPFvcPvjjEPcjjmbmjjj.constprop.0+0x2da>
    35c6:	46c1                	li	a3,16
    35c8:	003f7313          	and	t1,t5,3
    35cc:	10d78a63          	beq	a5,a3,36e0 <_ZL10_ntoa_longPFvcPvjjEPcjjmbmjjj.constprop.0+0x30c>
    35d0:	4689                	li	a3,2
    35d2:	06d78763          	beq	a5,a3,3640 <_ZL10_ntoa_longPFvcPvjjEPcjjmbmjjj.constprop.0+0x26c>
    35d6:	02000793          	li	a5,32
    35da:	06f40763          	beq	s0,a5,3648 <_ZL10_ntoa_longPFvcPvjjEPcjjmbmjjj.constprop.0+0x274>
    35de:	86a2                	mv	a3,s0
    35e0:	0405                	add	s0,s0,1
    35e2:	02068793          	add	a5,a3,32
    35e6:	002786b3          	add	a3,a5,sp
    35ea:	03000793          	li	a5,48
    35ee:	fef68023          	sb	a5,-32(a3)
    35f2:	02000793          	li	a5,32
    35f6:	0af41a63          	bne	s0,a5,36aa <_ZL10_ntoa_longPFvcPvjjEPcjjmbmjjj.constprop.0+0x2d6>
    35fa:	08030163          	beqz	t1,367c <_ZL10_ntoa_longPFvcPvjjEPcjjmbmjjj.constprop.0+0x2a8>
    35fe:	d462                	sw	s8,40(sp)
    3600:	d266                	sw	s9,36(sp)
    3602:	8ace                	mv	s5,s3
    3604:	02000413          	li	s0,32
    3608:	bdc1                	j	34d8 <_ZL10_ntoa_longPFvcPvjjEPcjjmbmjjj.constprop.0+0x104>
    360a:	4281                	li	t0,0
    360c:	bbd5                	j	3400 <_ZL10_ntoa_longPFvcPvjjEPcjjmbmjjj.constprop.0+0x2c>
    360e:	001f7b13          	and	s6,t5,1
    3612:	040b0d63          	beqz	s6,366c <_ZL10_ntoa_longPFvcPvjjEPcjjmbmjjj.constprop.0+0x298>
    3616:	eb5d                	bnez	a4,36cc <_ZL10_ntoa_longPFvcPvjjEPcjjmbmjjj.constprop.0+0x2f8>
    3618:	00cf7693          	and	a3,t5,12
    361c:	eac5                	bnez	a3,36cc <_ZL10_ntoa_longPFvcPvjjEPcjjmbmjjj.constprop.0+0x2f8>
    361e:	f70472e3          	bgeu	s0,a6,3582 <_ZL10_ntoa_longPFvcPvjjEPcjjmbmjjj.constprop.0+0x1ae>
    3622:	02000693          	li	a3,32
    3626:	f2d41de3          	bne	s0,a3,3560 <_ZL10_ntoa_longPFvcPvjjEPcjjmbmjjj.constprop.0+0x18c>
    362a:	03446963          	bltu	s0,s4,365c <_ZL10_ntoa_longPFvcPvjjEPcjjmbmjjj.constprop.0+0x288>
    362e:	16029763          	bnez	t0,379c <_ZL10_ntoa_longPFvcPvjjEPcjjmbmjjj.constprop.0+0x3c8>
    3632:	d462                	sw	s8,40(sp)
    3634:	d266                	sw	s9,36(sp)
    3636:	4b01                	li	s6,0
    3638:	8ace                	mv	s5,s3
    363a:	02000413          	li	s0,32
    363e:	bd69                	j	34d8 <_ZL10_ntoa_longPFvcPvjjEPcjjmbmjjj.constprop.0+0x104>
    3640:	02000793          	li	a5,32
    3644:	10f41c63          	bne	s0,a5,375c <_ZL10_ntoa_longPFvcPvjjEPcjjmbmjjj.constprop.0+0x388>
    3648:	e40309e3          	beqz	t1,349a <_ZL10_ntoa_longPFvcPvjjEPcjjmbmjjj.constprop.0+0xc6>
    364c:	d462                	sw	s8,40(sp)
    364e:	d266                	sw	s9,36(sp)
    3650:	8ace                	mv	s5,s3
    3652:	b559                	j	34d8 <_ZL10_ntoa_longPFvcPvjjEPcjjmbmjjj.constprop.0+0x104>
    3654:	060b0e63          	beqz	s6,36d0 <_ZL10_ntoa_longPFvcPvjjEPcjjmbmjjj.constprop.0+0x2fc>
    3658:	07447c63          	bgeu	s0,s4,36d0 <_ZL10_ntoa_longPFvcPvjjEPcjjmbmjjj.constprop.0+0x2fc>
    365c:	4b01                	li	s6,0
    365e:	f60294e3          	bnez	t0,35c6 <_ZL10_ntoa_longPFvcPvjjEPcjjmbmjjj.constprop.0+0x1f2>
    3662:	003f7313          	and	t1,t5,3
    3666:	f8031ce3          	bnez	t1,35fe <_ZL10_ntoa_longPFvcPvjjEPcjjmbmjjj.constprop.0+0x22a>
    366a:	a809                	j	367c <_ZL10_ntoa_longPFvcPvjjEPcjjmbmjjj.constprop.0+0x2a8>
    366c:	df0475e3          	bgeu	s0,a6,3456 <_ZL10_ntoa_longPFvcPvjjEPcjjmbmjjj.constprop.0+0x82>
    3670:	02000693          	li	a3,32
    3674:	eed416e3          	bne	s0,a3,3560 <_ZL10_ntoa_longPFvcPvjjEPcjjmbmjjj.constprop.0+0x18c>
    3678:	12029263          	bnez	t0,379c <_ZL10_ntoa_longPFvcPvjjEPcjjmbmjjj.constprop.0+0x3c8>
    367c:	02000413          	li	s0,32
    3680:	bd29                	j	349a <_ZL10_ntoa_longPFvcPvjjEPcjjmbmjjj.constprop.0+0xc6>
    3682:	4b09                	li	s6,2
    3684:	00337313          	and	t1,t1,3
    3688:	de071ee3          	bnez	a4,3484 <_ZL10_ntoa_longPFvcPvjjEPcjjmbmjjj.constprop.0+0xb0>
    368c:	004f7793          	and	a5,t5,4
    3690:	cba5                	beqz	a5,3700 <_ZL10_ntoa_longPFvcPvjjEPcjjmbmjjj.constprop.0+0x32c>
    3692:	02068793          	add	a5,a3,32
    3696:	978a                	add	a5,a5,sp
    3698:	02b00713          	li	a4,43
    369c:	fee78023          	sb	a4,-32(a5)
    36a0:	00168413          	add	s0,a3,1
    36a4:	de030be3          	beqz	t1,349a <_ZL10_ntoa_longPFvcPvjjEPcjjmbmjjj.constprop.0+0xc6>
    36a8:	b755                	j	364c <_ZL10_ntoa_longPFvcPvjjEPcjjmbmjjj.constprop.0+0x278>
    36aa:	86a2                	mv	a3,s0
    36ac:	bbd1                	j	3480 <_ZL10_ntoa_longPFvcPvjjEPcjjmbmjjj.constprop.0+0xac>
    36ae:	fff40693          	add	a3,s0,-1
    36b2:	da068ae3          	beqz	a3,3466 <_ZL10_ntoa_longPFvcPvjjEPcjjmbmjjj.constprop.0+0x92>
    36b6:	4641                	li	a2,16
    36b8:	0ec78a63          	beq	a5,a2,37ac <_ZL10_ntoa_longPFvcPvjjEPcjjmbmjjj.constprop.0+0x3d8>
    36bc:	4609                	li	a2,2
    36be:	08c78c63          	beq	a5,a2,3756 <_ZL10_ntoa_longPFvcPvjjEPcjjmbmjjj.constprop.0+0x382>
    36c2:	00168413          	add	s0,a3,1
    36c6:	003f7313          	and	t1,t5,3
    36ca:	bf21                	j	35e2 <_ZL10_ntoa_longPFvcPvjjEPcjjmbmjjj.constprop.0+0x20e>
    36cc:	1a7d                	add	s4,s4,-1
    36ce:	bf81                	j	361e <_ZL10_ntoa_longPFvcPvjjEPcjjmbmjjj.constprop.0+0x24a>
    36d0:	4b01                	li	s6,0
    36d2:	02000413          	li	s0,32
    36d6:	d80294e3          	bnez	t0,345e <_ZL10_ntoa_longPFvcPvjjEPcjjmbmjjj.constprop.0+0x8a>
    36da:	003f7313          	and	t1,t5,3
    36de:	b761                	j	3666 <_ZL10_ntoa_longPFvcPvjjEPcjjmbmjjj.constprop.0+0x292>
    36e0:	020f7793          	and	a5,t5,32
    36e4:	e7c9                	bnez	a5,376e <_ZL10_ntoa_longPFvcPvjjEPcjjmbmjjj.constprop.0+0x39a>
    36e6:	02000793          	li	a5,32
    36ea:	f4f40fe3          	beq	s0,a5,3648 <_ZL10_ntoa_longPFvcPvjjEPcjjmbmjjj.constprop.0+0x274>
    36ee:	02040793          	add	a5,s0,32
    36f2:	978a                	add	a5,a5,sp
    36f4:	07800693          	li	a3,120
    36f8:	fed78023          	sb	a3,-32(a5)
    36fc:	0405                	add	s0,s0,1
    36fe:	bde1                	j	35d6 <_ZL10_ntoa_longPFvcPvjjEPcjjmbmjjj.constprop.0+0x202>
    3700:	008f7f13          	and	t5,t5,8
    3704:	020f1763          	bnez	t5,3732 <_ZL10_ntoa_longPFvcPvjjEPcjjmbmjjj.constprop.0+0x35e>
    3708:	8436                	mv	s0,a3
    370a:	08031f63          	bnez	t1,37a8 <_ZL10_ntoa_longPFvcPvjjEPcjjmbmjjj.constprop.0+0x3d4>
    370e:	d946e8e3          	bltu	a3,s4,349e <_ZL10_ntoa_longPFvcPvjjEPcjjmbmjjj.constprop.0+0xca>
    3712:	8ace                	mv	s5,s3
    3714:	dc0690e3          	bnez	a3,34d4 <_ZL10_ntoa_longPFvcPvjjEPcjjmbmjjj.constprop.0+0x100>
    3718:	b519                	j	351e <_ZL10_ntoa_longPFvcPvjjEPcjjmbmjjj.constprop.0+0x14a>
    371a:	020f7793          	and	a5,t5,32
    371e:	e795                	bnez	a5,374a <_ZL10_ntoa_longPFvcPvjjEPcjjmbmjjj.constprop.0+0x376>
    3720:	678d                	lui	a5,0x3
    3722:	07878793          	add	a5,a5,120 # 3078 <_Z26osd_display_error_datasloti+0x252>
    3726:	00f11023          	sh	a5,0(sp)
    372a:	4689                	li	a3,2
    372c:	003f7313          	and	t1,t5,3
    3730:	bb81                	j	3480 <_ZL10_ntoa_longPFvcPvjjEPcjjmbmjjj.constprop.0+0xac>
    3732:	02068793          	add	a5,a3,32
    3736:	978a                	add	a5,a5,sp
    3738:	02000713          	li	a4,32
    373c:	fee78023          	sb	a4,-32(a5)
    3740:	00168413          	add	s0,a3,1
    3744:	f00314e3          	bnez	t1,364c <_ZL10_ntoa_longPFvcPvjjEPcjjmbmjjj.constprop.0+0x278>
    3748:	bb89                	j	349a <_ZL10_ntoa_longPFvcPvjjEPcjjmbmjjj.constprop.0+0xc6>
    374a:	678d                	lui	a5,0x3
    374c:	05878793          	add	a5,a5,88 # 3058 <_Z26osd_display_error_datasloti+0x232>
    3750:	00f11023          	sh	a5,0(sp)
    3754:	bfd9                	j	372a <_ZL10_ntoa_longPFvcPvjjEPcjjmbmjjj.constprop.0+0x356>
    3756:	8436                	mv	s0,a3
    3758:	003f7313          	and	t1,t5,3
    375c:	02040793          	add	a5,s0,32
    3760:	978a                	add	a5,a5,sp
    3762:	06200693          	li	a3,98
    3766:	fed78023          	sb	a3,-32(a5)
    376a:	0405                	add	s0,s0,1
    376c:	b5ad                	j	35d6 <_ZL10_ntoa_longPFvcPvjjEPcjjmbmjjj.constprop.0+0x202>
    376e:	02000793          	li	a5,32
    3772:	ecf40be3          	beq	s0,a5,3648 <_ZL10_ntoa_longPFvcPvjjEPcjjmbmjjj.constprop.0+0x274>
    3776:	02040793          	add	a5,s0,32
    377a:	978a                	add	a5,a5,sp
    377c:	05800693          	li	a3,88
    3780:	fed78023          	sb	a3,-32(a5)
    3784:	0405                	add	s0,s0,1
    3786:	bd81                	j	35d6 <_ZL10_ntoa_longPFvcPvjjEPcjjmbmjjj.constprop.0+0x202>
    3788:	678d                	lui	a5,0x3
    378a:	06278793          	add	a5,a5,98 # 3062 <_Z26osd_display_error_datasloti+0x23c>
    378e:	00f11023          	sh	a5,0(sp)
    3792:	bf61                	j	372a <_ZL10_ntoa_longPFvcPvjjEPcjjmbmjjj.constprop.0+0x356>
    3794:	e80b1de3          	bnez	s6,362e <_ZL10_ntoa_longPFvcPvjjEPcjjmbmjjj.constprop.0+0x25a>
    3798:	ea028ae3          	beqz	t0,364c <_ZL10_ntoa_longPFvcPvjjEPcjjmbmjjj.constprop.0+0x278>
    379c:	040f8b63          	beqz	t6,37f2 <_ZL10_ntoa_longPFvcPvjjEPcjjmbmjjj.constprop.0+0x41e>
    37a0:	4b01                	li	s6,0
    37a2:	02000413          	li	s0,32
    37a6:	b505                	j	35c6 <_ZL10_ntoa_longPFvcPvjjEPcjjmbmjjj.constprop.0+0x1f2>
    37a8:	8ace                	mv	s5,s3
    37aa:	b325                	j	34d2 <_ZL10_ntoa_longPFvcPvjjEPcjjmbmjjj.constprop.0+0xfe>
    37ac:	02040793          	add	a5,s0,32
    37b0:	978a                	add	a5,a5,sp
    37b2:	020f7693          	and	a3,t5,32
    37b6:	fde78793          	add	a5,a5,-34
    37ba:	ea91                	bnez	a3,37ce <_ZL10_ntoa_longPFvcPvjjEPcjjmbmjjj.constprop.0+0x3fa>
    37bc:	07800613          	li	a2,120
    37c0:	fff40693          	add	a3,s0,-1
    37c4:	00c78023          	sb	a2,0(a5)
    37c8:	003f7313          	and	t1,t5,3
    37cc:	bd19                	j	35e2 <_ZL10_ntoa_longPFvcPvjjEPcjjmbmjjj.constprop.0+0x20e>
    37ce:	05800693          	li	a3,88
    37d2:	147d                	add	s0,s0,-1
    37d4:	00d78023          	sb	a3,0(a5)
    37d8:	003f7313          	and	t1,t5,3
    37dc:	b509                	j	35de <_ZL10_ntoa_longPFvcPvjjEPcjjmbmjjj.constprop.0+0x20a>
    37de:	02028a63          	beqz	t0,3812 <_ZL10_ntoa_longPFvcPvjjEPcjjmbmjjj.constprop.0+0x43e>
    37e2:	000f9663          	bnez	t6,37ee <_ZL10_ntoa_longPFvcPvjjEPcjjmbmjjj.constprop.0+0x41a>
    37e6:	02880063          	beq	a6,s0,3806 <_ZL10_ntoa_longPFvcPvjjEPcjjmbmjjj.constprop.0+0x432>
    37ea:	008a0e63          	beq	s4,s0,3806 <_ZL10_ntoa_longPFvcPvjjEPcjjmbmjjj.constprop.0+0x432>
    37ee:	4b01                	li	s6,0
    37f0:	bbd9                	j	35c6 <_ZL10_ntoa_longPFvcPvjjEPcjjmbmjjj.constprop.0+0x1f2>
    37f2:	02000693          	li	a3,32
    37f6:	02000413          	li	s0,32
    37fa:	00d80963          	beq	a6,a3,380c <_ZL10_ntoa_longPFvcPvjjEPcjjmbmjjj.constprop.0+0x438>
    37fe:	4b01                	li	s6,0
    3800:	dd4413e3          	bne	s0,s4,35c6 <_ZL10_ntoa_longPFvcPvjjEPcjjmbmjjj.constprop.0+0x1f2>
    3804:	b56d                	j	36ae <_ZL10_ntoa_longPFvcPvjjEPcjjmbmjjj.constprop.0+0x2da>
    3806:	4b01                	li	s6,0
    3808:	46fd                	li	a3,31
    380a:	b575                	j	36b6 <_ZL10_ntoa_longPFvcPvjjEPcjjmbmjjj.constprop.0+0x2e2>
    380c:	46fd                	li	a3,31
    380e:	4b01                	li	s6,0
    3810:	b55d                	j	36b6 <_ZL10_ntoa_longPFvcPvjjEPcjjmbmjjj.constprop.0+0x2e2>
    3812:	4b01                	li	s6,0
    3814:	003f7313          	and	t1,t5,3
    3818:	b5b9                	j	3666 <_ZL10_ntoa_longPFvcPvjjEPcjjmbmjjj.constprop.0+0x292>

0000381a <riscprintf_>:
    381a:	7175                	add	sp,sp,-144
    381c:	d4a2                	sw	s0,104(sp)
    381e:	c6de                	sw	s7,76(sp)
    3820:	daae                	sw	a1,116(sp)
    3822:	dcb2                	sw	a2,120(sp)
    3824:	deb6                	sw	a3,124(sp)
    3826:	c13a                	sw	a4,128(sp)
    3828:	c33e                	sw	a5,132(sp)
    382a:	c542                	sw	a6,136(sp)
    382c:	c746                	sw	a7,140(sp)
    382e:	d686                	sw	ra,108(sp)
    3830:	d0ca                	sw	s2,96(sp)
    3832:	8baa                	mv	s7,a0
    3834:	00054503          	lbu	a0,0(a0)
    3838:	f0802783          	lw	a5,-248(zero) # ffffff08 <_end+0xffff5548>
    383c:	18c0                	add	s0,sp,116
    383e:	d622                	sw	s0,44(sp)
    3840:	46050d63          	beqz	a0,3cba <riscprintf_+0x4a0>
    3844:	001217b7          	lui	a5,0x121
    3848:	cece                	sw	s3,92(sp)
    384a:	82178793          	add	a5,a5,-2015 # 120821 <_end+0x115e61>
    384e:	6995                	lui	s3,0x5
    3850:	d2a6                	sw	s1,100(sp)
    3852:	ccd2                	sw	s4,88(sp)
    3854:	cad6                	sw	s5,84(sp)
    3856:	de6e                	sw	s11,60(sp)
    3858:	c8da                	sw	s6,80(sp)
    385a:	c4e2                	sw	s8,72(sp)
    385c:	c0ea                	sw	s10,64(sp)
    385e:	4d81                	li	s11,0
    3860:	02810913          	add	s2,sp,40
    3864:	02500a93          	li	s5,37
    3868:	44c1                	li	s1,16
    386a:	78898993          	add	s3,s3,1928 # 5788 <stream_vscanf+0x114c>
    386e:	4a25                	li	s4,9
    3870:	ca3e                	sw	a5,20(sp)
    3872:	a819                	j	3888 <riscprintf_+0x6e>
    3874:	866e                	mv	a2,s11
    3876:	56fd                	li	a3,-1
    3878:	85ca                	mv	a1,s2
    387a:	0d85                	add	s11,s11,1
    387c:	b51ff0ef          	jal	33cc <_ZL9_out_charcPvjj>
    3880:	000bc503          	lbu	a0,0(s7)
    3884:	14050063          	beqz	a0,39c4 <riscprintf_+0x1aa>
    3888:	0b85                	add	s7,s7,1
    388a:	ff5515e3          	bne	a0,s5,3874 <riscprintf_+0x5a>
    388e:	4601                	li	a2,0
    3890:	000bc503          	lbu	a0,0(s7)
    3894:	001b8713          	add	a4,s7,1
    3898:	fe050793          	add	a5,a0,-32
    389c:	0ff7f793          	zext.b	a5,a5
    38a0:	00f4e663          	bltu	s1,a5,38ac <riscprintf_+0x92>
    38a4:	078a                	sll	a5,a5,0x2
    38a6:	97ce                	add	a5,a5,s3
    38a8:	439c                	lw	a5,0(a5)
    38aa:	8782                	jr	a5
    38ac:	fd050793          	add	a5,a0,-48
    38b0:	0ff7f793          	zext.b	a5,a5
    38b4:	06fa7463          	bgeu	s4,a5,391c <riscprintf_+0x102>
    38b8:	02a00793          	li	a5,42
    38bc:	4b01                	li	s6,0
    38be:	14f50363          	beq	a0,a5,3a04 <riscprintf_+0x1ea>
    38c2:	02e00793          	li	a5,46
    38c6:	4d01                	li	s10,0
    38c8:	08f50163          	beq	a0,a5,394a <riscprintf_+0x130>
    38cc:	06c00793          	li	a5,108
    38d0:	86ba                	mv	a3,a4
    38d2:	0af50363          	beq	a0,a5,3978 <riscprintf_+0x15e>
    38d6:	12a7e063          	bltu	a5,a0,39f6 <riscprintf_+0x1dc>
    38da:	06800793          	li	a5,104
    38de:	1af50463          	beq	a0,a5,3a86 <riscprintf_+0x26c>
    38e2:	06a00793          	li	a5,106
    38e6:	18f51563          	bne	a0,a5,3a70 <riscprintf_+0x256>
    38ea:	001bc503          	lbu	a0,1(s7)
    38ee:	20066613          	or	a2,a2,512
    38f2:	a849                	j	3984 <riscprintf_+0x16a>
    38f4:	00166613          	or	a2,a2,1
    38f8:	8bba                	mv	s7,a4
    38fa:	bf59                	j	3890 <riscprintf_+0x76>
    38fc:	00266613          	or	a2,a2,2
    3900:	8bba                	mv	s7,a4
    3902:	b779                	j	3890 <riscprintf_+0x76>
    3904:	00466613          	or	a2,a2,4
    3908:	8bba                	mv	s7,a4
    390a:	b759                	j	3890 <riscprintf_+0x76>
    390c:	01066613          	or	a2,a2,16
    3910:	8bba                	mv	s7,a4
    3912:	bfbd                	j	3890 <riscprintf_+0x76>
    3914:	00866613          	or	a2,a2,8
    3918:	8bba                	mv	s7,a4
    391a:	bf9d                	j	3890 <riscprintf_+0x76>
    391c:	4b01                	li	s6,0
    391e:	002b1793          	sll	a5,s6,0x2
    3922:	97da                	add	a5,a5,s6
    3924:	0786                	sll	a5,a5,0x1
    3926:	97aa                	add	a5,a5,a0
    3928:	00074503          	lbu	a0,0(a4)
    392c:	fd078b13          	add	s6,a5,-48
    3930:	8bba                	mv	s7,a4
    3932:	fd050793          	add	a5,a0,-48
    3936:	0ff7f793          	zext.b	a5,a5
    393a:	0705                	add	a4,a4,1
    393c:	fefa71e3          	bgeu	s4,a5,391e <riscprintf_+0x104>
    3940:	02e00793          	li	a5,46
    3944:	4d01                	li	s10,0
    3946:	f8f513e3          	bne	a0,a5,38cc <riscprintf_+0xb2>
    394a:	001bc503          	lbu	a0,1(s7)
    394e:	45a5                	li	a1,9
    3950:	86ba                	mv	a3,a4
    3952:	fd050793          	add	a5,a0,-48
    3956:	0ff7f793          	zext.b	a5,a5
    395a:	40066613          	or	a2,a2,1024
    395e:	26f5f863          	bgeu	a1,a5,3bce <riscprintf_+0x3b4>
    3962:	02a00793          	li	a5,42
    3966:	28f50e63          	beq	a0,a5,3c02 <riscprintf_+0x3e8>
    396a:	8bba                	mv	s7,a4
    396c:	06c00793          	li	a5,108
    3970:	0705                	add	a4,a4,1
    3972:	86ba                	mv	a3,a4
    3974:	f6f511e3          	bne	a0,a5,38d6 <riscprintf_+0xbc>
    3978:	001bc503          	lbu	a0,1(s7)
    397c:	2af50163          	beq	a0,a5,3c1e <riscprintf_+0x404>
    3980:	10066613          	or	a2,a2,256
    3984:	07800793          	li	a5,120
    3988:	00168b93          	add	s7,a3,1
    398c:	eea7e4e3          	bltu	a5,a0,3874 <riscprintf_+0x5a>
    3990:	06300793          	li	a5,99
    3994:	08a7e963          	bltu	a5,a0,3a26 <riscprintf_+0x20c>
    3998:	06200713          	li	a4,98
    399c:	3ae50363          	beq	a0,a4,3d42 <riscprintf_+0x528>
    39a0:	16f50c63          	beq	a0,a5,3b18 <riscprintf_+0x2fe>
    39a4:	02500793          	li	a5,37
    39a8:	30f51163          	bne	a0,a5,3caa <riscprintf_+0x490>
    39ac:	866e                	mv	a2,s11
    39ae:	02500513          	li	a0,37
    39b2:	56fd                	li	a3,-1
    39b4:	85ca                	mv	a1,s2
    39b6:	a17ff0ef          	jal	33cc <_ZL9_out_charcPvjj>
    39ba:	000bc503          	lbu	a0,0(s7)
    39be:	0d85                	add	s11,s11,1
    39c0:	ec0514e3          	bnez	a0,3888 <riscprintf_+0x6e>
    39c4:	57f9                	li	a5,-2
    39c6:	846e                	mv	s0,s11
    39c8:	866e                	mv	a2,s11
    39ca:	05b7e763          	bltu	a5,s11,3a18 <riscprintf_+0x1fe>
    39ce:	5496                	lw	s1,100(sp)
    39d0:	49f6                	lw	s3,92(sp)
    39d2:	4a66                	lw	s4,88(sp)
    39d4:	4ad6                	lw	s5,84(sp)
    39d6:	4b46                	lw	s6,80(sp)
    39d8:	4c26                	lw	s8,72(sp)
    39da:	4d06                	lw	s10,64(sp)
    39dc:	5df2                	lw	s11,60(sp)
    39de:	85ca                	mv	a1,s2
    39e0:	4501                	li	a0,0
    39e2:	56fd                	li	a3,-1
    39e4:	9e9ff0ef          	jal	33cc <_ZL9_out_charcPvjj>
    39e8:	50b6                	lw	ra,108(sp)
    39ea:	8522                	mv	a0,s0
    39ec:	5426                	lw	s0,104(sp)
    39ee:	5906                	lw	s2,96(sp)
    39f0:	4bb6                	lw	s7,76(sp)
    39f2:	6149                	add	sp,sp,144
    39f4:	8082                	ret
    39f6:	07a00793          	li	a5,122
    39fa:	02f51163          	bne	a0,a5,3a1c <riscprintf_+0x202>
    39fe:	001bc503          	lbu	a0,1(s7)
    3a02:	bfbd                	j	3980 <riscprintf_+0x166>
    3a04:	00042b03          	lw	s6,0(s0)
    3a08:	0411                	add	s0,s0,4
    3a0a:	060b4563          	bltz	s6,3a74 <riscprintf_+0x25a>
    3a0e:	001bc503          	lbu	a0,1(s7)
    3a12:	8bba                	mv	s7,a4
    3a14:	0705                	add	a4,a4,1
    3a16:	b575                	j	38c2 <riscprintf_+0xa8>
    3a18:	5679                	li	a2,-2
    3a1a:	bf55                	j	39ce <riscprintf_+0x1b4>
    3a1c:	07800793          	li	a5,120
    3a20:	8bba                	mv	s7,a4
    3a22:	e4a7e9e3          	bltu	a5,a0,3874 <riscprintf_+0x5a>
    3a26:	f9c50793          	add	a5,a0,-100
    3a2a:	4c05                	li	s8,1
    3a2c:	00fc1c33          	sll	s8,s8,a5
    3a30:	47d2                	lw	a5,20(sp)
    3a32:	00fc77b3          	and	a5,s8,a5
    3a36:	c83e                	sw	a5,16(sp)
    3a38:	12079063          	bnez	a5,3b58 <riscprintf_+0x33e>
    3a3c:	07300793          	li	a5,115
    3a40:	04f50a63          	beq	a0,a5,3a94 <riscprintf_+0x27a>
    3a44:	07000793          	li	a5,112
    3a48:	e2f516e3          	bne	a0,a5,3874 <riscprintf_+0x5a>
    3a4c:	4014                	lw	a3,0(s0)
    3a4e:	02166613          	or	a2,a2,33
    3a52:	650d                	lui	a0,0x3
    3a54:	c032                	sw	a2,0(sp)
    3a56:	48a1                	li	a7,8
    3a58:	866e                	mv	a2,s11
    3a5a:	886a                	mv	a6,s10
    3a5c:	47c1                	li	a5,16
    3a5e:	4701                	li	a4,0
    3a60:	85ca                	mv	a1,s2
    3a62:	3cc50513          	add	a0,a0,972 # 33cc <_ZL9_out_charcPvjj>
    3a66:	96fff0ef          	jal	33d4 <_ZL10_ntoa_longPFvcPvjjEPcjjmbmjjj.constprop.0>
    3a6a:	0411                	add	s0,s0,4
    3a6c:	8daa                	mv	s11,a0
    3a6e:	bd09                	j	3880 <riscprintf_+0x66>
    3a70:	8bba                	mv	s7,a4
    3a72:	bf39                	j	3990 <riscprintf_+0x176>
    3a74:	001bc503          	lbu	a0,1(s7)
    3a78:	00266613          	or	a2,a2,2
    3a7c:	8bba                	mv	s7,a4
    3a7e:	41600b33          	neg	s6,s6
    3a82:	0705                	add	a4,a4,1
    3a84:	bd3d                	j	38c2 <riscprintf_+0xa8>
    3a86:	001bc503          	lbu	a0,1(s7)
    3a8a:	20f50963          	beq	a0,a5,3c9c <riscprintf_+0x482>
    3a8e:	08066613          	or	a2,a2,128
    3a92:	bdcd                	j	3984 <riscprintf_+0x16a>
    3a94:	c2e6                	sw	s9,68(sp)
    3a96:	00042c83          	lw	s9,0(s0)
    3a9a:	00440793          	add	a5,s0,4
    3a9e:	cc3e                	sw	a5,24(sp)
    3aa0:	000cc683          	lbu	a3,0(s9)
    3aa4:	8536                	mv	a0,a3
    3aa6:	140d1963          	bnez	s10,3bf8 <riscprintf_+0x3de>
    3aaa:	5779                	li	a4,-2
    3aac:	ce91                	beqz	a3,3ac8 <riscprintf_+0x2ae>
    3aae:	0705                	add	a4,a4,1
    3ab0:	9766                	add	a4,a4,s9
    3ab2:	8c66                	mv	s8,s9
    3ab4:	a019                	j	3aba <riscprintf_+0x2a0>
    3ab6:	1d870f63          	beq	a4,s8,3c94 <riscprintf_+0x47a>
    3aba:	001c4783          	lbu	a5,1(s8)
    3abe:	0c05                	add	s8,s8,1
    3ac0:	fbfd                	bnez	a5,3ab6 <riscprintf_+0x29c>
    3ac2:	419c07b3          	sub	a5,s8,s9
    3ac6:	c83e                	sw	a5,16(sp)
    3ac8:	40067413          	and	s0,a2,1024
    3acc:	c409                	beqz	s0,3ad6 <riscprintf_+0x2bc>
    3ace:	47c2                	lw	a5,16(sp)
    3ad0:	00fd7363          	bgeu	s10,a5,3ad6 <riscprintf_+0x2bc>
    3ad4:	c86a                	sw	s10,16(sp)
    3ad6:	00267793          	and	a5,a2,2
    3ada:	ce3e                	sw	a5,28(sp)
    3adc:	1e078463          	beqz	a5,3cc4 <riscprintf_+0x4aa>
    3ae0:	18068863          	beqz	a3,3c70 <riscprintf_+0x456>
    3ae4:	8c6e                	mv	s8,s11
    3ae6:	c411                	beqz	s0,3af2 <riscprintf_+0x2d8>
    3ae8:	fffd0793          	add	a5,s10,-1
    3aec:	000d0f63          	beqz	s10,3b0a <riscprintf_+0x2f0>
    3af0:	8d3e                	mv	s10,a5
    3af2:	8662                	mv	a2,s8
    3af4:	56fd                	li	a3,-1
    3af6:	85ca                	mv	a1,s2
    3af8:	8d5ff0ef          	jal	33cc <_ZL9_out_charcPvjj>
    3afc:	0c05                	add	s8,s8,1
    3afe:	41bc0733          	sub	a4,s8,s11
    3b02:	9766                	add	a4,a4,s9
    3b04:	00074503          	lbu	a0,0(a4)
    3b08:	fd79                	bnez	a0,3ae6 <riscprintf_+0x2cc>
    3b0a:	47f2                	lw	a5,28(sp)
    3b0c:	16079163          	bnez	a5,3c6e <riscprintf_+0x454>
    3b10:	4462                	lw	s0,24(sp)
    3b12:	4c96                	lw	s9,68(sp)
    3b14:	8de2                	mv	s11,s8
    3b16:	b3ad                	j	3880 <riscprintf_+0x66>
    3b18:	c2e6                	sw	s9,68(sp)
    3b1a:	8a09                	and	a2,a2,2
    3b1c:	001d8c13          	add	s8,s11,1
    3b20:	00440c93          	add	s9,s0,4
    3b24:	1c060b63          	beqz	a2,3cfa <riscprintf_+0x4e0>
    3b28:	00044503          	lbu	a0,0(s0)
    3b2c:	866e                	mv	a2,s11
    3b2e:	56fd                	li	a3,-1
    3b30:	85ca                	mv	a1,s2
    3b32:	89bff0ef          	jal	33cc <_ZL9_out_charcPvjj>
    3b36:	4785                	li	a5,1
    3b38:	9dda                	add	s11,s11,s6
    3b3a:	2367f463          	bgeu	a5,s6,3d62 <riscprintf_+0x548>
    3b3e:	8662                	mv	a2,s8
    3b40:	56fd                	li	a3,-1
    3b42:	0c05                	add	s8,s8,1
    3b44:	85ca                	mv	a1,s2
    3b46:	02000513          	li	a0,32
    3b4a:	883ff0ef          	jal	33cc <_ZL9_out_charcPvjj>
    3b4e:	ffbc18e3          	bne	s8,s11,3b3e <riscprintf_+0x324>
    3b52:	8466                	mv	s0,s9
    3b54:	4c96                	lw	s9,68(sp)
    3b56:	b32d                	j	3880 <riscprintf_+0x66>
    3b58:	06f00793          	li	a5,111
    3b5c:	0cf50863          	beq	a0,a5,3c2c <riscprintf_+0x412>
    3b60:	1ca7e963          	bltu	a5,a0,3d32 <riscprintf_+0x518>
    3b64:	06900713          	li	a4,105
    3b68:	fef67793          	and	a5,a2,-17
    3b6c:	22e51763          	bne	a0,a4,3d9a <riscprintf_+0x580>
    3b70:	40067713          	and	a4,a2,1024
    3b74:	c319                	beqz	a4,3b7a <riscprintf_+0x360>
    3b76:	fee67793          	and	a5,a2,-18
    3b7a:	2007f713          	and	a4,a5,512
    3b7e:	d00711e3          	bnez	a4,3880 <riscprintf_+0x66>
    3b82:	1007f713          	and	a4,a5,256
    3b86:	00440c13          	add	s8,s0,4
    3b8a:	1e071063          	bnez	a4,3d6a <riscprintf_+0x550>
    3b8e:	0407f713          	and	a4,a5,64
    3b92:	1a071a63          	bnez	a4,3d46 <riscprintf_+0x52c>
    3b96:	0807f713          	and	a4,a5,128
    3b9a:	1e070563          	beqz	a4,3d84 <riscprintf_+0x56a>
    3b9e:	00041703          	lh	a4,0(s0)
    3ba2:	40f75613          	sra	a2,a4,0xf
    3ba6:	00c746b3          	xor	a3,a4,a2
    3baa:	8e91                	sub	a3,a3,a2
    3bac:	06c2                	sll	a3,a3,0x10
    3bae:	82c1                	srl	a3,a3,0x10
    3bb0:	c03e                	sw	a5,0(sp)
    3bb2:	88da                	mv	a7,s6
    3bb4:	886a                	mv	a6,s10
    3bb6:	47a9                	li	a5,10
    3bb8:	837d                	srl	a4,a4,0x1f
    3bba:	650d                	lui	a0,0x3
    3bbc:	866e                	mv	a2,s11
    3bbe:	85ca                	mv	a1,s2
    3bc0:	3cc50513          	add	a0,a0,972 # 33cc <_ZL9_out_charcPvjj>
    3bc4:	811ff0ef          	jal	33d4 <_ZL10_ntoa_longPFvcPvjjEPcjjmbmjjj.constprop.0>
    3bc8:	8daa                	mv	s11,a0
    3bca:	8462                	mv	s0,s8
    3bcc:	b955                	j	3880 <riscprintf_+0x66>
    3bce:	4725                	li	a4,9
    3bd0:	002d1793          	sll	a5,s10,0x2
    3bd4:	97ea                	add	a5,a5,s10
    3bd6:	0685                	add	a3,a3,1
    3bd8:	0786                	sll	a5,a5,0x1
    3bda:	97aa                	add	a5,a5,a0
    3bdc:	0006c503          	lbu	a0,0(a3)
    3be0:	fd078d13          	add	s10,a5,-48
    3be4:	fd050793          	add	a5,a0,-48
    3be8:	0ff7f793          	zext.b	a5,a5
    3bec:	fef772e3          	bgeu	a4,a5,3bd0 <riscprintf_+0x3b6>
    3bf0:	8bb6                	mv	s7,a3
    3bf2:	00168713          	add	a4,a3,1
    3bf6:	b9d9                	j	38cc <riscprintf_+0xb2>
    3bf8:	ec0688e3          	beqz	a3,3ac8 <riscprintf_+0x2ae>
    3bfc:	fffd0713          	add	a4,s10,-1
    3c00:	b57d                	j	3aae <riscprintf_+0x294>
    3c02:	00042d03          	lw	s10,0(s0)
    3c06:	002bc503          	lbu	a0,2(s7)
    3c0a:	0b89                	add	s7,s7,2
    3c0c:	fffd4793          	not	a5,s10
    3c10:	87fd                	sra	a5,a5,0x1f
    3c12:	00fd7d33          	and	s10,s10,a5
    3c16:	0411                	add	s0,s0,4
    3c18:	001b8713          	add	a4,s7,1
    3c1c:	b945                	j	38cc <riscprintf_+0xb2>
    3c1e:	002bc503          	lbu	a0,2(s7)
    3c22:	30066613          	or	a2,a2,768
    3c26:	002b8693          	add	a3,s7,2
    3c2a:	bba9                	j	3984 <riscprintf_+0x16a>
    3c2c:	47a1                	li	a5,8
    3c2e:	40067693          	and	a3,a2,1024
    3c32:	ff367713          	and	a4,a2,-13
    3c36:	c299                	beqz	a3,3c3c <riscprintf_+0x422>
    3c38:	ff267713          	and	a4,a2,-14
    3c3c:	20077693          	and	a3,a4,512
    3c40:	c40690e3          	bnez	a3,3880 <riscprintf_+0x66>
    3c44:	10077693          	and	a3,a4,256
    3c48:	00440c13          	add	s8,s0,4
    3c4c:	10069d63          	bnez	a3,3d66 <riscprintf_+0x54c>
    3c50:	04077693          	and	a3,a4,64
    3c54:	0e069d63          	bnez	a3,3d4e <riscprintf_+0x534>
    3c58:	08077693          	and	a3,a4,128
    3c5c:	10068563          	beqz	a3,3d66 <riscprintf_+0x54c>
    3c60:	00045683          	lhu	a3,0(s0)
    3c64:	c03a                	sw	a4,0(sp)
    3c66:	88da                	mv	a7,s6
    3c68:	886a                	mv	a6,s10
    3c6a:	4701                	li	a4,0
    3c6c:	b7b9                	j	3bba <riscprintf_+0x3a0>
    3c6e:	8de2                	mv	s11,s8
    3c70:	4742                	lw	a4,16(sp)
    3c72:	09677263          	bgeu	a4,s6,3cf6 <riscprintf_+0x4dc>
    3c76:	01bb07b3          	add	a5,s6,s11
    3c7a:	40e78c33          	sub	s8,a5,a4
    3c7e:	866e                	mv	a2,s11
    3c80:	56fd                	li	a3,-1
    3c82:	0d85                	add	s11,s11,1
    3c84:	85ca                	mv	a1,s2
    3c86:	02000513          	li	a0,32
    3c8a:	f42ff0ef          	jal	33cc <_ZL9_out_charcPvjj>
    3c8e:	ffbc18e3          	bne	s8,s11,3c7e <riscprintf_+0x464>
    3c92:	bdbd                	j	3b10 <riscprintf_+0x2f6>
    3c94:	419707b3          	sub	a5,a4,s9
    3c98:	c83e                	sw	a5,16(sp)
    3c9a:	b53d                	j	3ac8 <riscprintf_+0x2ae>
    3c9c:	002bc503          	lbu	a0,2(s7)
    3ca0:	0c066613          	or	a2,a2,192
    3ca4:	002b8693          	add	a3,s7,2
    3ca8:	b9f1                	j	3984 <riscprintf_+0x16a>
    3caa:	05800793          	li	a5,88
    3cae:	bcf513e3          	bne	a0,a5,3874 <riscprintf_+0x5a>
    3cb2:	02066613          	or	a2,a2,32
    3cb6:	47c1                	li	a5,16
    3cb8:	bf9d                	j	3c2e <riscprintf_+0x414>
    3cba:	4601                	li	a2,0
    3cbc:	4401                	li	s0,0
    3cbe:	02810913          	add	s2,sp,40
    3cc2:	bb31                	j	39de <riscprintf_+0x1c4>
    3cc4:	4742                	lw	a4,16(sp)
    3cc6:	0d677663          	bgeu	a4,s6,3d92 <riscprintf_+0x578>
    3cca:	01bb07b3          	add	a5,s6,s11
    3cce:	40e78c33          	sub	s8,a5,a4
    3cd2:	866e                	mv	a2,s11
    3cd4:	56fd                	li	a3,-1
    3cd6:	0d85                	add	s11,s11,1
    3cd8:	85ca                	mv	a1,s2
    3cda:	02000513          	li	a0,32
    3cde:	eeeff0ef          	jal	33cc <_ZL9_out_charcPvjj>
    3ce2:	ffbc18e3          	bne	s8,s11,3cd2 <riscprintf_+0x4b8>
    3ce6:	000cc683          	lbu	a3,0(s9)
    3cea:	001b0793          	add	a5,s6,1
    3cee:	c83e                	sw	a5,16(sp)
    3cf0:	8536                	mv	a0,a3
    3cf2:	de0699e3          	bnez	a3,3ae4 <riscprintf_+0x2ca>
    3cf6:	8c6e                	mv	s8,s11
    3cf8:	bd21                	j	3b10 <riscprintf_+0x2f6>
    3cfa:	4785                	li	a5,1
    3cfc:	0567fc63          	bgeu	a5,s6,3d54 <riscprintf_+0x53a>
    3d00:	fffd8c13          	add	s8,s11,-1
    3d04:	9c5a                	add	s8,s8,s6
    3d06:	8d6e                	mv	s10,s11
    3d08:	866a                	mv	a2,s10
    3d0a:	56fd                	li	a3,-1
    3d0c:	0d05                	add	s10,s10,1
    3d0e:	85ca                	mv	a1,s2
    3d10:	02000513          	li	a0,32
    3d14:	eb8ff0ef          	jal	33cc <_ZL9_out_charcPvjj>
    3d18:	ffac18e3          	bne	s8,s10,3d08 <riscprintf_+0x4ee>
    3d1c:	00044503          	lbu	a0,0(s0)
    3d20:	56fd                	li	a3,-1
    3d22:	8662                	mv	a2,s8
    3d24:	85ca                	mv	a1,s2
    3d26:	ea6ff0ef          	jal	33cc <_ZL9_out_charcPvjj>
    3d2a:	8466                	mv	s0,s9
    3d2c:	9dda                	add	s11,s11,s6
    3d2e:	4c96                	lw	s9,68(sp)
    3d30:	be81                	j	3880 <riscprintf_+0x66>
    3d32:	07800713          	li	a4,120
    3d36:	47c1                	li	a5,16
    3d38:	eee50be3          	beq	a0,a4,3c2e <riscprintf_+0x414>
    3d3c:	9a3d                	and	a2,a2,-17
    3d3e:	47a9                	li	a5,10
    3d40:	b5fd                	j	3c2e <riscprintf_+0x414>
    3d42:	4789                	li	a5,2
    3d44:	b5ed                	j	3c2e <riscprintf_+0x414>
    3d46:	00044703          	lbu	a4,0(s0)
    3d4a:	86ba                	mv	a3,a4
    3d4c:	b595                	j	3bb0 <riscprintf_+0x396>
    3d4e:	00044683          	lbu	a3,0(s0)
    3d52:	bf09                	j	3c64 <riscprintf_+0x44a>
    3d54:	00044503          	lbu	a0,0(s0)
    3d58:	56fd                	li	a3,-1
    3d5a:	866e                	mv	a2,s11
    3d5c:	85ca                	mv	a1,s2
    3d5e:	e6eff0ef          	jal	33cc <_ZL9_out_charcPvjj>
    3d62:	8de2                	mv	s11,s8
    3d64:	b3fd                	j	3b52 <riscprintf_+0x338>
    3d66:	4014                	lw	a3,0(s0)
    3d68:	bdf5                	j	3c64 <riscprintf_+0x44a>
    3d6a:	4018                	lw	a4,0(s0)
    3d6c:	88da                	mv	a7,s6
    3d6e:	c03e                	sw	a5,0(sp)
    3d70:	41f75693          	sra	a3,a4,0x1f
    3d74:	00e6c633          	xor	a2,a3,a4
    3d78:	886a                	mv	a6,s10
    3d7a:	47a9                	li	a5,10
    3d7c:	837d                	srl	a4,a4,0x1f
    3d7e:	40d606b3          	sub	a3,a2,a3
    3d82:	bd25                	j	3bba <riscprintf_+0x3a0>
    3d84:	4018                	lw	a4,0(s0)
    3d86:	41f75613          	sra	a2,a4,0x1f
    3d8a:	00e646b3          	xor	a3,a2,a4
    3d8e:	8e91                	sub	a3,a3,a2
    3d90:	b505                	j	3bb0 <riscprintf_+0x396>
    3d92:	47c2                	lw	a5,16(sp)
    3d94:	0785                	add	a5,a5,1
    3d96:	c83e                	sw	a5,16(sp)
    3d98:	bfa1                	j	3cf0 <riscprintf_+0x4d6>
    3d9a:	06400713          	li	a4,100
    3d9e:	dce509e3          	beq	a0,a4,3b70 <riscprintf_+0x356>
    3da2:	863e                	mv	a2,a5
    3da4:	47a9                	li	a5,10
    3da6:	b561                	j	3c2e <riscprintf_+0x414>

00003da8 <riscprintff_>:
    3da8:	1101                	add	sp,sp,-32
    3daa:	c22e                	sw	a1,4(sp)
    3dac:	c432                	sw	a2,8(sp)
    3dae:	c636                	sw	a3,12(sp)
    3db0:	c83a                	sw	a4,16(sp)
    3db2:	ca3e                	sw	a5,20(sp)
    3db4:	cc42                	sw	a6,24(sp)
    3db6:	ce46                	sw	a7,28(sp)
    3db8:	4501                	li	a0,0
    3dba:	6105                	add	sp,sp,32
    3dbc:	8082                	ret

00003dbe <_Z10ResetTimerv>:
    3dbe:	4785                	li	a5,1
    3dc0:	fcf02223          	sw	a5,-60(zero) # ffffffc4 <_end+0xffff5604>
    3dc4:	06500793          	li	a5,101
    3dc8:	17fd                	add	a5,a5,-1
    3dca:	fffd                	bnez	a5,3dc8 <_Z10ResetTimerv+0xa>
    3dcc:	fc002223          	sw	zero,-60(zero) # ffffffc4 <_end+0xffff5604>
    3dd0:	8082                	ret

00003dd2 <_Z8SetTimerv>:
    3dd2:	67c9                	lui	a5,0x12
    3dd4:	1a678793          	add	a5,a5,422 # 121a6 <_end+0x77e6>
    3dd8:	f8f02c23          	sw	a5,-104(zero) # ffffff98 <_end+0xffff55d8>
    3ddc:	8082                	ret

00003dde <_Z10riscusleepi>:
    3dde:	00a05663          	blez	a0,3dea <_Z10riscusleepi+0xc>
    3de2:	4781                	li	a5,0
    3de4:	0785                	add	a5,a5,1
    3de6:	fef51fe3          	bne	a0,a5,3de4 <_Z10riscusleepi+0x6>
    3dea:	8082                	ret

00003dec <_Z13RISCGetTimer2m>:
    3dec:	fcc02783          	lw	a5,-52(zero) # ffffffcc <_end+0xffff560c>
    3df0:	953e                	add	a0,a0,a5
    3df2:	8082                	ret

00003df4 <_Z15RISCCheckTimer2m>:
    3df4:	fcc02783          	lw	a5,-52(zero) # ffffffcc <_end+0xffff560c>
    3df8:	00a7b533          	sltu	a0,a5,a0
    3dfc:	00154513          	xor	a0,a0,1
    3e00:	8082                	ret

00003e02 <memcpy>:
    3e02:	4791                	li	a5,4
    3e04:	02c7f163          	bgeu	a5,a2,3e26 <memcpy+0x24>
    3e08:	00a5e7b3          	or	a5,a1,a0
    3e0c:	8b8d                	and	a5,a5,3
    3e0e:	cf99                	beqz	a5,3e2c <memcpy+0x2a>
    3e10:	87aa                	mv	a5,a0
    3e12:	963e                	add	a2,a2,a5
    3e14:	0005c703          	lbu	a4,0(a1)
    3e18:	0785                	add	a5,a5,1
    3e1a:	0585                	add	a1,a1,1
    3e1c:	fee78fa3          	sb	a4,-1(a5)
    3e20:	fef61ae3          	bne	a2,a5,3e14 <memcpy+0x12>
    3e24:	8082                	ret
    3e26:	87aa                	mv	a5,a0
    3e28:	f66d                	bnez	a2,3e12 <memcpy+0x10>
    3e2a:	8082                	ret
    3e2c:	ffc60893          	add	a7,a2,-4
    3e30:	ffc8f893          	and	a7,a7,-4
    3e34:	0891                	add	a7,a7,4
    3e36:	011507b3          	add	a5,a0,a7
    3e3a:	86ae                	mv	a3,a1
    3e3c:	872a                	mv	a4,a0
    3e3e:	0006a803          	lw	a6,0(a3)
    3e42:	0711                	add	a4,a4,4
    3e44:	0691                	add	a3,a3,4
    3e46:	ff072e23          	sw	a6,-4(a4)
    3e4a:	fef71ae3          	bne	a4,a5,3e3e <memcpy+0x3c>
    3e4e:	8a0d                	and	a2,a2,3
    3e50:	95c6                	add	a1,a1,a7
    3e52:	f261                	bnez	a2,3e12 <memcpy+0x10>
    3e54:	8082                	ret

00003e56 <memset>:
    3e56:	1141                	add	sp,sp,-16
    3e58:	c422                	sw	s0,8(sp)
    3e5a:	c606                	sw	ra,12(sp)
    3e5c:	842a                	mv	s0,a0
    3e5e:	c601                	beqz	a2,3e66 <memset+0x10>
    3e60:	0ff5f593          	zext.b	a1,a1
    3e64:	3fcd                	jal	3e56 <memset>
    3e66:	40b2                	lw	ra,12(sp)
    3e68:	8522                	mv	a0,s0
    3e6a:	4422                	lw	s0,8(sp)
    3e6c:	0141                	add	sp,sp,16
    3e6e:	8082                	ret

00003e70 <outnum>:
    3e70:	6715                	lui	a4,0x5
    3e72:	6795                	lui	a5,0x5
    3e74:	70c70713          	add	a4,a4,1804 # 570c <stream_vscanf+0x10d0>
    3e78:	72078793          	add	a5,a5,1824 # 5720 <stream_vscanf+0x10e4>
    3e7c:	0047a883          	lw	a7,4(a5)
    3e80:	00072283          	lw	t0,0(a4)
    3e84:	00472f83          	lw	t6,4(a4)
    3e88:	00872f03          	lw	t5,8(a4)
    3e8c:	00c72e83          	lw	t4,12(a4)
    3e90:	01074e03          	lbu	t3,16(a4)
    3e94:	0007a303          	lw	t1,0(a5)
    3e98:	0087a803          	lw	a6,8(a5)
    3e9c:	47d8                	lw	a4,12(a5)
    3e9e:	0107c783          	lbu	a5,16(a5)
    3ea2:	7159                	add	sp,sp,-112
    3ea4:	d0ca                	sw	s2,96(sp)
    3ea6:	cece                	sw	s3,92(sp)
    3ea8:	d046                	sw	a7,32(sp)
    3eaa:	02f10623          	sb	a5,44(sp)
    3eae:	d686                	sw	ra,108(sp)
    3eb0:	d4a2                	sw	s0,104(sp)
    3eb2:	d2a6                	sw	s1,100(sp)
    3eb4:	ccd2                	sw	s4,88(sp)
    3eb6:	c416                	sw	t0,8(sp)
    3eb8:	c67e                	sw	t6,12(sp)
    3eba:	c87a                	sw	t5,16(sp)
    3ebc:	ca76                	sw	t4,20(sp)
    3ebe:	01c10c23          	sb	t3,24(sp)
    3ec2:	ce1a                	sw	t1,28(sp)
    3ec4:	d242                	sw	a6,36(sp)
    3ec6:	d43a                	sw	a4,40(sp)
    3ec8:	47a9                	li	a5,10
    3eca:	01c6a883          	lw	a7,28(a3)
    3ece:	89b6                	mv	s3,a3
    3ed0:	892a                	mv	s2,a0
    3ed2:	14f60763          	beq	a2,a5,4020 <outnum+0x1b0>
    3ed6:	0030                	add	a2,sp,8
    3ed8:	0e088c63          	beqz	a7,3fd0 <outnum+0x160>
    3edc:	03010a13          	add	s4,sp,48
    3ee0:	87d2                	mv	a5,s4
    3ee2:	453d                	li	a0,15
    3ee4:	00f5f713          	and	a4,a1,15
    3ee8:	9732                	add	a4,a4,a2
    3eea:	00074683          	lbu	a3,0(a4)
    3eee:	872e                	mv	a4,a1
    3ef0:	0785                	add	a5,a5,1
    3ef2:	fed78fa3          	sb	a3,-1(a5)
    3ef6:	8191                	srl	a1,a1,0x4
    3ef8:	fee566e3          	bltu	a0,a4,3ee4 <outnum+0x74>
    3efc:	fff78493          	add	s1,a5,-1
    3f00:	00078023          	sb	zero,0(a5)
    3f04:	8552                	mv	a0,s4
    3f06:	2571                	jal	4592 <strlen>
    3f08:	0109a783          	lw	a5,16(s3)
    3f0c:	00a9a023          	sw	a0,0(s3)
    3f10:	0189a703          	lw	a4,24(s3)
    3f14:	842a                	mv	s0,a0
    3f16:	c791                	beqz	a5,3f22 <outnum+0xb2>
    3f18:	ef55                	bnez	a4,3fd4 <outnum+0x164>
    3f1a:	0049a783          	lw	a5,4(s3)
    3f1e:	0cf54463          	blt	a0,a5,3fe6 <outnum+0x176>
    3f22:	0344ee63          	bltu	s1,s4,3f5e <outnum+0xee>
    3f26:	8426                	mv	s0,s1
    3f28:	0209a703          	lw	a4,32(s3)
    3f2c:	408487b3          	sub	a5,s1,s0
    3f30:	147d                	add	s0,s0,-1
    3f32:	00e7da63          	bge	a5,a4,3f46 <outnum+0xd6>
    3f36:	00092783          	lw	a5,0(s2)
    3f3a:	00144503          	lbu	a0,1(s0)
    3f3e:	cb85                	beqz	a5,3f6e <outnum+0xfe>
    3f40:	9782                	jalr	a5
    3f42:	ff4473e3          	bgeu	s0,s4,3f28 <outnum+0xb8>
    3f46:	0109a783          	lw	a5,16(s3)
    3f4a:	cb91                	beqz	a5,3f5e <outnum+0xee>
    3f4c:	0189a783          	lw	a5,24(s3)
    3f50:	c799                	beqz	a5,3f5e <outnum+0xee>
    3f52:	0009a403          	lw	s0,0(s3)
    3f56:	0049a783          	lw	a5,4(s3)
    3f5a:	04f44363          	blt	s0,a5,3fa0 <outnum+0x130>
    3f5e:	50b6                	lw	ra,108(sp)
    3f60:	5426                	lw	s0,104(sp)
    3f62:	5496                	lw	s1,100(sp)
    3f64:	5906                	lw	s2,96(sp)
    3f66:	49f6                	lw	s3,92(sp)
    3f68:	4a66                	lw	s4,88(sp)
    3f6a:	6165                	add	sp,sp,112
    3f6c:	8082                	ret
    3f6e:	00492783          	lw	a5,4(s2)
    3f72:	dbe1                	beqz	a5,3f42 <outnum+0xd2>
    3f74:	00892703          	lw	a4,8(s2)
    3f78:	00c92683          	lw	a3,12(s2)
    3f7c:	00170613          	add	a2,a4,1
    3f80:	97ba                	add	a5,a5,a4
    3f82:	fcd750e3          	bge	a4,a3,3f42 <outnum+0xd2>
    3f86:	00c92423          	sw	a2,8(s2)
    3f8a:	00a78023          	sb	a0,0(a5)
    3f8e:	f9447de3          	bgeu	s0,s4,3f28 <outnum+0xb8>
    3f92:	bf55                	j	3f46 <outnum+0xd6>
    3f94:	9702                	jalr	a4
    3f96:	0049a783          	lw	a5,4(s3)
    3f9a:	0405                	add	s0,s0,1
    3f9c:	fcf451e3          	bge	s0,a5,3f5e <outnum+0xee>
    3fa0:	00092703          	lw	a4,0(s2)
    3fa4:	00c9c503          	lbu	a0,12(s3)
    3fa8:	f775                	bnez	a4,3f94 <outnum+0x124>
    3faa:	00492703          	lw	a4,4(s2)
    3fae:	d775                	beqz	a4,3f9a <outnum+0x12a>
    3fb0:	00892683          	lw	a3,8(s2)
    3fb4:	00c92603          	lw	a2,12(s2)
    3fb8:	00168593          	add	a1,a3,1
    3fbc:	9736                	add	a4,a4,a3
    3fbe:	fcc6dee3          	bge	a3,a2,3f9a <outnum+0x12a>
    3fc2:	00b92423          	sw	a1,8(s2)
    3fc6:	00a70023          	sb	a0,0(a4)
    3fca:	0049a783          	lw	a5,4(s3)
    3fce:	b7f1                	j	3f9a <outnum+0x12a>
    3fd0:	0870                	add	a2,sp,28
    3fd2:	b729                	j	3edc <outnum+0x6c>
    3fd4:	f544f9e3          	bgeu	s1,s4,3f26 <outnum+0xb6>
    3fd8:	bfbd                	j	3f56 <outnum+0xe6>
    3fda:	9702                	jalr	a4
    3fdc:	0049a783          	lw	a5,4(s3)
    3fe0:	0405                	add	s0,s0,1
    3fe2:	02f45c63          	bge	s0,a5,401a <outnum+0x1aa>
    3fe6:	00092703          	lw	a4,0(s2)
    3fea:	00c9c503          	lbu	a0,12(s3)
    3fee:	f775                	bnez	a4,3fda <outnum+0x16a>
    3ff0:	00492703          	lw	a4,4(s2)
    3ff4:	d775                	beqz	a4,3fe0 <outnum+0x170>
    3ff6:	00892683          	lw	a3,8(s2)
    3ffa:	00c92603          	lw	a2,12(s2)
    3ffe:	00168593          	add	a1,a3,1
    4002:	9736                	add	a4,a4,a3
    4004:	fcc6dee3          	bge	a3,a2,3fe0 <outnum+0x170>
    4008:	00b92423          	sw	a1,8(s2)
    400c:	00a70023          	sb	a0,0(a4)
    4010:	0049a783          	lw	a5,4(s3)
    4014:	0405                	add	s0,s0,1
    4016:	fcf448e3          	blt	s0,a5,3fe6 <outnum+0x176>
    401a:	f144f6e3          	bgeu	s1,s4,3f26 <outnum+0xb6>
    401e:	b725                	j	3f46 <outnum+0xd6>
    4020:	0405c363          	bltz	a1,4066 <outnum+0x1f6>
    4024:	0868                	add	a0,sp,28
    4026:	02089d63          	bnez	a7,4060 <outnum+0x1f0>
    402a:	03010a13          	add	s4,sp,48
    402e:	84d2                	mv	s1,s4
    4030:	46a9                	li	a3,10
    4032:	4825                	li	a6,9
    4034:	02d5f733          	remu	a4,a1,a3
    4038:	87a6                	mv	a5,s1
    403a:	0485                	add	s1,s1,1
    403c:	862e                	mv	a2,a1
    403e:	972a                	add	a4,a4,a0
    4040:	00074703          	lbu	a4,0(a4)
    4044:	02d5d5b3          	divu	a1,a1,a3
    4048:	fee48fa3          	sb	a4,-1(s1)
    404c:	fec864e3          	bltu	a6,a2,4034 <outnum+0x1c4>
    4050:	02088763          	beqz	a7,407e <outnum+0x20e>
    4054:	02d00713          	li	a4,45
    4058:	0789                	add	a5,a5,2
    405a:	00e48023          	sb	a4,0(s1)
    405e:	b54d                	j	3f00 <outnum+0x90>
    4060:	0028                	add	a0,sp,8
    4062:	4881                	li	a7,0
    4064:	b7d9                	j	402a <outnum+0x1ba>
    4066:	4adc                	lw	a5,20(a3)
    4068:	ffd5                	bnez	a5,4024 <outnum+0x1b4>
    406a:	40b005b3          	neg	a1,a1
    406e:	00088563          	beqz	a7,4078 <outnum+0x208>
    4072:	0028                	add	a0,sp,8
    4074:	4885                	li	a7,1
    4076:	bf55                	j	402a <outnum+0x1ba>
    4078:	0868                	add	a0,sp,28
    407a:	4885                	li	a7,1
    407c:	b77d                	j	402a <outnum+0x1ba>
    407e:	87a6                	mv	a5,s1
    4080:	bdb5                	j	3efc <outnum+0x8c>

00004082 <vbuf_printf>:
    4082:	0005c783          	lbu	a5,0(a1)
    4086:	3a078463          	beqz	a5,442e <vbuf_printf+0x3ac>
    408a:	7119                	add	sp,sp,-128
    408c:	d6ce                	sw	s3,108(sp)
    408e:	d4d2                	sw	s4,104(sp)
    4090:	d2d6                	sw	s5,100(sp)
    4092:	69a1                	lui	s3,0x8
    4094:	6a19                	lui	s4,0x6
    4096:	6a95                	lui	s5,0x5
    4098:	daa6                	sw	s1,116(sp)
    409a:	d8ca                	sw	s2,112(sp)
    409c:	d0da                	sw	s6,96(sp)
    409e:	cede                	sw	s7,92(sp)
    40a0:	de86                	sw	ra,124(sp)
    40a2:	dca2                	sw	s0,120(sp)
    40a4:	cce2                	sw	s8,88(sp)
    40a6:	cae6                	sw	s9,84(sp)
    40a8:	c8ea                	sw	s10,80(sp)
    40aa:	8b2e                	mv	s6,a1
    40ac:	8baa                	mv	s7,a0
    40ae:	84b2                	mv	s1,a2
    40b0:	19fd                	add	s3,s3,-1 # 7fff <cue+0x1d2b>
    40b2:	4965                	li	s2,25
    40b4:	824a0a13          	add	s4,s4,-2012 # 5824 <stream_vscanf+0x11e8>
    40b8:	7cca8a93          	add	s5,s5,1996 # 57cc <stream_vscanf+0x1190>
    40bc:	02500713          	li	a4,37
    40c0:	02e78d63          	beq	a5,a4,40fa <vbuf_printf+0x78>
    40c4:	000ba703          	lw	a4,0(s7)
    40c8:	20070463          	beqz	a4,42d0 <vbuf_printf+0x24e>
    40cc:	853e                	mv	a0,a5
    40ce:	9702                	jalr	a4
    40d0:	845a                	mv	s0,s6
    40d2:	00144783          	lbu	a5,1(s0)
    40d6:	00140b13          	add	s6,s0,1
    40da:	f3ed                	bnez	a5,40bc <vbuf_printf+0x3a>
    40dc:	50f6                	lw	ra,124(sp)
    40de:	5466                	lw	s0,120(sp)
    40e0:	54d6                	lw	s1,116(sp)
    40e2:	5946                	lw	s2,112(sp)
    40e4:	59b6                	lw	s3,108(sp)
    40e6:	5a26                	lw	s4,104(sp)
    40e8:	5a96                	lw	s5,100(sp)
    40ea:	5b06                	lw	s6,96(sp)
    40ec:	4bf6                	lw	s7,92(sp)
    40ee:	4c66                	lw	s8,88(sp)
    40f0:	4cd6                	lw	s9,84(sp)
    40f2:	4d46                	lw	s10,80(sp)
    40f4:	4501                	li	a0,0
    40f6:	6109                	add	sp,sp,128
    40f8:	8082                	ret
    40fa:	02000793          	li	a5,32
    40fe:	02f10423          	sb	a5,40(sp)
    4102:	47a9                	li	a5,10
    4104:	d602                	sw	zero,44(sp)
    4106:	da02                	sw	zero,52(sp)
    4108:	d802                	sw	zero,48(sp)
    410a:	d24e                	sw	s3,36(sp)
    410c:	de3e                	sw	a5,60(sp)
    410e:	4d01                	li	s10,0
    4110:	4c25                	li	s8,9
    4112:	001b4783          	lbu	a5,1(s6)
    4116:	001b0413          	add	s0,s6,1
    411a:	fd078713          	add	a4,a5,-48
    411e:	0ff77693          	zext.b	a3,a4
    4122:	0edc7c63          	bgeu	s8,a3,421a <vbuf_printf+0x198>
    4126:	fbf78713          	add	a4,a5,-65
    412a:	0ff77713          	zext.b	a4,a4
    412e:	01a73693          	sltiu	a3,a4,26
    4132:	dc36                	sw	a3,56(sp)
    4134:	0ae96a63          	bltu	s2,a4,41e8 <vbuf_printf+0x166>
    4138:	fbd78793          	add	a5,a5,-67
    413c:	4755                	li	a4,21
    413e:	f8f76ae3          	bltu	a4,a5,40d2 <vbuf_printf+0x50>
    4142:	078a                	sll	a5,a5,0x2
    4144:	97d6                	add	a5,a5,s5
    4146:	439c                	lw	a5,0(a5)
    4148:	8782                	jr	a5
    414a:	000ba783          	lw	a5,0(s7)
    414e:	0004c503          	lbu	a0,0(s1)
    4152:	24078d63          	beqz	a5,43ac <vbuf_printf+0x32a>
    4156:	9782                	jalr	a5
    4158:	0491                	add	s1,s1,4
    415a:	bfa5                	j	40d2 <vbuf_printf+0x50>
    415c:	0004ac03          	lw	s8,0(s1)
    4160:	c6ee                	sw	s11,76(sp)
    4162:	8562                	mv	a0,s8
    4164:	213d                	jal	4592 <strlen>
    4166:	5d32                	lw	s10,44(sp)
    4168:	ce2a                	sw	a0,28(sp)
    416a:	5dd2                	lw	s11,52(sp)
    416c:	8b2a                	mv	s6,a0
    416e:	87aa                	mv	a5,a0
    4170:	180d1663          	bnez	s10,42fc <vbuf_printf+0x27a>
    4174:	000c4503          	lbu	a0,0(s8)
    4178:	cd39                	beqz	a0,41d6 <vbuf_printf+0x154>
    417a:	5792                	lw	a5,36(sp)
    417c:	8b62                	mv	s6,s8
    417e:	fff78c93          	add	s9,a5,-1
    4182:	9c3e                	add	s8,s8,a5
    4184:	9cda                	add	s9,s9,s6
    4186:	a029                	j	4190 <vbuf_printf+0x10e>
    4188:	9782                	jalr	a5
    418a:	000b4503          	lbu	a0,0(s6)
    418e:	cd0d                	beqz	a0,41c8 <vbuf_printf+0x146>
    4190:	416c87b3          	sub	a5,s9,s6
    4194:	d23e                	sw	a5,36(sp)
    4196:	036c0a63          	beq	s8,s6,41ca <vbuf_printf+0x148>
    419a:	000ba783          	lw	a5,0(s7)
    419e:	0b05                	add	s6,s6,1
    41a0:	f7e5                	bnez	a5,4188 <vbuf_printf+0x106>
    41a2:	004ba783          	lw	a5,4(s7)
    41a6:	d3f5                	beqz	a5,418a <vbuf_printf+0x108>
    41a8:	008ba703          	lw	a4,8(s7)
    41ac:	00cba683          	lw	a3,12(s7)
    41b0:	fcd75de3          	bge	a4,a3,418a <vbuf_printf+0x108>
    41b4:	00170693          	add	a3,a4,1
    41b8:	00dba423          	sw	a3,8(s7)
    41bc:	97ba                	add	a5,a5,a4
    41be:	00a78023          	sb	a0,0(a5)
    41c2:	000b4503          	lbu	a0,0(s6)
    41c6:	f569                	bnez	a0,4190 <vbuf_printf+0x10e>
    41c8:	8c5a                	mv	s8,s6
    41ca:	8562                	mv	a0,s8
    41cc:	26d9                	jal	4592 <strlen>
    41ce:	ce2a                	sw	a0,28(sp)
    41d0:	8b2a                	mv	s6,a0
    41d2:	160d1863          	bnez	s10,4342 <vbuf_printf+0x2c0>
    41d6:	00144783          	lbu	a5,1(s0)
    41da:	4db6                	lw	s11,76(sp)
    41dc:	0491                	add	s1,s1,4
    41de:	00140b13          	add	s6,s0,1
    41e2:	ec079de3          	bnez	a5,40bc <vbuf_printf+0x3a>
    41e6:	bddd                	j	40dc <vbuf_printf+0x5a>
    41e8:	fdb78793          	add	a5,a5,-37
    41ec:	0ff7f793          	zext.b	a5,a5
    41f0:	05300713          	li	a4,83
    41f4:	ecf76fe3          	bltu	a4,a5,40d2 <vbuf_printf+0x50>
    41f8:	078a                	sll	a5,a5,0x2
    41fa:	97d2                	add	a5,a5,s4
    41fc:	439c                	lw	a5,0(a5)
    41fe:	8782                	jr	a5
    4200:	4785                	li	a5,1
    4202:	8b22                	mv	s6,s0
    4204:	da3e                	sw	a5,52(sp)
    4206:	001b4783          	lbu	a5,1(s6)
    420a:	001b0413          	add	s0,s6,1
    420e:	fd078713          	add	a4,a5,-48
    4212:	0ff77693          	zext.b	a3,a4
    4216:	f0dc68e3          	bltu	s8,a3,4126 <vbuf_printf+0xa4>
    421a:	080d1063          	bnez	s10,429a <vbuf_printf+0x218>
    421e:	03000513          	li	a0,48
    4222:	45a5                	li	a1,9
    4224:	4805                	li	a6,1
    4226:	0ca78863          	beq	a5,a0,42f6 <vbuf_printf+0x274>
    422a:	4601                	li	a2,0
    422c:	00144783          	lbu	a5,1(s0)
    4230:	00261693          	sll	a3,a2,0x2
    4234:	96b2                	add	a3,a3,a2
    4236:	0686                	sll	a3,a3,0x1
    4238:	00d70633          	add	a2,a4,a3
    423c:	fd078713          	add	a4,a5,-48
    4240:	0ff77793          	zext.b	a5,a4
    4244:	8b22                	mv	s6,s0
    4246:	0405                	add	s0,s0,1
    4248:	fef5f2e3          	bgeu	a1,a5,422c <vbuf_printf+0x1aa>
    424c:	d032                	sw	a2,32(sp)
    424e:	d642                	sw	a6,44(sp)
    4250:	0ff77693          	zext.b	a3,a4
    4254:	001b4783          	lbu	a5,1(s6)
    4258:	ecd5e7e3          	bltu	a1,a3,4126 <vbuf_printf+0xa4>
    425c:	fca797e3          	bne	a5,a0,422a <vbuf_printf+0x1a8>
    4260:	a859                	j	42f6 <vbuf_printf+0x274>
    4262:	000ba783          	lw	a5,0(s7)
    4266:	10078f63          	beqz	a5,4384 <vbuf_printf+0x302>
    426a:	02500513          	li	a0,37
    426e:	9782                	jalr	a5
    4270:	00144783          	lbu	a5,1(s0)
    4274:	00140b13          	add	s6,s0,1
    4278:	e40792e3          	bnez	a5,40bc <vbuf_printf+0x3a>
    427c:	b585                	j	40dc <vbuf_printf+0x5a>
    427e:	00144783          	lbu	a5,1(s0)
    4282:	00140693          	add	a3,s0,1
    4286:	4625                	li	a2,9
    4288:	fd078713          	add	a4,a5,-48
    428c:	0ff77593          	zext.b	a1,a4
    4290:	8b22                	mv	s6,s0
    4292:	4d05                	li	s10,1
    4294:	8436                	mv	s0,a3
    4296:	e8b668e3          	bltu	a2,a1,4126 <vbuf_printf+0xa4>
    429a:	45a5                	li	a1,9
    429c:	4601                	li	a2,0
    429e:	00144783          	lbu	a5,1(s0)
    42a2:	00261693          	sll	a3,a2,0x2
    42a6:	96b2                	add	a3,a3,a2
    42a8:	0686                	sll	a3,a3,0x1
    42aa:	00d70633          	add	a2,a4,a3
    42ae:	fd078713          	add	a4,a5,-48
    42b2:	0ff77793          	zext.b	a5,a4
    42b6:	8b22                	mv	s6,s0
    42b8:	0405                	add	s0,s0,1
    42ba:	fef5f2e3          	bgeu	a1,a5,429e <vbuf_printf+0x21c>
    42be:	d232                	sw	a2,36(sp)
    42c0:	0ff77693          	zext.b	a3,a4
    42c4:	001b4783          	lbu	a5,1(s6)
    42c8:	fcd5fae3          	bgeu	a1,a3,429c <vbuf_printf+0x21a>
    42cc:	4d05                	li	s10,1
    42ce:	bda1                	j	4126 <vbuf_printf+0xa4>
    42d0:	004ba703          	lw	a4,4(s7)
    42d4:	de070ee3          	beqz	a4,40d0 <vbuf_printf+0x4e>
    42d8:	008ba683          	lw	a3,8(s7)
    42dc:	00cba603          	lw	a2,12(s7)
    42e0:	dec6d8e3          	bge	a3,a2,40d0 <vbuf_printf+0x4e>
    42e4:	00168613          	add	a2,a3,1
    42e8:	00cba423          	sw	a2,8(s7)
    42ec:	9736                	add	a4,a4,a3
    42ee:	00f70023          	sb	a5,0(a4)
    42f2:	845a                	mv	s0,s6
    42f4:	bbf9                	j	40d2 <vbuf_printf+0x50>
    42f6:	02a10423          	sb	a0,40(sp)
    42fa:	bf05                	j	422a <vbuf_printf+0x1a8>
    42fc:	0c0d9b63          	bnez	s11,43d2 <vbuf_printf+0x350>
    4300:	5c82                	lw	s9,32(sp)
    4302:	e79559e3          	bge	a0,s9,4174 <vbuf_printf+0xf2>
    4306:	02814783          	lbu	a5,40(sp)
    430a:	c63e                	sw	a5,12(sp)
    430c:	a031                	j	4318 <vbuf_printf+0x296>
    430e:	4532                	lw	a0,12(sp)
    4310:	9782                	jalr	a5
    4312:	0b05                	add	s6,s6,1
    4314:	116c8f63          	beq	s9,s6,4432 <vbuf_printf+0x3b0>
    4318:	000ba783          	lw	a5,0(s7)
    431c:	fbed                	bnez	a5,430e <vbuf_printf+0x28c>
    431e:	004ba783          	lw	a5,4(s7)
    4322:	dbe5                	beqz	a5,4312 <vbuf_printf+0x290>
    4324:	008ba683          	lw	a3,8(s7)
    4328:	00cba603          	lw	a2,12(s7)
    432c:	fec6d3e3          	bge	a3,a2,4312 <vbuf_printf+0x290>
    4330:	4732                	lw	a4,12(sp)
    4332:	00168613          	add	a2,a3,1
    4336:	00cba423          	sw	a2,8(s7)
    433a:	97b6                	add	a5,a5,a3
    433c:	00e78023          	sb	a4,0(a5)
    4340:	bfc9                	j	4312 <vbuf_printf+0x290>
    4342:	e80d8ae3          	beqz	s11,41d6 <vbuf_printf+0x154>
    4346:	5c02                	lw	s8,32(sp)
    4348:	e98b57e3          	bge	s6,s8,41d6 <vbuf_printf+0x154>
    434c:	02814c83          	lbu	s9,40(sp)
    4350:	a031                	j	435c <vbuf_printf+0x2da>
    4352:	8566                	mv	a0,s9
    4354:	9782                	jalr	a5
    4356:	0b05                	add	s6,s6,1
    4358:	e76c0fe3          	beq	s8,s6,41d6 <vbuf_printf+0x154>
    435c:	000ba783          	lw	a5,0(s7)
    4360:	fbed                	bnez	a5,4352 <vbuf_printf+0x2d0>
    4362:	004ba783          	lw	a5,4(s7)
    4366:	dbe5                	beqz	a5,4356 <vbuf_printf+0x2d4>
    4368:	008ba703          	lw	a4,8(s7)
    436c:	00cba683          	lw	a3,12(s7)
    4370:	fed753e3          	bge	a4,a3,4356 <vbuf_printf+0x2d4>
    4374:	00170693          	add	a3,a4,1
    4378:	00dba423          	sw	a3,8(s7)
    437c:	97ba                	add	a5,a5,a4
    437e:	01978023          	sb	s9,0(a5)
    4382:	bfd1                	j	4356 <vbuf_printf+0x2d4>
    4384:	004ba783          	lw	a5,4(s7)
    4388:	d40785e3          	beqz	a5,40d2 <vbuf_printf+0x50>
    438c:	008ba703          	lw	a4,8(s7)
    4390:	00cba683          	lw	a3,12(s7)
    4394:	d2d75fe3          	bge	a4,a3,40d2 <vbuf_printf+0x50>
    4398:	00170693          	add	a3,a4,1
    439c:	97ba                	add	a5,a5,a4
    439e:	00dba423          	sw	a3,8(s7)
    43a2:	02500713          	li	a4,37
    43a6:	00e78023          	sb	a4,0(a5)
    43aa:	b325                	j	40d2 <vbuf_printf+0x50>
    43ac:	004ba783          	lw	a5,4(s7)
    43b0:	da0784e3          	beqz	a5,4158 <vbuf_printf+0xd6>
    43b4:	008ba703          	lw	a4,8(s7)
    43b8:	00cba683          	lw	a3,12(s7)
    43bc:	d8d75ee3          	bge	a4,a3,4158 <vbuf_printf+0xd6>
    43c0:	00170693          	add	a3,a4,1
    43c4:	00dba423          	sw	a3,8(s7)
    43c8:	97ba                	add	a5,a5,a4
    43ca:	00a78023          	sb	a0,0(a5)
    43ce:	0491                	add	s1,s1,4
    43d0:	b309                	j	40d2 <vbuf_printf+0x50>
    43d2:	000c4503          	lbu	a0,0(s8)
    43d6:	da0512e3          	bnez	a0,417a <vbuf_printf+0xf8>
    43da:	8b3e                	mv	s6,a5
    43dc:	b7ad                	j	4346 <vbuf_printf+0x2c4>
    43de:	408c                	lw	a1,0(s1)
    43e0:	47a1                	li	a5,8
    43e2:	00448b13          	add	s6,s1,4
    43e6:	0874                	add	a3,sp,28
    43e8:	4641                	li	a2,16
    43ea:	855e                	mv	a0,s7
    43ec:	de3e                	sw	a5,60(sp)
    43ee:	84da                	mv	s1,s6
    43f0:	a81ff0ef          	jal	3e70 <outnum>
    43f4:	00144783          	lbu	a5,1(s0)
    43f8:	00140b13          	add	s6,s0,1
    43fc:	cc0790e3          	bnez	a5,40bc <vbuf_printf+0x3a>
    4400:	b9f1                	j	40dc <vbuf_printf+0x5a>
    4402:	4785                	li	a5,1
    4404:	d83e                	sw	a5,48(sp)
    4406:	408c                	lw	a1,0(s1)
    4408:	00448b13          	add	s6,s1,4
    440c:	0874                	add	a3,sp,28
    440e:	4629                	li	a2,10
    4410:	855e                	mv	a0,s7
    4412:	a5fff0ef          	jal	3e70 <outnum>
    4416:	84da                	mv	s1,s6
    4418:	bff1                	j	43f4 <vbuf_printf+0x372>
    441a:	8b22                	mv	s6,s0
    441c:	b9dd                	j	4112 <vbuf_printf+0x90>
    441e:	000ba783          	lw	a5,0(s7)
    4422:	c385                	beqz	a5,4442 <vbuf_printf+0x3c0>
    4424:	05c00513          	li	a0,92
    4428:	9782                	jalr	a5
    442a:	0b09                	add	s6,s6,2
    442c:	b1dd                	j	4112 <vbuf_printf+0x90>
    442e:	4501                	li	a0,0
    4430:	8082                	ret
    4432:	000c4503          	lbu	a0,0(s8)
    4436:	d40512e3          	bnez	a0,417a <vbuf_printf+0xf8>
    443a:	8562                	mv	a0,s8
    443c:	2a99                	jal	4592 <strlen>
    443e:	ce2a                	sw	a0,28(sp)
    4440:	bb59                	j	41d6 <vbuf_printf+0x154>
    4442:	004ba783          	lw	a5,4(s7)
    4446:	d3f5                	beqz	a5,442a <vbuf_printf+0x3a8>
    4448:	008ba703          	lw	a4,8(s7)
    444c:	00cba683          	lw	a3,12(s7)
    4450:	fcd75de3          	bge	a4,a3,442a <vbuf_printf+0x3a8>
    4454:	00170693          	add	a3,a4,1
    4458:	97ba                	add	a5,a5,a4
    445a:	00dba423          	sw	a3,8(s7)
    445e:	05c00713          	li	a4,92
    4462:	00e78023          	sb	a4,0(a5)
    4466:	0b09                	add	s6,s6,2
    4468:	b16d                	j	4112 <vbuf_printf+0x90>

0000446a <sprintf>:
    446a:	715d                	add	sp,sp,-80
    446c:	03810313          	add	t1,sp,56
    4470:	8e2a                	mv	t3,a0
    4472:	dc32                	sw	a2,56(sp)
    4474:	c2be                	sw	a5,68(sp)
    4476:	0808                	add	a0,sp,16
    4478:	67a1                	lui	a5,0x8
    447a:	861a                	mv	a2,t1
    447c:	d606                	sw	ra,44(sp)
    447e:	ce3e                	sw	a5,28(sp)
    4480:	de36                	sw	a3,60(sp)
    4482:	c0ba                	sw	a4,64(sp)
    4484:	c4c2                	sw	a6,72(sp)
    4486:	c6c6                	sw	a7,76(sp)
    4488:	c61a                	sw	t1,12(sp)
    448a:	c802                	sw	zero,16(sp)
    448c:	ca72                	sw	t3,20(sp)
    448e:	cc02                	sw	zero,24(sp)
    4490:	bf3ff0ef          	jal	4082 <vbuf_printf>
    4494:	4562                	lw	a0,24(sp)
    4496:	47d2                	lw	a5,20(sp)
    4498:	97aa                	add	a5,a5,a0
    449a:	00078023          	sb	zero,0(a5) # 8000 <MEM_SIZE>
    449e:	50b2                	lw	ra,44(sp)
    44a0:	6161                	add	sp,sp,80
    44a2:	8082                	ret

000044a4 <snprintf>:
    44a4:	715d                	add	sp,sp,-80
    44a6:	d606                	sw	ra,44(sp)
    44a8:	de36                	sw	a3,60(sp)
    44aa:	c0ba                	sw	a4,64(sp)
    44ac:	c2be                	sw	a5,68(sp)
    44ae:	c4c2                	sw	a6,72(sp)
    44b0:	c6c6                	sw	a7,76(sp)
    44b2:	832e                	mv	t1,a1
    44b4:	c98d                	beqz	a1,44e6 <snprintf+0x42>
    44b6:	87aa                	mv	a5,a0
    44b8:	4501                	li	a0,0
    44ba:	c39d                	beqz	a5,44e0 <snprintf+0x3c>
    44bc:	85b2                	mv	a1,a2
    44be:	0808                	add	a0,sp,16
    44c0:	1870                	add	a2,sp,60
    44c2:	ca3e                	sw	a5,20(sp)
    44c4:	c632                	sw	a2,12(sp)
    44c6:	c802                	sw	zero,16(sp)
    44c8:	cc02                	sw	zero,24(sp)
    44ca:	ce1a                	sw	t1,28(sp)
    44cc:	bb7ff0ef          	jal	4082 <vbuf_printf>
    44d0:	4562                	lw	a0,24(sp)
    44d2:	47f2                	lw	a5,28(sp)
    44d4:	00f55d63          	bge	a0,a5,44ee <snprintf+0x4a>
    44d8:	47d2                	lw	a5,20(sp)
    44da:	97aa                	add	a5,a5,a0
    44dc:	00078023          	sb	zero,0(a5)
    44e0:	50b2                	lw	ra,44(sp)
    44e2:	6161                	add	sp,sp,80
    44e4:	8082                	ret
    44e6:	50b2                	lw	ra,44(sp)
    44e8:	4501                	li	a0,0
    44ea:	6161                	add	sp,sp,80
    44ec:	8082                	ret
    44ee:	4752                	lw	a4,20(sp)
    44f0:	97ba                	add	a5,a5,a4
    44f2:	fe078fa3          	sb	zero,-1(a5)
    44f6:	50b2                	lw	ra,44(sp)
    44f8:	6161                	add	sp,sp,80
    44fa:	8082                	ret

000044fc <sscanf>:
    44fc:	7139                	add	sp,sp,-64
    44fe:	cc22                	sw	s0,24(sp)
    4500:	d432                	sw	a2,40(sp)
    4502:	842e                	mv	s0,a1
    4504:	4601                	li	a2,0
    4506:	85aa                	mv	a1,a0
    4508:	0048                	add	a0,sp,4
    450a:	ce06                	sw	ra,28(sp)
    450c:	d636                	sw	a3,44(sp)
    450e:	d83a                	sw	a4,48(sp)
    4510:	da3e                	sw	a5,52(sp)
    4512:	dc42                	sw	a6,56(sp)
    4514:	de46                	sw	a7,60(sp)
    4516:	20c5                	jal	45f6 <stropen>
    4518:	1030                	add	a2,sp,40
    451a:	85a2                	mv	a1,s0
    451c:	0048                	add	a0,sp,4
    451e:	c032                	sw	a2,0(sp)
    4520:	2a31                	jal	463c <stream_vscanf>
    4522:	40f2                	lw	ra,28(sp)
    4524:	4462                	lw	s0,24(sp)
    4526:	6121                	add	sp,sp,64
    4528:	8082                	ret

0000452a <strcmp>:
    452a:	00054783          	lbu	a5,0(a0)
    452e:	0005c703          	lbu	a4,0(a1)
    4532:	00e79763          	bne	a5,a4,4540 <strcmp+0x16>
    4536:	0505                	add	a0,a0,1
    4538:	0585                	add	a1,a1,1
    453a:	fbe5                	bnez	a5,452a <strcmp>
    453c:	4501                	li	a0,0
    453e:	8082                	ret
    4540:	40e78533          	sub	a0,a5,a4
    4544:	8082                	ret

00004546 <strcpy>:
    4546:	87aa                	mv	a5,a0
    4548:	0005c703          	lbu	a4,0(a1)
    454c:	0785                	add	a5,a5,1
    454e:	0585                	add	a1,a1,1
    4550:	fee78fa3          	sb	a4,-1(a5)
    4554:	fb75                	bnez	a4,4548 <strcpy+0x2>
    4556:	8082                	ret

00004558 <strncpy>:
    4558:	1141                	add	sp,sp,-16
    455a:	c422                	sw	s0,8(sp)
    455c:	c606                	sw	ra,12(sp)
    455e:	842a                	mv	s0,a0
    4560:	c605                	beqz	a2,4588 <strncpy+0x30>
    4562:	00c506b3          	add	a3,a0,a2
    4566:	87ae                	mv	a5,a1
    4568:	a019                	j	456e <strncpy+0x16>
    456a:	00d50f63          	beq	a0,a3,4588 <strncpy+0x30>
    456e:	0007c703          	lbu	a4,0(a5)
    4572:	0505                	add	a0,a0,1
    4574:	0785                	add	a5,a5,1
    4576:	fee50fa3          	sb	a4,-1(a0)
    457a:	fb65                	bnez	a4,456a <strncpy+0x12>
    457c:	8d9d                	sub	a1,a1,a5
    457e:	962e                	add	a2,a2,a1
    4580:	c601                	beqz	a2,4588 <strncpy+0x30>
    4582:	4581                	li	a1,0
    4584:	8d3ff0ef          	jal	3e56 <memset>
    4588:	40b2                	lw	ra,12(sp)
    458a:	8522                	mv	a0,s0
    458c:	4422                	lw	s0,8(sp)
    458e:	0141                	add	sp,sp,16
    4590:	8082                	ret

00004592 <strlen>:
    4592:	00054783          	lbu	a5,0(a0)
    4596:	cb89                	beqz	a5,45a8 <strlen+0x16>
    4598:	87aa                	mv	a5,a0
    459a:	0017c703          	lbu	a4,1(a5)
    459e:	0785                	add	a5,a5,1
    45a0:	ff6d                	bnez	a4,459a <strlen+0x8>
    45a2:	40a78533          	sub	a0,a5,a0
    45a6:	8082                	ret
    45a8:	4501                	li	a0,0
    45aa:	8082                	ret

000045ac <buf_getchar>:
    45ac:	4158                	lw	a4,4(a0)
    45ae:	00074783          	lbu	a5,0(a4)
    45b2:	c789                	beqz	a5,45bc <buf_getchar+0x10>
    45b4:	0705                	add	a4,a4,1
    45b6:	c158                	sw	a4,4(a0)
    45b8:	853e                	mv	a0,a5
    45ba:	8082                	ret
    45bc:	4501                	li	a0,0
    45be:	8082                	ret

000045c0 <buf_peekchar>:
    45c0:	415c                	lw	a5,4(a0)
    45c2:	0007c503          	lbu	a0,0(a5)
    45c6:	c111                	beqz	a0,45ca <buf_peekchar+0xa>
    45c8:	8082                	ret
    45ca:	557d                	li	a0,-1
    45cc:	8082                	ret

000045ce <buf_feof>:
    45ce:	415c                	lw	a5,4(a0)
    45d0:	0007c503          	lbu	a0,0(a5)
    45d4:	00153513          	seqz	a0,a0
    45d8:	8082                	ret

000045da <buf_putchar>:
    45da:	4518                	lw	a4,8(a0)
    45dc:	4785                	li	a5,1
    45de:	00e7db63          	bge	a5,a4,45f4 <buf_putchar+0x1a>
    45e2:	415c                	lw	a5,4(a0)
    45e4:	00178713          	add	a4,a5,1
    45e8:	c158                	sw	a4,4(a0)
    45ea:	00b78023          	sb	a1,0(a5)
    45ee:	451c                	lw	a5,8(a0)
    45f0:	17fd                	add	a5,a5,-1
    45f2:	c51c                	sw	a5,8(a0)
    45f4:	8082                	ret

000045f6 <stropen>:
    45f6:	6719                	lui	a4,0x6
    45f8:	f0470713          	add	a4,a4,-252 # 5f04 <buf_interface>
    45fc:	c118                	sw	a4,0(a0)
    45fe:	c14c                	sw	a1,4(a0)
    4600:	c510                	sw	a2,8(a0)
    4602:	8082                	ret

00004604 <strstr>:
    4604:	0005c803          	lbu	a6,0(a1)
    4608:	00080c63          	beqz	a6,4620 <strstr+0x1c>
    460c:	00054783          	lbu	a5,0(a0)
    4610:	c799                	beqz	a5,461e <strstr+0x1a>
    4612:	00f80863          	beq	a6,a5,4622 <strstr+0x1e>
    4616:	00154783          	lbu	a5,1(a0)
    461a:	0505                	add	a0,a0,1
    461c:	fbfd                	bnez	a5,4612 <strstr+0xe>
    461e:	4501                	li	a0,0
    4620:	8082                	ret
    4622:	87ae                	mv	a5,a1
    4624:	872a                	mv	a4,a0
    4626:	a029                	j	4630 <strstr+0x2c>
    4628:	fff74603          	lbu	a2,-1(a4)
    462c:	fed615e3          	bne	a2,a3,4616 <strstr+0x12>
    4630:	0007c683          	lbu	a3,0(a5)
    4634:	0705                	add	a4,a4,1
    4636:	0785                	add	a5,a5,1
    4638:	fae5                	bnez	a3,4628 <strstr+0x24>
    463a:	8082                	ret

0000463c <stream_vscanf>:
    463c:	715d                	add	sp,sp,-80
    463e:	c0ca                	sw	s2,64(sp)
    4640:	dc52                	sw	s4,56(sp)
    4642:	d85a                	sw	s6,48(sp)
    4644:	d462                	sw	s8,40(sp)
    4646:	ce6e                	sw	s11,28(sp)
    4648:	c686                	sw	ra,76(sp)
    464a:	c4a2                	sw	s0,72(sp)
    464c:	c2a6                	sw	s1,68(sp)
    464e:	de4e                	sw	s3,60(sp)
    4650:	8daa                	mv	s11,a0
    4652:	8a32                	mv	s4,a2
    4654:	c002                	sw	zero,0(sp)
    4656:	4c01                	li	s8,0
    4658:	02000913          	li	s2,32
    465c:	02500b13          	li	s6,37
    4660:	0005c483          	lbu	s1,0(a1)
    4664:	00158413          	add	s0,a1,1
    4668:	01248d63          	beq	s1,s2,4682 <stream_vscanf+0x46>
    466c:	06996963          	bltu	s2,s1,46de <stream_vscanf+0xa2>
    4670:	10048663          	beqz	s1,477c <stream_vscanf+0x140>
    4674:	ff748713          	add	a4,s1,-9
    4678:	0ff77713          	zext.b	a4,a4
    467c:	4685                	li	a3,1
    467e:	02e6ee63          	bltu	a3,a4,46ba <stream_vscanf+0x7e>
    4682:	02000493          	li	s1,32
    4686:	4985                	li	s3,1
    4688:	000da703          	lw	a4,0(s11)
    468c:	856e                	mv	a0,s11
    468e:	4718                	lw	a4,8(a4)
    4690:	9702                	jalr	a4
    4692:	00054b63          	bltz	a0,46a8 <stream_vscanf+0x6c>
    4696:	0ff57513          	zext.b	a0,a0
    469a:	00950963          	beq	a0,s1,46ac <stream_vscanf+0x70>
    469e:	155d                	add	a0,a0,-9
    46a0:	0ff57513          	zext.b	a0,a0
    46a4:	00a9f463          	bgeu	s3,a0,46ac <stream_vscanf+0x70>
    46a8:	85a2                	mv	a1,s0
    46aa:	bf5d                	j	4660 <stream_vscanf+0x24>
    46ac:	000da703          	lw	a4,0(s11)
    46b0:	856e                	mv	a0,s11
    46b2:	4358                	lw	a4,4(a4)
    46b4:	9702                	jalr	a4
    46b6:	bfc9                	j	4688 <stream_vscanf+0x4c>
    46b8:	5d02                	lw	s10,32(sp)
    46ba:	000da703          	lw	a4,0(s11)
    46be:	856e                	mv	a0,s11
    46c0:	4718                	lw	a4,8(a4)
    46c2:	9702                	jalr	a4
    46c4:	0a054b63          	bltz	a0,477a <stream_vscanf+0x13e>
    46c8:	0ff57513          	zext.b	a0,a0
    46cc:	0a951863          	bne	a0,s1,477c <stream_vscanf+0x140>
    46d0:	000da703          	lw	a4,0(s11)
    46d4:	856e                	mv	a0,s11
    46d6:	4358                	lw	a4,4(a4)
    46d8:	9702                	jalr	a4
    46da:	85a2                	mv	a1,s0
    46dc:	b751                	j	4660 <stream_vscanf+0x24>
    46de:	fd649ee3          	bne	s1,s6,46ba <stream_vscanf+0x7e>
    46e2:	d06a                	sw	s10,32(sp)
    46e4:	0015cd03          	lbu	s10,1(a1)
    46e8:	00258413          	add	s0,a1,2
    46ec:	fd6d06e3          	beq	s10,s6,46b8 <stream_vscanf+0x7c>
    46f0:	da56                	sw	s5,52(sp)
    46f2:	02a00713          	li	a4,42
    46f6:	0ced0963          	beq	s10,a4,47c8 <stream_vscanf+0x18c>
    46fa:	000a2783          	lw	a5,0(s4)
    46fe:	c23e                	sw	a5,4(sp)
    4700:	004a0793          	add	a5,s4,4
    4704:	c43e                	sw	a5,8(sp)
    4706:	fd0d0713          	add	a4,s10,-48
    470a:	0ff77713          	zext.b	a4,a4
    470e:	46a5                	li	a3,9
    4710:	0ae6e063          	bltu	a3,a4,47b0 <stream_vscanf+0x174>
    4714:	4a01                	li	s4,0
    4716:	45a5                	li	a1,9
    4718:	002a1713          	sll	a4,s4,0x2
    471c:	9752                	add	a4,a4,s4
    471e:	0706                	sll	a4,a4,0x1
    4720:	0405                	add	s0,s0,1
    4722:	976a                	add	a4,a4,s10
    4724:	fff44d03          	lbu	s10,-1(s0)
    4728:	fd070713          	add	a4,a4,-48
    472c:	01071a13          	sll	s4,a4,0x10
    4730:	fd0d0713          	add	a4,s10,-48
    4734:	0ff77713          	zext.b	a4,a4
    4738:	010a5a13          	srl	s4,s4,0x10
    473c:	fce5fee3          	bgeu	a1,a4,4718 <stream_vscanf+0xdc>
    4740:	060a0863          	beqz	s4,47b0 <stream_vscanf+0x174>
    4744:	06800713          	li	a4,104
    4748:	06ed0b63          	beq	s10,a4,47be <stream_vscanf+0x182>
    474c:	05b00713          	li	a4,91
    4750:	4a85                	li	s5,1
    4752:	08ed0263          	beq	s10,a4,47d6 <stream_vscanf+0x19a>
    4756:	020d0063          	beqz	s10,4776 <stream_vscanf+0x13a>
    475a:	fa5d0713          	add	a4,s10,-91
    475e:	0ff77713          	zext.b	a4,a4
    4762:	45f5                	li	a1,29
    4764:	02e5e963          	bltu	a1,a4,4796 <stream_vscanf+0x15a>
    4768:	6599                	lui	a1,0x6
    476a:	070a                	sll	a4,a4,0x2
    476c:	97458593          	add	a1,a1,-1676 # 5974 <stream_vscanf+0x1338>
    4770:	972e                	add	a4,a4,a1
    4772:	4318                	lw	a4,0(a4)
    4774:	8702                	jr	a4
    4776:	5ad2                	lw	s5,52(sp)
    4778:	5d02                	lw	s10,32(sp)
    477a:	5c7d                	li	s8,-1
    477c:	40b6                	lw	ra,76(sp)
    477e:	4426                	lw	s0,72(sp)
    4780:	4496                	lw	s1,68(sp)
    4782:	4906                	lw	s2,64(sp)
    4784:	59f2                	lw	s3,60(sp)
    4786:	5a62                	lw	s4,56(sp)
    4788:	5b42                	lw	s6,48(sp)
    478a:	4df2                	lw	s11,28(sp)
    478c:	8562                	mv	a0,s8
    478e:	5c22                	lw	s8,40(sp)
    4790:	6161                	add	sp,sp,80
    4792:	8082                	ret
    4794:	5bb2                	lw	s7,44(sp)
    4796:	000da703          	lw	a4,0(s11)
    479a:	4b18                	lw	a4,16(a4)
    479c:	c709                	beqz	a4,47a6 <stream_vscanf+0x16a>
    479e:	856e                	mv	a0,s11
    47a0:	9702                	jalr	a4
    47a2:	36051363          	bnez	a0,4b08 <stream_vscanf+0x4cc>
    47a6:	4a22                	lw	s4,8(sp)
    47a8:	5ad2                	lw	s5,52(sp)
    47aa:	5d02                	lw	s10,32(sp)
    47ac:	85a2                	mv	a1,s0
    47ae:	bd4d                	j	4660 <stream_vscanf+0x24>
    47b0:	6a1d                	lui	s4,0x7
    47b2:	06800713          	li	a4,104
    47b6:	530a0a13          	add	s4,s4,1328 # 7530 <cue+0x125c>
    47ba:	f8ed19e3          	bne	s10,a4,474c <stream_vscanf+0x110>
    47be:	00044d03          	lbu	s10,0(s0)
    47c2:	4a81                	li	s5,0
    47c4:	0405                	add	s0,s0,1
    47c6:	bf41                	j	4756 <stream_vscanf+0x11a>
    47c8:	0025cd03          	lbu	s10,2(a1)
    47cc:	00358413          	add	s0,a1,3
    47d0:	c452                	sw	s4,8(sp)
    47d2:	c202                	sw	zero,4(sp)
    47d4:	bf0d                	j	4706 <stream_vscanf+0xca>
    47d6:	d65e                	sw	s7,44(sp)
    47d8:	d266                	sw	s9,36(sp)
    47da:	00044583          	lbu	a1,0(s0)
    47de:	05e00513          	li	a0,94
    47e2:	8722                	mv	a4,s0
    47e4:	2ca58963          	beq	a1,a0,4ab6 <stream_vscanf+0x47a>
    47e8:	c989                	beqz	a1,47fa <stream_vscanf+0x1be>
    47ea:	05d00513          	li	a0,93
    47ee:	30a58763          	beq	a1,a0,4afc <stream_vscanf+0x4c0>
    47f2:	00174583          	lbu	a1,1(a4)
    47f6:	0705                	add	a4,a4,1
    47f8:	f9fd                	bnez	a1,47ee <stream_vscanf+0x1b2>
    47fa:	c022                	sw	s0,0(sp)
    47fc:	843a                	mv	s0,a4
    47fe:	4c81                	li	s9,0
    4800:	07300493          	li	s1,115
    4804:	49a9                	li	s3,10
    4806:	02000a93          	li	s5,32
    480a:	4ba5                	li	s7,9
    480c:	000da703          	lw	a4,0(s11)
    4810:	01072803          	lw	a6,16(a4)
    4814:	00080763          	beqz	a6,4822 <stream_vscanf+0x1e6>
    4818:	856e                	mv	a0,s11
    481a:	9802                	jalr	a6
    481c:	e105                	bnez	a0,483c <stream_vscanf+0x200>
    481e:	000da703          	lw	a4,0(s11)
    4822:	4358                	lw	a4,4(a4)
    4824:	856e                	mv	a0,s11
    4826:	9702                	jalr	a4
    4828:	0ff57c93          	zext.b	s9,a0
    482c:	009d1863          	bne	s10,s1,483c <stream_vscanf+0x200>
    4830:	fd3c8ee3          	beq	s9,s3,480c <stream_vscanf+0x1d0>
    4834:	fd5c8ce3          	beq	s9,s5,480c <stream_vscanf+0x1d0>
    4838:	fd7c8ae3          	beq	s9,s7,480c <stream_vscanf+0x1d0>
    483c:	4782                	lw	a5,0(sp)
    483e:	4492                	lw	s1,4(sp)
    4840:	07300b93          	li	s7,115
    4844:	0785                	add	a5,a5,1
    4846:	02d00a93          	li	s5,45
    484a:	05d00993          	li	s3,93
    484e:	c63e                	sw	a5,12(sp)
    4850:	000da703          	lw	a4,0(s11)
    4854:	4b18                	lw	a4,16(a4)
    4856:	c709                	beqz	a4,4860 <stream_vscanf+0x224>
    4858:	856e                	mv	a0,s11
    485a:	9702                	jalr	a4
    485c:	1e051d63          	bnez	a0,4a56 <stream_vscanf+0x41a>
    4860:	1d7d0163          	beq	s10,s7,4a22 <stream_vscanf+0x3e6>
    4864:	05b00793          	li	a5,91
    4868:	02fd0f63          	beq	s10,a5,48a6 <stream_vscanf+0x26a>
    486c:	c481                	beqz	s1,4874 <stream_vscanf+0x238>
    486e:	01948023          	sb	s9,0(s1)
    4872:	0485                	add	s1,s1,1
    4874:	fffa0693          	add	a3,s4,-1
    4878:	01069a13          	sll	s4,a3,0x10
    487c:	010a5a13          	srl	s4,s4,0x10
    4880:	1c0a0b63          	beqz	s4,4a56 <stream_vscanf+0x41a>
    4884:	000da703          	lw	a4,0(s11)
    4888:	856e                	mv	a0,s11
    488a:	4358                	lw	a4,4(a4)
    488c:	9702                	jalr	a4
    488e:	0ff57c93          	zext.b	s9,a0
    4892:	bf7d                	j	4850 <stream_vscanf+0x214>
    4894:	671d                	lui	a4,0x7
    4896:	d65e                	sw	s7,44(sp)
    4898:	d266                	sw	s9,36(sp)
    489a:	53070713          	add	a4,a4,1328 # 7530 <cue+0x125c>
    489e:	f6ea10e3          	bne	s4,a4,47fe <stream_vscanf+0x1c2>
    48a2:	4a05                	li	s4,1
    48a4:	bfa9                	j	47fe <stream_vscanf+0x1c2>
    48a6:	4782                	lw	a5,0(sp)
    48a8:	0007c803          	lbu	a6,0(a5)
    48ac:	05e00793          	li	a5,94
    48b0:	18f80563          	beq	a6,a5,4a3a <stream_vscanf+0x3fe>
    48b4:	07380e63          	beq	a6,s3,4930 <stream_vscanf+0x2f4>
    48b8:	4532                	lw	a0,12(sp)
    48ba:	4e81                	li	t4,0
    48bc:	06080a63          	beqz	a6,4930 <stream_vscanf+0x2f4>
    48c0:	00054703          	lbu	a4,0(a0)
    48c4:	00150893          	add	a7,a0,1
    48c8:	8342                	mv	t1,a6
    48ca:	03570063          	beq	a4,s5,48ea <stream_vscanf+0x2ae>
    48ce:	046cfb63          	bgeu	s9,t1,4924 <stream_vscanf+0x2e8>
    48d2:	05370d63          	beq	a4,s3,492c <stream_vscanf+0x2f0>
    48d6:	cf29                	beqz	a4,4930 <stream_vscanf+0x2f4>
    48d8:	8546                	mv	a0,a7
    48da:	883a                	mv	a6,a4
    48dc:	00054703          	lbu	a4,0(a0)
    48e0:	00150893          	add	a7,a0,1
    48e4:	8342                	mv	t1,a6
    48e6:	ff5714e3          	bne	a4,s5,48ce <stream_vscanf+0x292>
    48ea:	00154e03          	lbu	t3,1(a0)
    48ee:	013e0d63          	beq	t3,s3,4908 <stream_vscanf+0x2cc>
    48f2:	020e0f63          	beqz	t3,4930 <stream_vscanf+0x2f4>
    48f6:	8342                	mv	t1,a6
    48f8:	00254703          	lbu	a4,2(a0)
    48fc:	00350893          	add	a7,a0,3
    4900:	8872                	mv	a6,t3
    4902:	fc6ce8e3          	bltu	s9,t1,48d2 <stream_vscanf+0x296>
    4906:	a839                	j	4924 <stream_vscanf+0x2e8>
    4908:	fd0ce8e3          	bltu	s9,a6,48d8 <stream_vscanf+0x29c>
    490c:	0199fe63          	bgeu	s3,s9,4928 <stream_vscanf+0x2ec>
    4910:	0008c803          	lbu	a6,0(a7)
    4914:	00188313          	add	t1,a7,1
    4918:	13580c63          	beq	a6,s5,4a50 <stream_vscanf+0x414>
    491c:	8542                	mv	a0,a6
    491e:	889a                	mv	a7,t1
    4920:	883a                	mv	a6,a4
    4922:	872a                	mv	a4,a0
    4924:	fb9867e3          	bltu	a6,s9,48d2 <stream_vscanf+0x296>
    4928:	001ece93          	xor	t4,t4,1
    492c:	f40e90e3          	bnez	t4,486c <stream_vscanf+0x230>
    4930:	4792                	lw	a5,4(sp)
    4932:	12979963          	bne	a5,s1,4a64 <stream_vscanf+0x428>
    4936:	5bb2                	lw	s7,44(sp)
    4938:	5c92                	lw	s9,36(sp)
    493a:	bdb1                	j	4796 <stream_vscanf+0x15a>
    493c:	d65e                	sw	s7,44(sp)
    493e:	49c1                	li	s3,16
    4940:	02000493          	li	s1,32
    4944:	4b85                	li	s7,1
    4946:	000da703          	lw	a4,0(s11)
    494a:	856e                	mv	a0,s11
    494c:	4718                	lw	a4,8(a4)
    494e:	9702                	jalr	a4
    4950:	e40542e3          	bltz	a0,4794 <stream_vscanf+0x158>
    4954:	0ff57713          	zext.b	a4,a0
    4958:	0a970f63          	beq	a4,s1,4a16 <stream_vscanf+0x3da>
    495c:	175d                	add	a4,a4,-9
    495e:	0ff77713          	zext.b	a4,a4
    4962:	0aebfa63          	bgeu	s7,a4,4a16 <stream_vscanf+0x3da>
    4966:	02d00713          	li	a4,45
    496a:	10e50963          	beq	a0,a4,4a7c <stream_vscanf+0x440>
    496e:	02b00713          	li	a4,43
    4972:	4d01                	li	s10,0
    4974:	10e50663          	beq	a0,a4,4a80 <stream_vscanf+0x444>
    4978:	fd050713          	add	a4,a0,-48
    497c:	4625                	li	a2,9
    497e:	00e67c63          	bgeu	a2,a4,4996 <stream_vscanf+0x35a>
    4982:	4641                	li	a2,16
    4984:	e0c998e3          	bne	s3,a2,4794 <stream_vscanf+0x158>
    4988:	fdf57613          	and	a2,a0,-33
    498c:	fbf60613          	add	a2,a2,-65
    4990:	4595                	li	a1,5
    4992:	e0c5e1e3          	bltu	a1,a2,4794 <stream_vscanf+0x158>
    4996:	d266                	sw	s9,36(sp)
    4998:	4ba5                	li	s7,9
    499a:	4481                	li	s1,0
    499c:	4c95                	li	s9,5
    499e:	04ebfd63          	bgeu	s7,a4,49f8 <stream_vscanf+0x3bc>
    49a2:	47c1                	li	a5,16
    49a4:	12f99c63          	bne	s3,a5,4adc <stream_vscanf+0x4a0>
    49a8:	f9f50713          	add	a4,a0,-97
    49ac:	12ecf063          	bgeu	s9,a4,4acc <stream_vscanf+0x490>
    49b0:	fbf50713          	add	a4,a0,-65
    49b4:	12ece463          	bltu	s9,a4,4adc <stream_vscanf+0x4a0>
    49b8:	4792                	lw	a5,4(sp)
    49ba:	c799                	beqz	a5,49c8 <stream_vscanf+0x38c>
    49bc:	00449613          	sll	a2,s1,0x4
    49c0:	fc950713          	add	a4,a0,-55
    49c4:	00c704b3          	add	s1,a4,a2
    49c8:	000da703          	lw	a4,0(s11)
    49cc:	856e                	mv	a0,s11
    49ce:	4358                	lw	a4,4(a4)
    49d0:	9702                	jalr	a4
    49d2:	000da703          	lw	a4,0(s11)
    49d6:	856e                	mv	a0,s11
    49d8:	4718                	lw	a4,8(a4)
    49da:	9702                	jalr	a4
    49dc:	fffa0693          	add	a3,s4,-1
    49e0:	01069a13          	sll	s4,a3,0x10
    49e4:	010a5a13          	srl	s4,s4,0x10
    49e8:	0e054a63          	bltz	a0,4adc <stream_vscanf+0x4a0>
    49ec:	0e0a0863          	beqz	s4,4adc <stream_vscanf+0x4a0>
    49f0:	fd050713          	add	a4,a0,-48
    49f4:	faebe7e3          	bltu	s7,a4,49a2 <stream_vscanf+0x366>
    49f8:	4792                	lw	a5,4(sp)
    49fa:	d7f9                	beqz	a5,49c8 <stream_vscanf+0x38c>
    49fc:	47a1                	li	a5,8
    49fe:	00349613          	sll	a2,s1,0x3
    4a02:	fcf981e3          	beq	s3,a5,49c4 <stream_vscanf+0x388>
    4a06:	47a9                	li	a5,10
    4a08:	10f99563          	bne	s3,a5,4b12 <stream_vscanf+0x4d6>
    4a0c:	00249613          	sll	a2,s1,0x2
    4a10:	9626                	add	a2,a2,s1
    4a12:	0606                	sll	a2,a2,0x1
    4a14:	bf45                	j	49c4 <stream_vscanf+0x388>
    4a16:	000da703          	lw	a4,0(s11)
    4a1a:	856e                	mv	a0,s11
    4a1c:	4358                	lw	a4,4(a4)
    4a1e:	9702                	jalr	a4
    4a20:	b71d                	j	4946 <stream_vscanf+0x30a>
    4a22:	4729                	li	a4,10
    4a24:	01976663          	bltu	a4,s9,4a30 <stream_vscanf+0x3f4>
    4a28:	4721                	li	a4,8
    4a2a:	e59771e3          	bgeu	a4,s9,486c <stream_vscanf+0x230>
    4a2e:	b709                	j	4930 <stream_vscanf+0x2f4>
    4a30:	02000713          	li	a4,32
    4a34:	e2ec9ce3          	bne	s9,a4,486c <stream_vscanf+0x230>
    4a38:	bde5                	j	4930 <stream_vscanf+0x2f4>
    4a3a:	4782                	lw	a5,0(sp)
    4a3c:	05d00713          	li	a4,93
    4a40:	4e85                	li	t4,1
    4a42:	0017c803          	lbu	a6,1(a5)
    4a46:	00278513          	add	a0,a5,2
    4a4a:	e6e819e3          	bne	a6,a4,48bc <stream_vscanf+0x280>
    4a4e:	bd39                	j	486c <stream_vscanf+0x230>
    4a50:	8546                	mv	a0,a7
    4a52:	889a                	mv	a7,t1
    4a54:	bd59                	j	48ea <stream_vscanf+0x2ae>
    4a56:	4792                	lw	a5,4(sp)
    4a58:	ec978fe3          	beq	a5,s1,4936 <stream_vscanf+0x2fa>
    4a5c:	06300713          	li	a4,99
    4a60:	00ed0463          	beq	s10,a4,4a68 <stream_vscanf+0x42c>
    4a64:	00048023          	sb	zero,0(s1)
    4a68:	4792                	lw	a5,4(sp)
    4a6a:	5bb2                	lw	s7,44(sp)
    4a6c:	5c92                	lw	s9,36(sp)
    4a6e:	00f037b3          	snez	a5,a5
    4a72:	9c3e                	add	s8,s8,a5
    4a74:	b30d                	j	4796 <stream_vscanf+0x15a>
    4a76:	d65e                	sw	s7,44(sp)
    4a78:	d266                	sw	s9,36(sp)
    4a7a:	b351                	j	47fe <stream_vscanf+0x1c2>
    4a7c:	4785                	li	a5,1
    4a7e:	8d3e                	mv	s10,a5
    4a80:	000da703          	lw	a4,0(s11)
    4a84:	856e                	mv	a0,s11
    4a86:	4358                	lw	a4,4(a4)
    4a88:	9702                	jalr	a4
    4a8a:	fffa0693          	add	a3,s4,-1
    4a8e:	01069a13          	sll	s4,a3,0x10
    4a92:	010a5a13          	srl	s4,s4,0x10
    4a96:	ce0a0fe3          	beqz	s4,4794 <stream_vscanf+0x158>
    4a9a:	000da703          	lw	a4,0(s11)
    4a9e:	4b10                	lw	a2,16(a4)
    4aa0:	c619                	beqz	a2,4aae <stream_vscanf+0x472>
    4aa2:	856e                	mv	a0,s11
    4aa4:	9602                	jalr	a2
    4aa6:	ce0517e3          	bnez	a0,4794 <stream_vscanf+0x158>
    4aaa:	000da703          	lw	a4,0(s11)
    4aae:	4718                	lw	a4,8(a4)
    4ab0:	856e                	mv	a0,s11
    4ab2:	9702                	jalr	a4
    4ab4:	b5d1                	j	4978 <stream_vscanf+0x33c>
    4ab6:	00144583          	lbu	a1,1(s0)
    4aba:	00140713          	add	a4,s0,1
    4abe:	b32d                	j	47e8 <stream_vscanf+0x1ac>
    4ac0:	d65e                	sw	s7,44(sp)
    4ac2:	49a1                	li	s3,8
    4ac4:	bdb5                	j	4940 <stream_vscanf+0x304>
    4ac6:	d65e                	sw	s7,44(sp)
    4ac8:	49a9                	li	s3,10
    4aca:	bd9d                	j	4940 <stream_vscanf+0x304>
    4acc:	4792                	lw	a5,4(sp)
    4ace:	ee078de3          	beqz	a5,49c8 <stream_vscanf+0x38c>
    4ad2:	00449613          	sll	a2,s1,0x4
    4ad6:	fa950713          	add	a4,a0,-87
    4ada:	b5ed                	j	49c4 <stream_vscanf+0x388>
    4adc:	4792                	lw	a5,4(sp)
    4ade:	e4078ce3          	beqz	a5,4936 <stream_vscanf+0x2fa>
    4ae2:	000d0463          	beqz	s10,4aea <stream_vscanf+0x4ae>
    4ae6:	409004b3          	neg	s1,s1
    4aea:	4792                	lw	a5,4(sp)
    4aec:	000a9c63          	bnez	s5,4b04 <stream_vscanf+0x4c8>
    4af0:	00979023          	sh	s1,0(a5)
    4af4:	5bb2                	lw	s7,44(sp)
    4af6:	5c92                	lw	s9,36(sp)
    4af8:	0c05                	add	s8,s8,1
    4afa:	b971                	j	4796 <stream_vscanf+0x15a>
    4afc:	c022                	sw	s0,0(sp)
    4afe:	00170413          	add	s0,a4,1
    4b02:	b9f5                	j	47fe <stream_vscanf+0x1c2>
    4b04:	c384                	sw	s1,0(a5)
    4b06:	b7fd                	j	4af4 <stream_vscanf+0x4b8>
    4b08:	5ad2                	lw	s5,52(sp)
    4b0a:	5d02                	lw	s10,32(sp)
    4b0c:	c60c18e3          	bnez	s8,477c <stream_vscanf+0x140>
    4b10:	b1ad                	j	477a <stream_vscanf+0x13e>
    4b12:	00449613          	sll	a2,s1,0x4
    4b16:	b57d                	j	49c4 <stream_vscanf+0x388>
    4b18:	6572                	.insn	2, 0x6572
    4b1a:	20746573          	csrrs	a0,0x207,8
    4b1e:	6425                	lui	s0,0x9
    4b20:	0a0d                	add	s4,s4,3
    4b22:	0000                	unimp
    4b24:	72617473          	csrrc	s0,mhpmevent6h,2
    4b28:	6974                	.insn	2, 0x6974
    4b2a:	676e                	.insn	2, 0x676e
    4b2c:	7420                	.insn	2, 0x7420
    4b2e:	6568                	.insn	2, 0x6568
    4b30:	7220                	.insn	2, 0x7220
    4b32:	7365                	lui	t1,0xffff9
    4b34:	7465                	lui	s0,0xffff9
    4b36:	0a0d                	add	s4,s4,3
    4b38:	0000                	unimp
    4b3a:	0000                	unimp
    4b3c:	706d6f43          	.insn	4, 0x706d6f43
    4b40:	656c                	.insn	2, 0x656c
    4b42:	6574                	.insn	2, 0x6574
    4b44:	2064                	.insn	2, 0x2064
    4b46:	6874                	.insn	2, 0x6874
    4b48:	2065                	jal	4bf0 <stream_vscanf+0x5b4>
    4b4a:	6572                	.insn	2, 0x6572
    4b4c:	0d746573          	csrrs	a0,0xd7,8
    4b50:	000a                	c.slli	zero,0x2
    4b52:	0000                	unimp
    4b54:	6d305b1b          	.insn	4, 0x6d305b1b
    4b58:	0000                	unimp
    4b5a:	0000                	unimp
    4b5c:	4952                	lw	s2,20(sp)
    4b5e:	4d204353          	.insn	4, 0x4d204353
    4b62:	5550                	lw	a2,44(a0)
    4b64:	5320                	lw	s0,96(a4)
    4b66:	6174                	.insn	2, 0x6174
    4b68:	7472                	.insn	2, 0x7472
    4b6a:	7075                	c.lui	zero,0xffffd
    4b6c:	6320                	.insn	2, 0x6320
    4b6e:	2065726f          	jal	tp,5bd74 <_end+0x513b4>
    4b72:	2e32                	.insn	2, 0x2e32
    4b74:	0d34                	add	a3,sp,664
    4b76:	000a                	c.slli	zero,0x2
    4b78:	61657243          	.insn	4, 0x61657243
    4b7c:	6574                	.insn	2, 0x6574
    4b7e:	2064                	.insn	2, 0x2064
    4b80:	7942                	.insn	2, 0x7942
    4b82:	4d20                	lw	s0,88(a0)
    4b84:	7a61                	lui	s4,0xffff8
    4b86:	6d61                	lui	s10,0x18
    4b88:	7261                	lui	tp,0xffff8
    4b8a:	32313373          	csrrc	t1,mhpmevent3,sp
    4b8e:	0a0d                	add	s4,s4,3 # ffff8003 <_end+0xfffed643>
    4b90:	0000                	unimp
    4b92:	0000                	unimp
    4b94:	614d                	add	sp,sp,176
    4b96:	6920656b          	.insn	4, 0x6920656b
    4b9a:	206e                	.insn	2, 0x206e
    4b9c:	3032                	.insn	2, 0x3032
    4b9e:	3232                	.insn	2, 0x3232
    4ba0:	0a0d                	add	s4,s4,3
    4ba2:	0000                	unimp
    4ba4:	2049                	jal	4c26 <stream_vscanf+0x5ea>
    4ba6:	6168                	.insn	2, 0x6168
    4ba8:	6574                	.insn	2, 0x6574
    4baa:	7420                	.insn	2, 0x7420
    4bac:	6968                	.insn	2, 0x6968
    4bae:	65642073          	csrs	hviprio1h,s0
    4bb2:	7562                	.insn	2, 0x7562
    4bb4:	72656767          	.insn	4, 0x72656767
    4bb8:	4c20                	lw	s0,88(s0)
    4bba:	0a0d4c4f          	.insn	4, 0x0a0d4c4f
    4bbe:	0000                	unimp
    4bc0:	6261                	lui	tp,0x18
    4bc2:	2074756f          	jal	a0,4c5c8 <_end+0x41c08>
    4bc6:	6f74                	.insn	2, 0x6f74
    4bc8:	6720                	.insn	2, 0x6720
    4bca:	6e69206f          	j	972b0 <_end+0x8c8f0>
    4bce:	6220                	.insn	2, 0x6220
    4bd0:	6261                	lui	tp,0x18
    4bd2:	0d79                	add	s10,s10,30 # 1801e <_end+0xd65e>
    4bd4:	000a                	c.slli	zero,0x2
    4bd6:	0000                	unimp
    4bd8:	6144                	.insn	2, 0x6144
    4bda:	6174                	.insn	2, 0x6174
    4bdc:	5320                	lw	s0,96(a4)
    4bde:	6f6c                	.insn	2, 0x6f6c
    4be0:	2074                	.insn	2, 0x2074
    4be2:	7055                	c.lui	zero,0xffff5
    4be4:	6164                	.insn	2, 0x6164
    4be6:	6574                	.insn	2, 0x6574
    4be8:	0a0d                	add	s4,s4,3
    4bea:	0000                	unimp
    4bec:	6144                	.insn	2, 0x6144
    4bee:	6174                	.insn	2, 0x6174
    4bf0:	5320                	lw	s0,96(a4)
    4bf2:	6f6c                	.insn	2, 0x6f6c
    4bf4:	2074                	.insn	2, 0x2074
    4bf6:	6f64                	.insn	2, 0x6f64
    4bf8:	656e                	.insn	2, 0x656e
    4bfa:	0a0d                	add	s4,s4,3
    4bfc:	0000                	unimp
    4bfe:	0000                	unimp
    4c00:	6572                	.insn	2, 0x6572
    4c02:	20746573          	csrrs	a0,0x207,8
    4c06:	72617473          	csrrc	s0,mhpmevent6h,2
    4c0a:	0074                	add	a3,sp,12
    4c0c:	6572                	.insn	2, 0x6572
    4c0e:	20746573          	csrrs	a0,0x207,8
    4c12:	0031                	c.nop	12
    4c14:	6572                	.insn	2, 0x6572
    4c16:	20746573          	csrrs	a0,0x207,8
    4c1a:	0032                	c.slli	zero,0xc
    4c1c:	6572                	.insn	2, 0x6572
    4c1e:	20746573          	csrrs	a0,0x207,8
    4c22:	5b1b0033          	.insn	4, 0x5b1b0033
    4c26:	313b3833          	.insn	4, 0x313b3833
    4c2a:	436d353b          	.insn	4, 0x436d353b
    4c2e:	6568                	.insn	2, 0x6568
    4c30:	63206b63          	bltu	zero,s2,5266 <stream_vscanf+0xc2a>
    4c34:	7365646f          	jal	s0,5b36a <_end+0x509aa>
    4c38:	2520                	.insn	2, 0x2520
    4c3a:	2e30                	.insn	2, 0x2e30
    4c3c:	5834                	lw	a3,112(s0)
    4c3e:	6d305b1b          	.insn	4, 0x6d305b1b
    4c42:	0a0d                	add	s4,s4,3
    4c44:	0000                	unimp
    4c46:	0000                	unimp
    4c48:	756e                	.insn	2, 0x756e
    4c4a:	626d                	lui	tp,0x1b
    4c4c:	7265                	lui	tp,0xffff9
    4c4e:	7620                	.insn	2, 0x7620
    4c50:	6c61                	lui	s8,0x18
    4c52:	6575                	lui	a0,0x1d
    4c54:	203a                	.insn	2, 0x203a
    4c56:	6425                	lui	s0,0x9
    4c58:	0d20                	add	s0,sp,664
    4c5a:	000a                	c.slli	zero,0x2
    4c5c:	756e                	.insn	2, 0x756e
    4c5e:	626d                	lui	tp,0x1b
    4c60:	7265                	lui	tp,0xffff9
    4c62:	7320                	.insn	2, 0x7320
    4c64:	7a69                	lui	s4,0xffffa
    4c66:	3a65                	jal	461e <strstr+0x1a>
    4c68:	2520                	.insn	2, 0x2520
    4c6a:	2064                	.insn	2, 0x2064
    4c6c:	0a0d                	add	s4,s4,3 # ffffa003 <_end+0xfffef643>
    4c6e:	0000                	unimp
    4c70:	5041                	c.li	zero,-16
    4c72:	2046                	.insn	2, 0x2046
    4c74:	6572                	.insn	2, 0x6572
    4c76:	6461                	lui	s0,0x18
    4c78:	203a                	.insn	2, 0x203a
    4c7a:	6425                	lui	s0,0x9
    4c7c:	202c                	.insn	2, 0x202c
    4c7e:	3025                	jal	44a6 <snprintf+0x2>
    4c80:	342e                	.insn	2, 0x342e
    4c82:	2c78                	.insn	2, 0x2c78
    4c84:	2520                	.insn	2, 0x2520
    4c86:	2e30                	.insn	2, 0x2e30
    4c88:	7834                	.insn	2, 0x7834
    4c8a:	202c                	.insn	2, 0x202c
    4c8c:	6425                	lui	s0,0x9
    4c8e:	0a0d                	add	s4,s4,3
    4c90:	0000                	unimp
    4c92:	0000                	unimp
    4c94:	36335b1b          	.insn	4, 0x36335b1b
    4c98:	343b353b          	.insn	4, 0x343b353b
    4c9c:	416d                	li	sp,27
    4c9e:	4650                	lw	a2,12(a2)
    4ca0:	4620                	lw	s0,72(a2)
    4ca2:	4941                	li	s2,16
    4ca4:	444c                	lw	a1,12(s0)
    4ca6:	6420                	.insn	2, 0x6420
    4ca8:	7461                	lui	s0,0xffff8
    4caa:	7361                	lui	t1,0xffff8
    4cac:	6f6c                	.insn	2, 0x6f6c
    4cae:	5f74                	lw	a3,124(a4)
    4cb0:	6572                	.insn	2, 0x6572
    4cb2:	6461                	lui	s0,0x18
    4cb4:	6320                	.insn	2, 0x6320
    4cb6:	6568                	.insn	2, 0x6568
    4cb8:	203f6b63          	bltu	t5,gp,4ece <stream_vscanf+0x892>
    4cbc:	6164                	.insn	2, 0x6164
    4cbe:	6174                	.insn	2, 0x6174
    4cc0:	746f6c73          	csrrs	s8,0x746,30
    4cc4:	2520                	.insn	2, 0x2520
    4cc6:	2c64                	.insn	2, 0x2c64
    4cc8:	6120                	.insn	2, 0x6120
    4cca:	6464                	.insn	2, 0x6464
    4ccc:	6572                	.insn	2, 0x6572
    4cce:	25207373          	csrrc	t1,0x252,0
    4cd2:	2e30                	.insn	2, 0x2e30
    4cd4:	5834                	lw	a3,112(s0)
    4cd6:	202c                	.insn	2, 0x202c
    4cd8:	7366666f          	jal	a2,6b40e <_end+0x60a4e>
    4cdc:	7465                	lui	s0,0xffff9
    4cde:	3025                	jal	4506 <sscanf+0xa>
    4ce0:	342e                	.insn	2, 0x342e
    4ce2:	2c58                	.insn	2, 0x2c58
    4ce4:	6c20                	.insn	2, 0x6c20
    4ce6:	6e65                	lui	t3,0x19
    4ce8:	25687467          	.insn	4, 0x25687467
    4cec:	2e30                	.insn	2, 0x2e30
    4cee:	5834                	lw	a3,112(s0)
    4cf0:	6520                	.insn	2, 0x6520
    4cf2:	7272                	.insn	2, 0x7272
    4cf4:	2520726f          	jal	tp,bf46 <_end+0x1586>
    4cf8:	2e30                	.insn	2, 0x2e30
    4cfa:	5834                	lw	a3,112(s0)
    4cfc:	1b20                	add	s0,sp,440
    4cfe:	0d6d305b          	.insn	4, 0x0d6d305b
    4d02:	000a                	c.slli	zero,0x2
    4d04:	36335b1b          	.insn	4, 0x36335b1b
    4d08:	343b353b          	.insn	4, 0x343b353b
    4d0c:	416d                	li	sp,27
    4d0e:	4650                	lw	a2,12(a2)
    4d10:	4620                	lw	s0,72(a2)
    4d12:	4941                	li	s2,16
    4d14:	444c                	lw	a1,12(s0)
    4d16:	6420                	.insn	2, 0x6420
    4d18:	7461                	lui	s0,0xffff8
    4d1a:	7361                	lui	t1,0xffff8
    4d1c:	6f6c                	.insn	2, 0x6f6c
    4d1e:	5f74                	lw	a3,124(a4)
    4d20:	6572                	.insn	2, 0x6572
    4d22:	6461                	lui	s0,0x18
    4d24:	6420                	.insn	2, 0x6420
    4d26:	3f656e6f          	jal	t3,5b11c <_end+0x5075c>
    4d2a:	6420                	.insn	2, 0x6420
    4d2c:	7461                	lui	s0,0xffff8
    4d2e:	7361                	lui	t1,0xffff8
    4d30:	6f6c                	.insn	2, 0x6f6c
    4d32:	2074                	.insn	2, 0x2074
    4d34:	6425                	lui	s0,0x9
    4d36:	202c                	.insn	2, 0x202c
    4d38:	6461                	lui	s0,0x18
    4d3a:	7264                	.insn	2, 0x7264
    4d3c:	7365                	lui	t1,0xffff9
    4d3e:	30252073          	csrs	medeleg,a0
    4d42:	342e                	.insn	2, 0x342e
    4d44:	2c58                	.insn	2, 0x2c58
    4d46:	6f20                	.insn	2, 0x6f20
    4d48:	6666                	.insn	2, 0x6666
    4d4a:	20746573          	csrrs	a0,0x207,8
    4d4e:	3025                	jal	4576 <strncpy+0x1e>
    4d50:	342e                	.insn	2, 0x342e
    4d52:	2c58                	.insn	2, 0x2c58
    4d54:	6c20                	.insn	2, 0x6c20
    4d56:	6e65                	lui	t3,0x19
    4d58:	20687467          	.insn	4, 0x20687467
    4d5c:	3025                	jal	4584 <strncpy+0x2c>
    4d5e:	342e                	.insn	2, 0x342e
    4d60:	2058                	.insn	2, 0x2058
    4d62:	7265                	lui	tp,0xffff9
    4d64:	6f72                	.insn	2, 0x6f72
    4d66:	2072                	.insn	2, 0x2072
    4d68:	3025                	jal	4590 <strncpy+0x38>
    4d6a:	342e                	.insn	2, 0x342e
    4d6c:	1b58                	add	a4,sp,436
    4d6e:	0d6d305b          	.insn	4, 0x0d6d305b
    4d72:	000a                	c.slli	zero,0x2
    4d74:	38335b1b          	.insn	4, 0x38335b1b
    4d78:	353b313b          	.insn	4, 0x353b313b
    4d7c:	646d                	lui	s0,0x1b
    4d7e:	1b656e6f          	jal	t3,5af34 <_end+0x50574>
    4d82:	0d6d305b          	.insn	4, 0x0d6d305b
    4d86:	000a                	c.slli	zero,0x2
    4d88:	38335b1b          	.insn	4, 0x38335b1b
    4d8c:	363b313b          	.insn	4, 0x363b313b
    4d90:	526d                	li	tp,-5
    4d92:	4145                	li	sp,17
    4d94:	5f44                	lw	s1,60(a4)
    4d96:	4154                	lw	a3,4(a0)
    4d98:	4752                	lw	a4,20(sp)
    4d9a:	5445                	li	s0,-15
    4d9c:	445f 5441 5341      	.insn	6, 0x53415441445f
    4da2:	4f4c                	lw	a1,28(a4)
    4da4:	5f54                	lw	a3,60(a4)
    4da6:	55544553          	.insn	4, 0x55544553
    4daa:	2050                	.insn	2, 0x2050
    4dac:	7366664f          	.insn	4, 0x7366664f
    4db0:	7465                	lui	s0,0xffff9
    4db2:	2520                	.insn	2, 0x2520
    4db4:	2e30                	.insn	2, 0x2e30
    4db6:	7834                	.insn	2, 0x7834
    4db8:	202c                	.insn	2, 0x202c
    4dba:	3025                	jal	45e2 <buf_putchar+0x8>
    4dbc:	342e                	.insn	2, 0x342e
    4dbe:	2c78                	.insn	2, 0x2c78
    4dc0:	2520                	.insn	2, 0x2520
    4dc2:	2064                	.insn	2, 0x2064
    4dc4:	6d305b1b          	.insn	4, 0x6d305b1b
    4dc8:	0a0d                	add	s4,s4,3
    4dca:	0000                	unimp
    4dcc:	4552                	lw	a0,20(sp)
    4dce:	4441                	li	s0,16
    4dd0:	545f 5241 4547      	.insn	6, 0x45475241545f
    4dd6:	5f54                	lw	a3,60(a4)
    4dd8:	4144                	lw	s1,4(a0)
    4dda:	4154                	lw	a3,4(a0)
    4ddc:	544f4c53          	.insn	4, 0x544f4c53
    4de0:	4c5f 4e45 5447      	.insn	6, 0x54474e454c5f
    4de6:	2048                	.insn	2, 0x2048
    4de8:	746e6553          	.insn	4, 0x746e6553
    4dec:	2520                	.insn	2, 0x2520
    4dee:	342e                	.insn	2, 0x342e
    4df0:	0d78                	add	a4,sp,668
    4df2:	000a                	c.slli	zero,0x2
    4df4:	36335b1b          	.insn	4, 0x36335b1b
    4df8:	343b353b          	.insn	4, 0x343b353b
    4dfc:	416d                	li	sp,27
    4dfe:	4650                	lw	a2,12(a2)
    4e00:	4620                	lw	s0,72(a2)
    4e02:	4941                	li	s2,16
    4e04:	444c                	lw	a1,12(s0)
    4e06:	7220                	.insn	2, 0x7220
    4e08:	6165                	add	sp,sp,112
    4e0a:	5f64                	lw	s1,124(a4)
    4e0c:	626c                	.insn	2, 0x626c
    4e0e:	3f61                	jal	4da6 <stream_vscanf+0x76a>
    4e10:	6120                	.insn	2, 0x6120
    4e12:	6464                	.insn	2, 0x6464
    4e14:	6572                	.insn	2, 0x6572
    4e16:	25207373          	csrrc	t1,0x252,0
    4e1a:	2e30                	.insn	2, 0x2e30
    4e1c:	5834                	lw	a3,112(s0)
    4e1e:	202c                	.insn	2, 0x202c
    4e20:	7366664f          	.insn	4, 0x7366664f
    4e24:	7465                	lui	s0,0xffff9
    4e26:	2520                	.insn	2, 0x2520
    4e28:	2e30                	.insn	2, 0x2e30
    4e2a:	5834                	lw	a3,112(s0)
    4e2c:	202c                	.insn	2, 0x202c
    4e2e:	656c                	.insn	2, 0x656c
    4e30:	676e                	.insn	2, 0x676e
    4e32:	6874                	.insn	2, 0x6874
    4e34:	2520                	.insn	2, 0x2520
    4e36:	2e30                	.insn	2, 0x2e30
    4e38:	5834                	lw	a3,112(s0)
    4e3a:	6d305b1b          	.insn	4, 0x6d305b1b
    4e3e:	0a0d                	add	s4,s4,3
    4e40:	0000                	unimp
    4e42:	0000                	unimp
    4e44:	6164                	.insn	2, 0x6164
    4e46:	6174                	.insn	2, 0x6174
    4e48:	746f6c73          	csrrs	s8,0x746,30
    4e4c:	705f 7461 6e68      	.insn	6, 0x6e687461705f
    4e52:	6d61                	lui	s10,0x18
    4e54:	5f65                	li	t5,-7
    4e56:	6966                	.insn	2, 0x6966
    4e58:	656c                	.insn	2, 0x656c
    4e5a:	645f 6365 646f      	.insn	6, 0x646f6365645f
    4e60:	2065                	jal	4f08 <stream_vscanf+0x8cc>
    4e62:	6425                	lui	s0,0x9
    4e64:	2520                	.insn	2, 0x2520
    4e66:	64252073          	csrs	0x642,a0
    4e6a:	0d0a                	sll	s10,s10,0x2
    4e6c:	0000                	unimp
    4e6e:	0000                	unimp
    4e70:	6946                	.insn	2, 0x6946
    4e72:	656c                	.insn	2, 0x656c
    4e74:	4e20                	lw	s0,88(a2)
    4e76:	6d61                	lui	s10,0x18
    4e78:	2065                	jal	4f20 <stream_vscanf+0x8e4>
    4e7a:	7325                	lui	t1,0xfffe9
    4e7c:	0a0d                	add	s4,s4,3
    4e7e:	0000                	unimp
    4e80:	6946                	.insn	2, 0x6946
    4e82:	656c                	.insn	2, 0x656c
    4e84:	5020                	lw	s0,96(s0)
    4e86:	7461                	lui	s0,0xffff8
    4e88:	2068                	.insn	2, 0x2068
    4e8a:	7325                	lui	t1,0xfffe9
    4e8c:	0a0d                	add	s4,s4,3
    4e8e:	0000                	unimp
    4e90:	6144                	.insn	2, 0x6144
    4e92:	6174                	.insn	2, 0x6174
    4e94:	5320                	lw	s0,96(a4)
    4e96:	6f6c                	.insn	2, 0x6f6c
    4e98:	2074                	.insn	2, 0x2074
    4e9a:	6544                	.insn	2, 0x6544
    4e9c:	65646f63          	bltu	s0,s6,54fa <stream_vscanf+0xebe>
    4ea0:	6420                	.insn	2, 0x6420
    4ea2:	0d656e6f          	jal	t3,5af78 <_end+0x505b8>
    4ea6:	000a                	c.slli	zero,0x2
    4ea8:	6164                	.insn	2, 0x6164
    4eaa:	6174                	.insn	2, 0x6174
    4eac:	746f6c73          	csrrs	s8,0x746,30
    4eb0:	5320                	lw	s0,96(a4)
    4eb2:	7465                	lui	s0,0xffff9
    4eb4:	4620                	lw	s0,72(a2)
    4eb6:	6c69                	lui	s8,0x1a
    4eb8:	6e65                	lui	t3,0x19
    4eba:	6d61                	lui	s10,0x18
    4ebc:	2065                	jal	4f64 <stream_vscanf+0x928>
    4ebe:	0a0d                	add	s4,s4,3
    4ec0:	0000                	unimp
    4ec2:	0000                	unimp
    4ec4:	36335b1b          	.insn	4, 0x36335b1b
    4ec8:	343b353b          	.insn	4, 0x343b353b
    4ecc:	416d                	li	sp,27
    4ece:	4650                	lw	a2,12(a2)
    4ed0:	4620                	lw	s0,72(a2)
    4ed2:	4941                	li	s2,16
    4ed4:	444c                	lw	a1,12(s0)
    4ed6:	4620                	lw	s0,72(a2)
    4ed8:	6c69                	lui	s8,0x1a
    4eda:	2065                	jal	4f82 <stream_vscanf+0x946>
    4edc:	614e                	.insn	2, 0x614e
    4ede:	656d                	lui	a0,0x1b
    4ee0:	4420                	lw	s0,72(s0)
    4ee2:	7461                	lui	s0,0xffff8
    4ee4:	7361                	lui	t1,0xffff8
    4ee6:	6f6c                	.insn	2, 0x6f6c
    4ee8:	3f74                	.insn	2, 0x3f74
    4eea:	6c20                	.insn	2, 0x6c20
    4eec:	6e65                	lui	t3,0x19
    4eee:	25687467          	.insn	4, 0x25687467
    4ef2:	2e30                	.insn	2, 0x2e30
    4ef4:	5834                	lw	a3,112(s0)
    4ef6:	6d305b1b          	.insn	4, 0x6d305b1b
    4efa:	0a0d                	add	s4,s4,3
    4efc:	0000                	unimp
    4efe:	0000                	unimp
    4f00:	6946                	.insn	2, 0x6946
    4f02:	656c                	.insn	2, 0x656c
    4f04:	4420                	lw	s0,72(s0)
    4f06:	7461                	lui	s0,0xffff8
    4f08:	7361                	lui	t1,0xffff8
    4f0a:	6f6c                	.insn	2, 0x6f6c
    4f0c:	2074                	.insn	2, 0x2074
    4f0e:	6144                	.insn	2, 0x6144
    4f10:	6174                	.insn	2, 0x6174
    4f12:	2520                	.insn	2, 0x2520
    4f14:	000d0a73          	.insn	4, 0x000d0a73
    4f18:	6944                	.insn	2, 0x6944
    4f1a:	6572                	.insn	2, 0x6572
    4f1c:	726f7463          	bgeu	t5,t1,5644 <stream_vscanf+0x1008>
    4f20:	2079                	jal	4fae <stream_vscanf+0x972>
    4f22:	7325                	lui	t1,0xfffe9
    4f24:	0d20                	add	s0,sp,664
    4f26:	200a                	.insn	2, 0x200a
    4f28:	6946                	.insn	2, 0x6946
    4f2a:	656c                	.insn	2, 0x656c
    4f2c:	6e20                	.insn	2, 0x6e20
    4f2e:	6d61                	lui	s10,0x18
    4f30:	2065                	jal	4fd8 <stream_vscanf+0x99c>
    4f32:	7325                	lui	t1,0xfffe9
    4f34:	0d20                	add	s0,sp,664
    4f36:	200a                	.insn	2, 0x200a
    4f38:	6f6d                	lui	t5,0x1b
    4f3a:	6572                	.insn	2, 0x6572
    4f3c:	6920                	.insn	2, 0x6920
    4f3e:	666e                	.insn	2, 0x666e
    4f40:	616d726f          	jal	tp,dc556 <_end+0xd1b96>
    4f44:	6974                	.insn	2, 0x6974
    4f46:	25206e6f          	jal	t3,b198 <_end+0x7d8>
    4f4a:	2e30                	.insn	2, 0x2e30
    4f4c:	7838                	.insn	2, 0x7838
    4f4e:	2520                	.insn	2, 0x2520
    4f50:	2e30                	.insn	2, 0x2e30
    4f52:	7838                	.insn	2, 0x7838
    4f54:	0a0d                	add	s4,s4,3
    4f56:	0000                	unimp
    4f58:	6164                	.insn	2, 0x6164
    4f5a:	6174                	.insn	2, 0x6174
    4f5c:	746f6c73          	csrrs	s8,0x746,30
    4f60:	4f20                	lw	s0,88(a4)
    4f62:	6570                	.insn	2, 0x6570
    4f64:	206e                	.insn	2, 0x206e
    4f66:	2520                	.insn	2, 0x2520
    4f68:	2064                	.insn	2, 0x2064
    4f6a:	6e756f63          	bltu	a0,t2,5668 <stream_vscanf+0x102c>
    4f6e:	2074                	.insn	2, 0x2074
    4f70:	6425                	lui	s0,0x9
    4f72:	0a0d                	add	s4,s4,3
    4f74:	0000                	unimp
    4f76:	0000                	unimp
    4f78:	38335b1b          	.insn	4, 0x38335b1b
    4f7c:	353b313b          	.insn	4, 0x353b313b
    4f80:	446d                	li	s0,27
    4f82:	7461                	lui	s0,0xffff8
    4f84:	2061                	jal	500c <stream_vscanf+0x9d0>
    4f86:	657a6953          	.insn	4, 0x657a6953
    4f8a:	2520                	.insn	2, 0x2520
    4f8c:	2e30                	.insn	2, 0x2e30
    4f8e:	5834                	lw	a3,112(s0)
    4f90:	2520                	.insn	2, 0x2520
    4f92:	2e30                	.insn	2, 0x2e30
    4f94:	5834                	lw	a3,112(s0)
    4f96:	2520                	.insn	2, 0x2520
    4f98:	2e30                	.insn	2, 0x2e30
    4f9a:	5834                	lw	a3,112(s0)
    4f9c:	6d305b1b          	.insn	4, 0x6d305b1b
    4fa0:	0a0d                	add	s4,s4,3
    4fa2:	0000                	unimp
    4fa4:	6e616843          	.insn	4, 0x6e616843
    4fa8:	66206567          	.insn	4, 0x66206567
    4fac:	6c69                	lui	s8,0x1a
    4fae:	0d65                	add	s10,s10,25 # 18019 <_end+0xd659>
    4fb0:	000a                	c.slli	zero,0x2
    4fb2:	0000                	unimp
    4fb4:	7325                	lui	t1,0xfffe9
    4fb6:	7325                	lui	t1,0xfffe9
    4fb8:	0000                	unimp
    4fba:	0000                	unimp
    4fbc:	74636573          	csrrs	a0,0x746,6
    4fc0:	6220726f          	jal	tp,c5e2 <_end+0x1c22>
    4fc4:	6675                	lui	a2,0x1d
    4fc6:	6566                	.insn	2, 0x6566
    4fc8:	2072                	.insn	2, 0x2072
    4fca:	7250                	.insn	2, 0x7250
    4fcc:	7365636f          	jal	t1,5b702 <_end+0x50d42>
    4fd0:	676e6973          	csrrs	s2,0x676,28
    4fd4:	7520                	.insn	2, 0x7520
    4fd6:	0d70                	add	a2,sp,668
    4fd8:	000a                	c.slli	zero,0x2
    4fda:	0000                	unimp
    4fdc:	74636573          	csrrs	a0,0x746,6
    4fe0:	6220726f          	jal	tp,c602 <_end+0x1c42>
    4fe4:	6675                	lui	a2,0x1d
    4fe6:	6566                	.insn	2, 0x6566
    4fe8:	2072                	.insn	2, 0x2072
    4fea:	7250                	.insn	2, 0x7250
    4fec:	7365636f          	jal	t1,5b722 <_end+0x50d62>
    4ff0:	676e6973          	csrrs	s2,0x676,28
    4ff4:	6420                	.insn	2, 0x6420
    4ff6:	0d6e776f          	jal	a4,ec0cc <_end+0xe170c>
    4ffa:	000a                	c.slli	zero,0x2
    4ffc:	68636163          	bltu	t1,t1,567e <stream_vscanf+0x1042>
    5000:	5f65                	li	t5,-7
    5002:	7562                	.insn	2, 0x7562
    5004:	6666                	.insn	2, 0x6666
    5006:	7265                	lui	tp,0xffff9
    5008:	305f 735f 6177      	.insn	6, 0x6177735f305f
    500e:	2070                	.insn	2, 0x2070
    5010:	2026                	.insn	2, 0x2026
    5012:	6321                	lui	t1,0x8
    5014:	6361                	lui	t1,0x18
    5016:	6568                	.insn	2, 0x6568
    5018:	625f 6675 6566      	.insn	6, 0x65666675625f
    501e:	5f72                	lw	t5,60(sp)
    5020:	2031                	jal	502c <stream_vscanf+0x9f0>
    5022:	2026                	.insn	2, 0x2026
    5024:	6321                	lui	t1,0x8
    5026:	6361                	lui	t1,0x18
    5028:	6568                	.insn	2, 0x6568
    502a:	625f 6675 6566      	.insn	6, 0x65666675625f
    5030:	5f72                	lw	t5,60(sp)
    5032:	0d30                	add	a2,sp,664
    5034:	000a                	c.slli	zero,0x2
    5036:	0000                	unimp
    5038:	68636163          	bltu	t1,t1,56ba <stream_vscanf+0x107e>
    503c:	5f65                	li	t5,-7
    503e:	7562                	.insn	2, 0x7562
    5040:	6666                	.insn	2, 0x6666
    5042:	7265                	lui	tp,0xffff9
    5044:	315f 735f 6177      	.insn	6, 0x6177735f315f
    504a:	2070                	.insn	2, 0x2070
    504c:	2026                	.insn	2, 0x2026
    504e:	6321                	lui	t1,0x8
    5050:	6361                	lui	t1,0x18
    5052:	6568                	.insn	2, 0x6568
    5054:	625f 6675 6566      	.insn	6, 0x65666675625f
    505a:	5f72                	lw	t5,60(sp)
    505c:	2031                	jal	5068 <stream_vscanf+0xa2c>
    505e:	2026                	.insn	2, 0x2026
    5060:	6321                	lui	t1,0x8
    5062:	6361                	lui	t1,0x18
    5064:	6568                	.insn	2, 0x6568
    5066:	625f 6675 6566      	.insn	6, 0x65666675625f
    506c:	5f72                	lw	t5,60(sp)
    506e:	0d30                	add	a2,sp,664
    5070:	000a                	c.slli	zero,0x2
    5072:	0000                	unimp
    5074:	64206577          	.insn	4, 0x64206577
    5078:	6469                	lui	s0,0x1a
    507a:	7420                	.insn	2, 0x7420
    507c:	6568                	.insn	2, 0x6568
    507e:	6120                	.insn	2, 0x6120
    5080:	6c20                	.insn	2, 0x6c20
    5082:	2064616f          	jal	sp,4b288 <_end+0x408c8>
    5086:	6572                	.insn	2, 0x6572
    5088:	7571                	lui	a0,0xffffc
    508a:	7365                	lui	t1,0xffff9
    508c:	2074                	.insn	2, 0x2074
    508e:	6f4c                	.insn	2, 0x6f4c
    5090:	6461                	lui	s0,0x18
    5092:	2520                	.insn	2, 0x2520
    5094:	2064                	.insn	2, 0x2064
    5096:	6425                	lui	s0,0x9
    5098:	2520                	.insn	2, 0x2520
    509a:	2064                	.insn	2, 0x2064
    509c:	6425                	lui	s0,0x9
    509e:	2520                	.insn	2, 0x2520
    50a0:	2064                	.insn	2, 0x2064
    50a2:	6425                	lui	s0,0x9
    50a4:	0a0d                	add	s4,s4,3
    50a6:	0000                	unimp
    50a8:	64206577          	.insn	4, 0x64206577
    50ac:	6469                	lui	s0,0x1a
    50ae:	7420                	.insn	2, 0x7420
    50b0:	6568                	.insn	2, 0x6568
    50b2:	6120                	.insn	2, 0x6120
    50b4:	6620                	.insn	2, 0x6620
    50b6:	6c75                	lui	s8,0x1d
    50b8:	206c                	.insn	2, 0x206c
    50ba:	6f4c                	.insn	2, 0x6f4c
    50bc:	6461                	lui	s0,0x18
    50be:	0d20                	add	s0,sp,664
    50c0:	000a                	c.slli	zero,0x2
    50c2:	0000                	unimp
    50c4:	68636163          	bltu	t1,t1,5746 <stream_vscanf+0x110a>
    50c8:	5f65                	li	t5,-7
    50ca:	7562                	.insn	2, 0x7562
    50cc:	6666                	.insn	2, 0x6666
    50ce:	7265                	lui	tp,0xffff9
    50d0:	305f 2020 6163      	.insn	6, 0x61632020305f
    50d6:	5f656863          	bltu	a0,s6,56c6 <stream_vscanf+0x108a>
    50da:	7562                	.insn	2, 0x7562
    50dc:	6666                	.insn	2, 0x6666
    50de:	7265                	lui	tp,0xffff9
    50e0:	305f 735f 6177      	.insn	6, 0x6177735f305f
    50e6:	2070                	.insn	2, 0x2070
    50e8:	6f4c                	.insn	2, 0x6f4c
    50ea:	6461                	lui	s0,0x18
    50ec:	0a0d                	add	s4,s4,3
    50ee:	0000                	unimp
    50f0:	68636163          	bltu	t1,t1,5772 <stream_vscanf+0x1136>
    50f4:	5f65                	li	t5,-7
    50f6:	7562                	.insn	2, 0x7562
    50f8:	6666                	.insn	2, 0x6666
    50fa:	7265                	lui	tp,0xffff9
    50fc:	315f 7c20 6320      	.insn	6, 0x63207c20315f
    5102:	6361                	lui	t1,0x18
    5104:	6568                	.insn	2, 0x6568
    5106:	625f 6675 6566      	.insn	6, 0x65666675625f
    510c:	5f72                	lw	t5,60(sp)
    510e:	5f31                	li	t5,-20
    5110:	70617773          	csrrc	a4,0x706,2
    5114:	4c20                	lw	s0,88(s0)
    5116:	0d64616f          	jal	sp,4b1ec <_end+0x4082c>
    511a:	000a                	c.slli	zero,0x2
    511c:	424c                	lw	a1,4(a2)
    511e:	2041                	jal	519e <stream_vscanf+0xb62>
    5120:	6425                	lui	s0,0x9
    5122:	0d20                	add	s0,sp,664
    5124:	000a                	c.slli	zero,0x2
    5126:	0000                	unimp
    5128:	4946                	lw	s2,80(sp)
    512a:	454c                	lw	a1,12(a0)
    512c:	0000                	unimp
    512e:	0000                	unimp
    5130:	772e                	.insn	2, 0x772e
    5132:	7661                	lui	a2,0xffff8
    5134:	0000                	unimp
    5136:	0000                	unimp
    5138:	4942                	lw	s2,16(sp)
    513a:	414e                	lw	sp,208(sp)
    513c:	5952                	lw	s2,52(sp)
    513e:	0000                	unimp
    5140:	4f4d                	li	t5,19
    5142:	4f54                	lw	a3,28(a4)
    5144:	4f52                	lw	t5,20(sp)
    5146:	414c                	lw	a1,4(a0)
    5148:	0000                	unimp
    514a:	0000                	unimp
    514c:	45564157          	.insn	4, 0x45564157
    5150:	0000                	unimp
    5152:	0000                	unimp
    5154:	5254                	lw	a3,36(a2)
    5156:	4341                	li	t1,16
    5158:	6425204b          	.insn	4, 0x6425204b
    515c:	2520                	.insn	2, 0x2520
    515e:	732a                	.insn	2, 0x732a
    5160:	0000                	unimp
    5162:	0000                	unimp
    5164:	5250                	lw	a2,36(a2)
    5166:	4745                	li	a4,17
    5168:	5041                	c.li	zero,-16
    516a:	2520                	.insn	2, 0x2520
    516c:	3230                	.insn	2, 0x3230
    516e:	3a64                	.insn	2, 0x3a64
    5170:	3025                	jal	4998 <stream_vscanf+0x35c>
    5172:	6432                	.insn	2, 0x6432
    5174:	253a                	.insn	2, 0x253a
    5176:	3230                	.insn	2, 0x3230
    5178:	0064                	add	s1,sp,12
    517a:	0000                	unimp
    517c:	654e                	.insn	2, 0x654e
    517e:	69442077          	.insn	4, 0x69442077
    5182:	6572                	.insn	2, 0x6572
    5184:	726f7463          	bgeu	t5,t1,58ac <stream_vscanf+0x1270>
    5188:	2079                	jal	5216 <stream_vscanf+0xbda>
    518a:	7325                	lui	t1,0xfffe9
    518c:	7c20                	.insn	2, 0x7c20
    518e:	7c7c                	.insn	2, 0x7c7c
    5190:	4620                	lw	s0,72(a2)
    5192:	6c69                	lui	s8,0x1a
    5194:	2065                	jal	523c <stream_vscanf+0xc00>
    5196:	616e                	.insn	2, 0x616e
    5198:	656d                	lui	a0,0x1b
    519a:	2520                	.insn	2, 0x2520
    519c:	7c7c2073          	csrs	0x7c7,s8
    51a0:	207c                	.insn	2, 0x207c
    51a2:	6f6d                	lui	t5,0x1b
    51a4:	6572                	.insn	2, 0x6572
    51a6:	6920                	.insn	2, 0x6920
    51a8:	666e                	.insn	2, 0x666e
    51aa:	616d726f          	jal	tp,dc7c0 <_end+0xd1e00>
    51ae:	6974                	.insn	2, 0x6974
    51b0:	25206e6f          	jal	t3,b402 <_end+0xa42>
    51b4:	2e30                	.insn	2, 0x2e30
    51b6:	7838                	.insn	2, 0x7838
    51b8:	2520                	.insn	2, 0x2520
    51ba:	2e30                	.insn	2, 0x2e30
    51bc:	7838                	.insn	2, 0x7838
    51be:	0a0d                	add	s4,s4,3
    51c0:	0000                	unimp
    51c2:	0000                	unimp
    51c4:	4f4d                	li	t5,19
    51c6:	4544                	lw	s1,12(a0)
    51c8:	2f31                	jal	58e4 <stream_vscanf+0x12a8>
    51ca:	3032                	.insn	2, 0x3032
    51cc:	3834                	.insn	2, 0x3834
    51ce:	0000                	unimp
    51d0:	4f4d                	li	t5,19
    51d2:	4544                	lw	s1,12(a0)
    51d4:	2f31                	jal	58f0 <stream_vscanf+0x12b4>
    51d6:	3332                	.insn	2, 0x3332
    51d8:	3235                	jal	4b04 <stream_vscanf+0x4c8>
    51da:	0000                	unimp
    51dc:	5541                	li	a0,-16
    51de:	4944                	lw	s1,20(a0)
    51e0:	0000004f          	.insn	4, 0x004f
    51e4:	00474443          	.insn	4, 0x00474443
    51e8:	4e49                	li	t3,18
    51ea:	4544                	lw	s1,12(a0)
    51ec:	2058                	.insn	2, 0x2058
    51ee:	3030                	.insn	2, 0x3030
    51f0:	2520                	.insn	2, 0x2520
    51f2:	3230                	.insn	2, 0x3230
    51f4:	3a64                	.insn	2, 0x3a64
    51f6:	3025                	jal	4a1e <stream_vscanf+0x3e2>
    51f8:	6432                	.insn	2, 0x6432
    51fa:	253a                	.insn	2, 0x253a
    51fc:	3230                	.insn	2, 0x3230
    51fe:	0064                	add	s1,sp,12
    5200:	4e49                	li	t3,18
    5202:	4544                	lw	s1,12(a0)
    5204:	2058                	.insn	2, 0x2058
    5206:	2030                	.insn	2, 0x2030
    5208:	3025                	jal	4a30 <stream_vscanf+0x3f4>
    520a:	6432                	.insn	2, 0x6432
    520c:	253a                	.insn	2, 0x253a
    520e:	3230                	.insn	2, 0x3230
    5210:	3a64                	.insn	2, 0x3a64
    5212:	3025                	jal	4a3a <stream_vscanf+0x3fe>
    5214:	6432                	.insn	2, 0x6432
    5216:	0000                	unimp
    5218:	4e49                	li	t3,18
    521a:	4544                	lw	s1,12(a0)
    521c:	2058                	.insn	2, 0x2058
    521e:	3130                	.insn	2, 0x3130
    5220:	2520                	.insn	2, 0x2520
    5222:	3230                	.insn	2, 0x3230
    5224:	3a64                	.insn	2, 0x3a64
    5226:	3025                	jal	4a4e <stream_vscanf+0x412>
    5228:	6432                	.insn	2, 0x6432
    522a:	253a                	.insn	2, 0x253a
    522c:	3230                	.insn	2, 0x3230
    522e:	0064                	add	s1,sp,12
    5230:	4e49                	li	t3,18
    5232:	4544                	lw	s1,12(a0)
    5234:	2058                	.insn	2, 0x2058
    5236:	2031                	jal	5242 <stream_vscanf+0xc06>
    5238:	3025                	jal	4a60 <stream_vscanf+0x424>
    523a:	6432                	.insn	2, 0x6432
    523c:	253a                	.insn	2, 0x253a
    523e:	3230                	.insn	2, 0x3230
    5240:	3a64                	.insn	2, 0x3a64
    5242:	3025                	jal	4a6a <stream_vscanf+0x42e>
    5244:	6432                	.insn	2, 0x6432
    5246:	0000                	unimp
    5248:	6e65706f          	j	5c92e <_end+0x51f6e>
    524c:	6465                	lui	s0,0x19
    524e:	2520                	.insn	2, 0x2520
    5250:	2075                	jal	52fc <stream_vscanf+0xcc0>
    5252:	6425                	lui	s0,0x9
    5254:	2520                	.insn	2, 0x2520
    5256:	2075                	jal	5302 <stream_vscanf+0xcc6>
    5258:	7525                	lui	a0,0xfffe9
    525a:	2520                	.insn	2, 0x2520
    525c:	0d75                	add	s10,s10,29
    525e:	000a                	c.slli	zero,0x2
    5260:	6e20                	.insn	2, 0x6e20
    5262:	6f20746f          	jal	s0,c954 <_end+0x1f94>
    5266:	6570                	.insn	2, 0x6570
    5268:	656e                	.insn	2, 0x656e
    526a:	2064                	.insn	2, 0x2064
    526c:	7525                	lui	a0,0xfffe9
    526e:	2520                	.insn	2, 0x2520
    5270:	2075                	jal	531c <stream_vscanf+0xce0>
    5272:	7525                	lui	a0,0xfffe9
    5274:	0a0d                	add	s4,s4,3
    5276:	0000                	unimp
    5278:	32335b1b          	.insn	4, 0x32335b1b
    527c:	506d                	c.li	zero,-5
    527e:	44434543          	.insn	4, 0x44434543
    5282:	203a                	.insn	2, 0x203a
    5284:	7254                	.insn	2, 0x7254
    5286:	6361                	lui	t1,0x18
    5288:	203d206b          	.insn	4, 0x203d206b
    528c:	7525                	lui	a0,0xfffe9
    528e:	202c                	.insn	2, 0x202c
    5290:	72617473          	csrrc	s0,mhpmevent6h,2
    5294:	2074                	.insn	2, 0x2074
    5296:	203d                	jal	52c4 <stream_vscanf+0xc88>
    5298:	7525                	lui	a0,0xfffe9
    529a:	202c                	.insn	2, 0x202c
    529c:	6e65                	lui	t3,0x19
    529e:	2064                	.insn	2, 0x2064
    52a0:	203d                	jal	52ce <stream_vscanf+0xc92>
    52a2:	7525                	lui	a0,0xfffe9
    52a4:	202c                	.insn	2, 0x202c
    52a6:	7366666f          	jal	a2,6b9dc <_end+0x6101c>
    52aa:	7465                	lui	s0,0xffff9
    52ac:	3d20                	.insn	2, 0x3d20
    52ae:	2520                	.insn	2, 0x2520
    52b0:	2c75                	jal	556c <stream_vscanf+0xf30>
    52b2:	7320                	.insn	2, 0x7320
    52b4:	6365                	lui	t1,0x19
    52b6:	6f74                	.insn	2, 0x6f74
    52b8:	5f72                	lw	t5,60(sp)
    52ba:	657a6973          	csrrs	s2,hviprio2h,20
    52be:	253d                	jal	58ec <stream_vscanf+0x12b0>
    52c0:	2c64                	.insn	2, 0x2c64
    52c2:	7420                	.insn	2, 0x7420
    52c4:	7079                	c.lui	zero,0xffffe
    52c6:	2065                	jal	536e <stream_vscanf+0xd32>
    52c8:	203d                	jal	52f6 <stream_vscanf+0xcba>
    52ca:	7525                	lui	a0,0xfffe9
    52cc:	202c                	.insn	2, 0x202c
    52ce:	6164                	.insn	2, 0x6164
    52d0:	6174                	.insn	2, 0x6174
    52d2:	746f6c73          	csrrs	s8,0x746,30
    52d6:	3d20                	.insn	2, 0x3d20
    52d8:	2520                	.insn	2, 0x2520
    52da:	2075                	jal	5386 <stream_vscanf+0xd4a>
    52dc:	6e65706f          	j	5c9c2 <_end+0x52002>
    52e0:	2064                	.insn	2, 0x2064
    52e2:	203d                	jal	5310 <stream_vscanf+0xcd4>
    52e4:	7525                	lui	a0,0xfffe9
    52e6:	0d20                	add	s0,sp,664
    52e8:	200a                	.insn	2, 0x200a
    52ea:	616e                	.insn	2, 0x616e
    52ec:	656d                	lui	a0,0x1b
    52ee:	3d20                	.insn	2, 0x3d20
    52f0:	2520                	.insn	2, 0x2520
    52f2:	0a0d2073          	csrs	0xa0,s10
    52f6:	6d305b1b          	.insn	4, 0x6d305b1b
    52fa:	0000                	unimp
    52fc:	6d49                	lui	s10,0x12
    52fe:	4820                	lw	s0,80(s0)
    5300:	7265                	lui	tp,0xffff9
    5302:	2065                	jal	53aa <stream_vscanf+0xd6e>
    5304:	6146                	.insn	2, 0x6146
    5306:	6874                	.insn	2, 0x6874
    5308:	7265                	lui	tp,0xffff9
    530a:	2520                	.insn	2, 0x2520
    530c:	2064                	.insn	2, 0x2064
    530e:	0a0d                	add	s4,s4,3
    5310:	0000                	unimp
    5312:	0000                	unimp
    5314:	63656863          	bltu	a0,s6,5944 <stream_vscanf+0x1308>
    5318:	6874206b          	.insn	4, 0x6874206b
    531c:	7965                	lui	s2,0xffff9
    531e:	7420                	.insn	2, 0x7420
    5320:	7079                	c.lui	zero,0xffffe
    5322:	2065                	jal	53ca <stream_vscanf+0xd8e>
    5324:	6164                	.insn	2, 0x6164
    5326:	6174                	.insn	2, 0x6174
    5328:	0d20                	add	s0,sp,664
    532a:	000a                	c.slli	zero,0x2
    532c:	63656863          	bltu	a0,s6,595c <stream_vscanf+0x1320>
    5330:	6874206b          	.insn	4, 0x6874206b
    5334:	7965                	lui	s2,0xffff9
    5336:	7420                	.insn	2, 0x7420
    5338:	7079                	c.lui	zero,0xffffe
    533a:	2065                	jal	53e2 <stream_vscanf+0xda6>
    533c:	6164                	.insn	2, 0x6164
    533e:	6174                	.insn	2, 0x6174
    5340:	3220                	.insn	2, 0x3220
    5342:	0a0d                	add	s4,s4,3
    5344:	0000                	unimp
    5346:	0000                	unimp
    5348:	7246                	.insn	2, 0x7246
    534a:	73206d6f          	jal	s10,ba7c <_end+0x10bc>
    534e:	6365                	lui	t1,0x19
    5350:	6f74                	.insn	2, 0x6f74
    5352:	2072                	.insn	2, 0x2072
    5354:	6425                	lui	s0,0x9
    5356:	7420                	.insn	2, 0x7420
    5358:	6573206f          	j	381ae <_end+0x2d7ee>
    535c:	726f7463          	bgeu	t5,t1,5a84 <sector_list+0x98>
    5360:	2520                	.insn	2, 0x2520
    5362:	3a64                	.insn	2, 0x3a64
    5364:	000a                	c.slli	zero,0x2
    5366:	0000                	unimp
    5368:	6954                	.insn	2, 0x6954
    536a:	656d                	lui	a0,0x1b
    536c:	3d20                	.insn	2, 0x3d20
    536e:	2520                	.insn	2, 0x2520
    5370:	2064                	.insn	2, 0x2064
    5372:	696d                	lui	s2,0x1b
    5374:	6c6c                	.insn	2, 0x6c6c
    5376:	7369                	lui	t1,0xffffa
    5378:	6365                	lui	t1,0x19
    537a:	73646e6f          	jal	t3,4bab0 <_end+0x410f0>
    537e:	000a                	c.slli	zero,0x2
    5380:	6544                	.insn	2, 0x6544
    5382:	616c                	.insn	2, 0x616c
    5384:	3a79                	jal	4d22 <stream_vscanf+0x6e6>
    5386:	2520                	.insn	2, 0x2520
    5388:	0064                	add	s1,sp,12
    538a:	0000                	unimp
    538c:	2054                	.insn	2, 0x2054
    538e:	3a4d                	jal	4d40 <stream_vscanf+0x704>
    5390:	203a2053          	.insn	4, 0x203a2053
    5394:	6425                	lui	s0,0x9
    5396:	2520                	.insn	2, 0x2520
    5398:	2064                	.insn	2, 0x2064
    539a:	6425                	lui	s0,0x9
    539c:	0000                	unimp
    539e:	0000                	unimp
    53a0:	2d2d                	jal	59da <stream_vscanf+0x139e>
    53a2:	2d2d                	jal	59dc <stream_vscanf+0x13a0>
    53a4:	2d2d                	jal	59de <stream_vscanf+0x13a2>
    53a6:	2d2d                	jal	59e0 <stream_vscanf+0x13a4>
    53a8:	2d2d                	jal	59e2 <stream_vscanf+0x13a6>
    53aa:	432d                	li	t1,11
    53ac:	2065726f          	jal	tp,5c5b2 <_end+0x51bf2>
    53b0:	7245                	lui	tp,0xffff1
    53b2:	6f72                	.insn	2, 0x6f72
    53b4:	2d72                	.insn	2, 0x2d72
    53b6:	2d2d                	jal	59f0 <sector_list+0x4>
    53b8:	2d2d                	jal	59f2 <sector_list+0x6>
    53ba:	2d2d                	jal	59f4 <sector_list+0x8>
    53bc:	2d2d                	jal	59f6 <sector_list+0xa>
    53be:	002d                	c.nop	11
    53c0:	6854                	.insn	2, 0x6854
    53c2:	7369                	lui	t1,0xffffa
    53c4:	6620                	.insn	2, 0x6620
    53c6:	6e75                	lui	t3,0x1d
    53c8:	6f697463          	bgeu	s2,s6,5ab0 <sector_list+0xc4>
    53cc:	206e                	.insn	2, 0x206e
    53ce:	7369                	lui	t1,0xffffa
    53d0:	6e20                	.insn	2, 0x6e20
    53d2:	6120746f          	jal	s0,c9e4 <_end+0x2024>
    53d6:	6464                	.insn	2, 0x6464
    53d8:	6465                	lui	s0,0x19
    53da:	7920                	.insn	2, 0x7920
    53dc:	7465                	lui	s0,0xffff9
    53de:	0000                	unimp
    53e0:	6c50                	.insn	2, 0x6c50
    53e2:	6165                	add	sp,sp,112
    53e4:	71206573          	csrrs	a0,0x712,0
    53e8:	6975                	lui	s2,0x1d
    53ea:	2074                	.insn	2, 0x2074
    53ec:	6874                	.insn	2, 0x6874
    53ee:	2065                	jal	5496 <stream_vscanf+0xe5a>
    53f0:	65726f63          	bltu	tp,s7,5a4e <sector_list+0x62>
    53f4:	6120                	.insn	2, 0x6120
    53f6:	646e                	.insn	2, 0x646e
    53f8:	7220                	.insn	2, 0x7220
    53fa:	6c65                	lui	s8,0x19
    53fc:	0064616f          	jal	sp,4b402 <_end+0x40a42>
    5400:	6874                	.insn	2, 0x6874
    5402:	2065                	jal	54aa <stream_vscanf+0xe6e>
    5404:	656d6167          	.insn	4, 0x656d6167
    5408:	7420                	.insn	2, 0x7420
    540a:	6168                	.insn	2, 0x6168
    540c:	2074                	.insn	2, 0x2074
    540e:	6f79                	lui	t5,0x1e
    5410:	2075                	jal	54bc <stream_vscanf+0xe80>
    5412:	746e6177          	.insn	4, 0x746e6177
    5416:	7420                	.insn	2, 0x7420
    5418:	6c70206f          	j	82de <MEM_SIZE+0x2de>
    541c:	7961                	lui	s2,0xffff8
    541e:	0000                	unimp
    5420:	2020                	.insn	2, 0x2020
    5422:	2020                	.insn	2, 0x2020
    5424:	2020                	.insn	2, 0x2020
    5426:	7075                	c.lui	zero,0xffffd
    5428:	696d6f63          	bltu	s10,s6,5ac6 <sector_list+0xda>
    542c:	676e                	.insn	2, 0x676e
    542e:	6620                	.insn	2, 0x6620
    5430:	6e75                	lui	t3,0x1d
    5432:	6f697463          	bgeu	s2,s6,5b1a <charfont+0x16>
    5436:	006e                	c.slli	zero,0x1b
    5438:	6f4e                	.insn	2, 0x6f4e
    543a:	6d492077          	.insn	4, 0x6d492077
    543e:	6a20                	.insn	2, 0x6a20
    5440:	7375                	lui	t1,0xffffd
    5442:	2074                	.insn	2, 0x2074
    5444:	74736177          	.insn	4, 0x74736177
    5448:	6e69                	lui	t3,0x1a
    544a:	6f632067          	.insn	4, 0x6f632067
    544e:	6564                	.insn	2, 0x6564
    5450:	63617073          	csrc	0x636,2
    5454:	0065                	c.nop	25
    5456:	0000                	unimp
    5458:	4c55                	li	s8,21
    545a:	5254                	lw	a3,36(a2)
    545c:	4641                	li	a2,16
    545e:	3650                	.insn	2, 0x3650
    5460:	2034                	.insn	2, 0x2034
    5462:	7369                	lui	t1,0xffffa
    5464:	6120                	.insn	2, 0x6120
    5466:	7020                	.insn	2, 0x7020
    5468:	6961                	lui	s2,0x18
    546a:	206e                	.insn	2, 0x206e
    546c:	6e69                	lui	t3,0x1a
    546e:	7420                	.insn	2, 0x7420
    5470:	6568                	.insn	2, 0x6568
    5472:	6120                	.insn	2, 0x6120
    5474:	00007373          	csrrc	t1,ustatus,0
    5478:	6d49                	lui	s10,0x12
    547a:	6120                	.insn	2, 0x6120
    547c:	736c                	.insn	2, 0x736c
    547e:	6e6f206f          	j	f7b64 <_end+0xed1a4>
    5482:	2065                	jal	552a <stream_vscanf+0xeee>
    5484:	6f74                	.insn	2, 0x6f74
    5486:	62202c6f          	jal	s8,7aa8 <cue+0x17d4>
    548a:	7475                	lui	s0,0xffffd
    548c:	4920                	lw	s0,80(a0)
    548e:	6420                	.insn	2, 0x6420
    5490:	6972                	.insn	2, 0x6972
    5492:	6b6e                	.insn	2, 0x6b6e
    5494:	0000                	unimp
    5496:	0000                	unimp
    5498:	6f6d                	lui	t5,0x1b
    549a:	6572                	.insn	2, 0x6572
    549c:	202e                	.insn	2, 0x202e
    549e:	6c6c6957          	.insn	4, 0x6c6c6957
    54a2:	4620                	lw	s0,72(a2)
    54a4:	7869                	lui	a6,0xffffa
    54a6:	6c20                	.insn	2, 0x6c20
    54a8:	7461                	lui	s0,0xffff8
    54aa:	7265                	lui	tp,0xffff9
    54ac:	5920                	lw	s0,112(a0)
    54ae:	5941                	li	s2,-16
    54b0:	2d20                	.insn	2, 0x2d20
    54b2:	4d20                	lw	s0,88(a0)
    54b4:	5a41                	li	s4,-16
    54b6:	2041                	jal	5536 <stream_vscanf+0xefa>
    54b8:	0020                	add	s0,sp,8
    54ba:	0000                	unimp
    54bc:	4c55                	li	s8,21
    54be:	5254                	lw	a3,36(a2)
    54c0:	4641                	li	a2,16
    54c2:	3650                	.insn	2, 0x3650
    54c4:	2034                	.insn	2, 0x2034
    54c6:	494d4f43          	.insn	4, 0x494d4f43
    54ca:	474e                	lw	a4,208(sp)
    54cc:	5320                	lw	s0,96(a4)
    54ce:	004e4f4f          	.insn	4, 0x004e4f4f
    54d2:	0000                	unimp
    54d4:	2d2d                	jal	5b0e <charfont+0xa>
    54d6:	2d2d                	jal	5b10 <charfont+0xc>
    54d8:	2d2d                	jal	5b12 <charfont+0xe>
    54da:	2d2d                	jal	5b14 <charfont+0x10>
    54dc:	2d2d                	jal	5b16 <charfont+0x12>
    54de:	2d2d                	jal	5b18 <charfont+0x14>
    54e0:	2d2d                	jal	5b1a <charfont+0x16>
    54e2:	2d2d                	jal	5b1c <charfont+0x18>
    54e4:	2d2d                	jal	5b1e <charfont+0x1a>
    54e6:	2d2d                	jal	5b20 <charfont+0x1c>
    54e8:	2d2d                	jal	5b22 <charfont+0x1e>
    54ea:	2d2d                	jal	5b24 <charfont+0x20>
    54ec:	2d2d                	jal	5b26 <charfont+0x22>
    54ee:	2d2d                	jal	5b28 <charfont+0x24>
    54f0:	2d2d                	jal	5b2a <charfont+0x26>
    54f2:	0000                	unimp
    54f4:	2049                	jal	5576 <stream_vscanf+0xf3a>
    54f6:	6168                	.insn	2, 0x6168
    54f8:	6574                	.insn	2, 0x6574
    54fa:	7420                	.insn	2, 0x7420
    54fc:	6168                	.insn	2, 0x6168
    54fe:	2074                	.insn	2, 0x2074
    5500:	20797567          	.insn	4, 0x20797567
    5504:	614d                	add	sp,sp,176
    5506:	617a                	.insn	2, 0x617a
    5508:	2d20                	.insn	2, 0x2d20
    550a:	5520                	lw	s0,104(a0)
    550c:	5046                	.insn	2, 0x5046
    550e:	3436                	.insn	2, 0x3436
    5510:	0000                	unimp
    5512:	0000                	unimp
    5514:	2d2d                	jal	5b4e <charfont+0x4a>
    5516:	2d2d                	jal	5b50 <charfont+0x4c>
    5518:	2d2d                	jal	5b52 <charfont+0x4e>
    551a:	2d2d                	jal	5b54 <charfont+0x50>
    551c:	2d2d                	jal	5b56 <charfont+0x52>
    551e:	65726f43          	.insn	4, 0x65726f43
    5522:	4520                	lw	s0,72(a0)
    5524:	7272                	.insn	2, 0x7272
    5526:	2d2d726f          	jal	tp,dc7f8 <_end+0xd1e38>
    552a:	2d2d                	jal	5b64 <charfont+0x60>
    552c:	2d2d                	jal	5b66 <charfont+0x62>
    552e:	2d2d                	jal	5b68 <charfont+0x64>
    5530:	0000                	unimp
    5532:	0000                	unimp
    5534:	6854                	.insn	2, 0x6854
    5536:	2065                	jal	55de <stream_vscanf+0xfa2>
    5538:	65726f43          	.insn	4, 0x65726f43
    553c:	6420                	.insn	2, 0x6420
    553e:	6469                	lui	s0,0x1a
    5540:	7320                	.insn	2, 0x7320
    5542:	74656d6f          	jal	s10,5bc88 <_end+0x512c8>
    5546:	6968                	.insn	2, 0x6968
    5548:	676e                	.insn	2, 0x676e
    554a:	7720                	.insn	2, 0x7720
    554c:	6965                	lui	s2,0x19
    554e:	6472                	.insn	2, 0x6472
    5550:	0000                	unimp
    5552:	0000                	unimp
    5554:	6874                	.insn	2, 0x6874
    5556:	2065                	jal	55fe <stream_vscanf+0xfc2>
    5558:	504d                	c.li	zero,-13
    555a:	2055                	jal	55fe <stream_vscanf+0xfc2>
    555c:	6572                	.insn	2, 0x6572
    555e:	76696563          	bltu	s2,t1,5cc8 <charfont+0x1c4>
    5562:	6465                	lui	s0,0x19
    5564:	6120                	.insn	2, 0x6120
    5566:	7220                	.insn	2, 0x7220
    5568:	7365                	lui	t1,0xffff9
    556a:	7465                	lui	s0,0xffff9
    556c:	0020                	add	s0,sp,8
    556e:	0000                	unimp
    5570:	6d6d6f63          	bltu	s10,s6,5c4e <charfont+0x14a>
    5574:	6e61                	lui	t3,0x18
    5576:	2064                	.insn	2, 0x2064
    5578:	7266                	.insn	2, 0x7266
    557a:	74206d6f          	jal	s10,bcbc <_end+0x12fc>
    557e:	6568                	.insn	2, 0x6568
    5580:	6320                	.insn	2, 0x6320
    5582:	2e65726f          	jal	tp,5c868 <_end+0x51ea8>
    5586:	0020                	add	s0,sp,8
    5588:	6649                	lui	a2,0x12
    558a:	7420                	.insn	2, 0x7420
    558c:	6968                	.insn	2, 0x6968
    558e:	73692073          	csrs	mhpmevent22h,s2
    5592:	6120                	.insn	2, 0x6120
    5594:	6820                	.insn	2, 0x6820
    5596:	6361                	lui	t1,0x18
    5598:	2064656b          	.insn	4, 0x2064656b
    559c:	49204443          	.insn	4, 0x49204443
    55a0:	20204f53          	.insn	4, 0x20204f53
    55a4:	0000                	unimp
    55a6:	0000                	unimp
    55a8:	6854                	.insn	2, 0x6854
    55aa:	7369                	lui	t1,0xffffa
    55ac:	6320                	.insn	2, 0x6320
    55ae:	646c756f          	jal	a0,ccbf4 <_end+0xc2234>
    55b2:	6220                	.insn	2, 0x6220
    55b4:	2065                	jal	565c <stream_vscanf+0x1020>
    55b6:	2061                	jal	563e <stream_vscanf+0x1002>
    55b8:	6e75                	lui	t3,0x1d
    55ba:	6c61                	lui	s8,0x18
    55bc:	696c                	.insn	2, 0x696c
    55be:	64656867          	.insn	4, 0x64656867
    55c2:	0000                	unimp
    55c4:	6144                	.insn	2, 0x6144
    55c6:	6174                	.insn	2, 0x6174
    55c8:	6c20                	.insn	2, 0x6c20
    55ca:	7461636f          	jal	t1,1bd10 <_end+0x11350>
    55ce:	6f69                	lui	t5,0x1a
    55d0:	206e                	.insn	2, 0x206e
    55d2:	6f66                	.insn	2, 0x6f66
    55d4:	2072                	.insn	2, 0x2072
    55d6:	6874                	.insn	2, 0x6874
    55d8:	2065                	jal	5680 <stream_vscanf+0x1044>
    55da:	4f54                	lw	a3,28(a4)
    55dc:	20202043          	.insn	4, 0x20202043
    55e0:	0000                	unimp
    55e2:	0000                	unimp
    55e4:	6150                	.insn	2, 0x6150
    55e6:	6e69                	lui	t3,0x1a
    55e8:	6920                	.insn	2, 0x6920
    55ea:	206e                	.insn	2, 0x206e
    55ec:	6874                	.insn	2, 0x6874
    55ee:	2065                	jal	5696 <stream_vscanf+0x105a>
    55f0:	7361                	lui	t1,0xffff8
    55f2:	72652073          	csrs	mhpmevent6h,a0
    55f6:	6f72                	.insn	2, 0x6f72
    55f8:	2072                	.insn	2, 0x2072
    55fa:	6f74                	.insn	2, 0x6f74
    55fc:	6620                	.insn	2, 0x6620
    55fe:	7869                	lui	a6,0xffffa
    5600:	0000                	unimp
    5602:	0000                	unimp
    5604:	6c6c6957          	.insn	4, 0x6c6c6957
    5608:	4620                	lw	s0,72(a2)
    560a:	7869                	lui	a6,0xffffa
    560c:	6c20                	.insn	2, 0x6c20
    560e:	7461                	lui	s0,0xffff8
    5610:	7265                	lui	tp,0xffff9
    5612:	5920                	lw	s0,112(a0)
    5614:	5941                	li	s2,-16
    5616:	2d20                	.insn	2, 0x2d20
    5618:	4d20                	lw	s0,88(a0)
    561a:	5a41                	li	s4,-16
    561c:	2041                	jal	569c <stream_vscanf+0x1060>
    561e:	0020                	add	s0,sp,8
    5620:	2d2d                	jal	5c5a <charfont+0x156>
    5622:	2d2d                	jal	5c5c <charfont+0x158>
    5624:	2d2d                	jal	5c5e <charfont+0x15a>
    5626:	442d                	li	s0,11
    5628:	7461                	lui	s0,0xffff8
    562a:	4661                	li	a2,24
    562c:	6c69                	lui	s8,0x1a
    562e:	2065                	jal	56d6 <stream_vscanf+0x109a>
    5630:	7245                	lui	tp,0xffff1
    5632:	6f72                	.insn	2, 0x6f72
    5634:	2d72                	.insn	2, 0x2d72
    5636:	2d2d                	jal	5c70 <charfont+0x16c>
    5638:	202d                	jal	5662 <stream_vscanf+0x1026>
    563a:	6425                	lui	s0,0x9
    563c:	0000                	unimp
    563e:	0000                	unimp
    5640:	2020                	.insn	2, 0x2020
    5642:	2020                	.insn	2, 0x2020
    5644:	5020                	lw	s0,96(s0)
    5646:	656c                	.insn	2, 0x656c
    5648:	7361                	lui	t1,0xffff8
    564a:	2065                	jal	56f2 <stream_vscanf+0x10b6>
    564c:	63656863          	bltu	a0,s6,5c7c <charfont+0x178>
    5650:	6874206b          	.insn	4, 0x6874206b
    5654:	2065                	jal	56fc <stream_vscanf+0x10c0>
    5656:	6966                	.insn	2, 0x6966
    5658:	656c                	.insn	2, 0x656c
    565a:	00202073          	csrr	zero,frm
    565e:	0000                	unimp
    5660:	6120                	.insn	2, 0x6120
    5662:	6572                	.insn	2, 0x6572
    5664:	6920                	.insn	2, 0x6920
    5666:	206e                	.insn	2, 0x206e
    5668:	6874                	.insn	2, 0x6874
    566a:	2065                	jal	5712 <stream_vscanf+0x10d6>
    566c:	72726f63          	bltu	tp,t2,5daa <charfont+0x2a6>
    5670:	6365                	lui	t1,0x19
    5672:	2074                	.insn	2, 0x2074
    5674:	6f6c                	.insn	2, 0x6f6c
    5676:	69746163          	bltu	s0,s7,5cf8 <charfont+0x1f4>
    567a:	00006e6f          	jal	t3,b67a <_end+0xcba>
    567e:	0000                	unimp
    5680:	6f20                	.insn	2, 0x6f20
    5682:	2072                	.insn	2, 0x2072
    5684:	6f62                	.insn	2, 0x6f62
    5686:	6874                	.insn	2, 0x6874
    5688:	7420                	.insn	2, 0x7420
    568a:	6568                	.insn	2, 0x6568
    568c:	4620                	lw	s0,72(a2)
    568e:	6c69                	lui	s8,0x1a
    5690:	2065                	jal	5738 <stream_vscanf+0x10fc>
    5692:	6e61                	lui	t3,0x18
    5694:	2064                	.insn	2, 0x2064
    5696:	6f66                	.insn	2, 0x6f66
    5698:	646c                	.insn	2, 0x646c
    569a:	7265                	lui	tp,0xffff9
    569c:	0020                	add	s0,sp,8
    569e:	0000                	unimp
    56a0:	6e20                	.insn	2, 0x6e20
    56a2:	6d61                	lui	s10,0x18
    56a4:	2065                	jal	574c <stream_vscanf+0x1110>
    56a6:	7369                	lui	t1,0xffffa
    56a8:	6220                	.insn	2, 0x6220
    56aa:	6c65                	lui	s8,0x19
    56ac:	3220776f          	jal	a4,c9ce <_end+0x200e>
    56b0:	3535                	jal	54dc <stream_vscanf+0xea0>
    56b2:	4320                	lw	s0,64(a4)
    56b4:	6168                	.insn	2, 0x6168
    56b6:	7272                	.insn	2, 0x7272
    56b8:	7461                	lui	s0,0xffff8
    56ba:	0073726f          	jal	tp,3cec0 <_end+0x32500>
    56be:	0000                	unimp
    56c0:	2020                	.insn	2, 0x2020
    56c2:	2020                	.insn	2, 0x2020
    56c4:	2020                	.insn	2, 0x2020
    56c6:	2020                	.insn	2, 0x2020
    56c8:	4420                	lw	s0,72(s0)
    56ca:	7269                	lui	tp,0xffffa
    56cc:	6365                	lui	t1,0x19
    56ce:	6f74                	.insn	2, 0x6f74
    56d0:	7972                	.insn	2, 0x7972
    56d2:	0000                	unimp
    56d4:	2520                	.insn	2, 0x2520
    56d6:	72540073          	.insn	4, 0x72540073
    56da:	6979                	lui	s2,0x1e
    56dc:	676e                	.insn	2, 0x676e
    56de:	7420                	.insn	2, 0x7420
    56e0:	6966206f          	j	67d76 <_end+0x5d3b6>
    56e4:	646e                	.insn	2, 0x646e
    56e6:	7420                	.insn	2, 0x7420
    56e8:	6568                	.insn	2, 0x6568
    56ea:	4620                	lw	s0,72(a2)
    56ec:	6c69                	lui	s8,0x1a
    56ee:	2065                	jal	5796 <stream_vscanf+0x115a>
    56f0:	614e                	.insn	2, 0x614e
    56f2:	656d                	lui	a0,0x1b
    56f4:	2020                	.insn	2, 0x2020
    56f6:	0000                	unimp
    56f8:	2049                	jal	577a <stream_vscanf+0x113e>
    56fa:	70617263          	bgeu	sp,t1,5dfe <charfont+0x2fa>
    56fe:	6570                	.insn	2, 0x6570
    5700:	2064                	.insn	2, 0x2064
    5702:	796d                	lui	s2,0xffffb
    5704:	666c6573          	csrrs	a0,0x666,24
    5708:	0000                	unimp
    570a:	0000                	unimp
    570c:	3130                	.insn	2, 0x3130
    570e:	3332                	.insn	2, 0x3332
    5710:	3534                	.insn	2, 0x3534
    5712:	3736                	.insn	2, 0x3736
    5714:	3938                	.insn	2, 0x3938
    5716:	4241                	li	tp,16
    5718:	46454443          	.insn	4, 0x46454443
    571c:	0000                	unimp
    571e:	0000                	unimp
    5720:	3130                	.insn	2, 0x3130
    5722:	3332                	.insn	2, 0x3332
    5724:	3534                	.insn	2, 0x3534
    5726:	3736                	.insn	2, 0x3736
    5728:	3938                	.insn	2, 0x3938
    572a:	6261                	lui	tp,0x18
    572c:	66656463          	bltu	a0,t1,5d94 <charfont+0x290>
    5730:	0000                	unimp
    5732:	0000                	unimp
    5734:	1e9c                	add	a5,sp,880
    5736:	0000                	unimp
    5738:	1e40                	add	s0,sp,820
    573a:	0000                	unimp
    573c:	2182                	.insn	2, 0x2182
    573e:	0000                	unimp
    5740:	1e12                	sll	t3,t3,0x24
    5742:	0000                	unimp
    5744:	1e12                	sll	t3,t3,0x24
    5746:	0000                	unimp
    5748:	2000                	.insn	2, 0x2000
    574a:	0000                	unimp
    574c:	1f3a                	sll	t5,t5,0x2e
    574e:	0000                	unimp
    5750:	2a52                	.insn	2, 0x2a52
    5752:	0000                	unimp
    5754:	29a6                	.insn	2, 0x29a6
    5756:	0000                	unimp
    5758:	29a6                	.insn	2, 0x29a6
    575a:	0000                	unimp
    575c:	29a6                	.insn	2, 0x29a6
    575e:	0000                	unimp
    5760:	29a6                	.insn	2, 0x29a6
    5762:	0000                	unimp
    5764:	29a6                	.insn	2, 0x29a6
    5766:	0000                	unimp
    5768:	29a6                	.insn	2, 0x29a6
    576a:	0000                	unimp
    576c:	29a6                	.insn	2, 0x29a6
    576e:	0000                	unimp
    5770:	29a6                	.insn	2, 0x29a6
    5772:	0000                	unimp
    5774:	29a6                	.insn	2, 0x29a6
    5776:	0000                	unimp
    5778:	2a30                	.insn	2, 0x2a30
    577a:	0000                	unimp
    577c:	2ad4                	.insn	2, 0x2ad4
    577e:	0000                	unimp
    5780:	2aca                	.insn	2, 0x2aca
    5782:	0000                	unimp
    5784:	2a30                	.insn	2, 0x2a30
    5786:	0000                	unimp
    5788:	3914                	.insn	2, 0x3914
    578a:	0000                	unimp
    578c:	38ac                	.insn	2, 0x38ac
    578e:	0000                	unimp
    5790:	38ac                	.insn	2, 0x38ac
    5792:	0000                	unimp
    5794:	390c                	.insn	2, 0x390c
    5796:	0000                	unimp
    5798:	38ac                	.insn	2, 0x38ac
    579a:	0000                	unimp
    579c:	38ac                	.insn	2, 0x38ac
    579e:	0000                	unimp
    57a0:	38ac                	.insn	2, 0x38ac
    57a2:	0000                	unimp
    57a4:	38ac                	.insn	2, 0x38ac
    57a6:	0000                	unimp
    57a8:	38ac                	.insn	2, 0x38ac
    57aa:	0000                	unimp
    57ac:	38ac                	.insn	2, 0x38ac
    57ae:	0000                	unimp
    57b0:	38ac                	.insn	2, 0x38ac
    57b2:	0000                	unimp
    57b4:	3904                	.insn	2, 0x3904
    57b6:	0000                	unimp
    57b8:	38ac                	.insn	2, 0x38ac
    57ba:	0000                	unimp
    57bc:	38fc                	.insn	2, 0x38fc
    57be:	0000                	unimp
    57c0:	38ac                	.insn	2, 0x38ac
    57c2:	0000                	unimp
    57c4:	38ac                	.insn	2, 0x38ac
    57c6:	0000                	unimp
    57c8:	38f4                	.insn	2, 0x38f4
    57ca:	0000                	unimp
    57cc:	414a                	lw	sp,144(sp)
    57ce:	0000                	unimp
    57d0:	4406                	lw	s0,64(sp)
    57d2:	0000                	unimp
    57d4:	40d2                	lw	ra,20(sp)
    57d6:	0000                	unimp
    57d8:	40d2                	lw	ra,20(sp)
    57da:	0000                	unimp
    57dc:	40d2                	lw	ra,20(sp)
    57de:	0000                	unimp
    57e0:	40d2                	lw	ra,20(sp)
    57e2:	0000                	unimp
    57e4:	40d2                	lw	ra,20(sp)
    57e6:	0000                	unimp
    57e8:	40d2                	lw	ra,20(sp)
    57ea:	0000                	unimp
    57ec:	40d2                	lw	ra,20(sp)
    57ee:	0000                	unimp
    57f0:	441a                	lw	s0,132(sp)
    57f2:	0000                	unimp
    57f4:	40d2                	lw	ra,20(sp)
    57f6:	0000                	unimp
    57f8:	40d2                	lw	ra,20(sp)
    57fa:	0000                	unimp
    57fc:	40d2                	lw	ra,20(sp)
    57fe:	0000                	unimp
    5800:	43de                	lw	t2,212(sp)
    5802:	0000                	unimp
    5804:	40d2                	lw	ra,20(sp)
    5806:	0000                	unimp
    5808:	40d2                	lw	ra,20(sp)
    580a:	0000                	unimp
    580c:	415c                	lw	a5,4(a0)
    580e:	0000                	unimp
    5810:	40d2                	lw	ra,20(sp)
    5812:	0000                	unimp
    5814:	4402                	lw	s0,0(sp)
    5816:	0000                	unimp
    5818:	40d2                	lw	ra,20(sp)
    581a:	0000                	unimp
    581c:	40d2                	lw	ra,20(sp)
    581e:	0000                	unimp
    5820:	43de                	lw	t2,212(sp)
    5822:	0000                	unimp
    5824:	4262                	lw	tp,24(sp)
    5826:	0000                	unimp
    5828:	40d2                	lw	ra,20(sp)
    582a:	0000                	unimp
    582c:	40d2                	lw	ra,20(sp)
    582e:	0000                	unimp
    5830:	40d2                	lw	ra,20(sp)
    5832:	0000                	unimp
    5834:	40d2                	lw	ra,20(sp)
    5836:	0000                	unimp
    5838:	40d2                	lw	ra,20(sp)
    583a:	0000                	unimp
    583c:	40d2                	lw	ra,20(sp)
    583e:	0000                	unimp
    5840:	40d2                	lw	ra,20(sp)
    5842:	0000                	unimp
    5844:	4200                	lw	s0,0(a2)
    5846:	0000                	unimp
    5848:	427e                	lw	tp,220(sp)
    584a:	0000                	unimp
    584c:	40d2                	lw	ra,20(sp)
    584e:	0000                	unimp
    5850:	40d2                	lw	ra,20(sp)
    5852:	0000                	unimp
    5854:	40d2                	lw	ra,20(sp)
    5856:	0000                	unimp
    5858:	40d2                	lw	ra,20(sp)
    585a:	0000                	unimp
    585c:	40d2                	lw	ra,20(sp)
    585e:	0000                	unimp
    5860:	40d2                	lw	ra,20(sp)
    5862:	0000                	unimp
    5864:	40d2                	lw	ra,20(sp)
    5866:	0000                	unimp
    5868:	40d2                	lw	ra,20(sp)
    586a:	0000                	unimp
    586c:	40d2                	lw	ra,20(sp)
    586e:	0000                	unimp
    5870:	40d2                	lw	ra,20(sp)
    5872:	0000                	unimp
    5874:	40d2                	lw	ra,20(sp)
    5876:	0000                	unimp
    5878:	40d2                	lw	ra,20(sp)
    587a:	0000                	unimp
    587c:	40d2                	lw	ra,20(sp)
    587e:	0000                	unimp
    5880:	40d2                	lw	ra,20(sp)
    5882:	0000                	unimp
    5884:	40d2                	lw	ra,20(sp)
    5886:	0000                	unimp
    5888:	40d2                	lw	ra,20(sp)
    588a:	0000                	unimp
    588c:	40d2                	lw	ra,20(sp)
    588e:	0000                	unimp
    5890:	40d2                	lw	ra,20(sp)
    5892:	0000                	unimp
    5894:	40d2                	lw	ra,20(sp)
    5896:	0000                	unimp
    5898:	40d2                	lw	ra,20(sp)
    589a:	0000                	unimp
    589c:	40d2                	lw	ra,20(sp)
    589e:	0000                	unimp
    58a0:	40d2                	lw	ra,20(sp)
    58a2:	0000                	unimp
    58a4:	40d2                	lw	ra,20(sp)
    58a6:	0000                	unimp
    58a8:	40d2                	lw	ra,20(sp)
    58aa:	0000                	unimp
    58ac:	40d2                	lw	ra,20(sp)
    58ae:	0000                	unimp
    58b0:	40d2                	lw	ra,20(sp)
    58b2:	0000                	unimp
    58b4:	40d2                	lw	ra,20(sp)
    58b6:	0000                	unimp
    58b8:	40d2                	lw	ra,20(sp)
    58ba:	0000                	unimp
    58bc:	40d2                	lw	ra,20(sp)
    58be:	0000                	unimp
    58c0:	40d2                	lw	ra,20(sp)
    58c2:	0000                	unimp
    58c4:	40d2                	lw	ra,20(sp)
    58c6:	0000                	unimp
    58c8:	40d2                	lw	ra,20(sp)
    58ca:	0000                	unimp
    58cc:	40d2                	lw	ra,20(sp)
    58ce:	0000                	unimp
    58d0:	40d2                	lw	ra,20(sp)
    58d2:	0000                	unimp
    58d4:	40d2                	lw	ra,20(sp)
    58d6:	0000                	unimp
    58d8:	40d2                	lw	ra,20(sp)
    58da:	0000                	unimp
    58dc:	40d2                	lw	ra,20(sp)
    58de:	0000                	unimp
    58e0:	40d2                	lw	ra,20(sp)
    58e2:	0000                	unimp
    58e4:	40d2                	lw	ra,20(sp)
    58e6:	0000                	unimp
    58e8:	40d2                	lw	ra,20(sp)
    58ea:	0000                	unimp
    58ec:	40d2                	lw	ra,20(sp)
    58ee:	0000                	unimp
    58f0:	40d2                	lw	ra,20(sp)
    58f2:	0000                	unimp
    58f4:	40d2                	lw	ra,20(sp)
    58f6:	0000                	unimp
    58f8:	40d2                	lw	ra,20(sp)
    58fa:	0000                	unimp
    58fc:	40d2                	lw	ra,20(sp)
    58fe:	0000                	unimp
    5900:	441e                	lw	s0,196(sp)
    5902:	0000                	unimp
    5904:	40d2                	lw	ra,20(sp)
    5906:	0000                	unimp
    5908:	40d2                	lw	ra,20(sp)
    590a:	0000                	unimp
    590c:	40d2                	lw	ra,20(sp)
    590e:	0000                	unimp
    5910:	40d2                	lw	ra,20(sp)
    5912:	0000                	unimp
    5914:	40d2                	lw	ra,20(sp)
    5916:	0000                	unimp
    5918:	40d2                	lw	ra,20(sp)
    591a:	0000                	unimp
    591c:	414a                	lw	sp,144(sp)
    591e:	0000                	unimp
    5920:	4406                	lw	s0,64(sp)
    5922:	0000                	unimp
    5924:	40d2                	lw	ra,20(sp)
    5926:	0000                	unimp
    5928:	40d2                	lw	ra,20(sp)
    592a:	0000                	unimp
    592c:	40d2                	lw	ra,20(sp)
    592e:	0000                	unimp
    5930:	40d2                	lw	ra,20(sp)
    5932:	0000                	unimp
    5934:	40d2                	lw	ra,20(sp)
    5936:	0000                	unimp
    5938:	40d2                	lw	ra,20(sp)
    593a:	0000                	unimp
    593c:	40d2                	lw	ra,20(sp)
    593e:	0000                	unimp
    5940:	441a                	lw	s0,132(sp)
    5942:	0000                	unimp
    5944:	40d2                	lw	ra,20(sp)
    5946:	0000                	unimp
    5948:	40d2                	lw	ra,20(sp)
    594a:	0000                	unimp
    594c:	40d2                	lw	ra,20(sp)
    594e:	0000                	unimp
    5950:	43de                	lw	t2,212(sp)
    5952:	0000                	unimp
    5954:	40d2                	lw	ra,20(sp)
    5956:	0000                	unimp
    5958:	40d2                	lw	ra,20(sp)
    595a:	0000                	unimp
    595c:	415c                	lw	a5,4(a0)
    595e:	0000                	unimp
    5960:	40d2                	lw	ra,20(sp)
    5962:	0000                	unimp
    5964:	4402                	lw	s0,0(sp)
    5966:	0000                	unimp
    5968:	40d2                	lw	ra,20(sp)
    596a:	0000                	unimp
    596c:	40d2                	lw	ra,20(sp)
    596e:	0000                	unimp
    5970:	43de                	lw	t2,212(sp)
    5972:	0000                	unimp
    5974:	4a76                	lw	s4,92(sp)
    5976:	0000                	unimp
    5978:	4796                	lw	a5,68(sp)
    597a:	0000                	unimp
    597c:	4796                	lw	a5,68(sp)
    597e:	0000                	unimp
    5980:	4796                	lw	a5,68(sp)
    5982:	0000                	unimp
    5984:	4796                	lw	a5,68(sp)
    5986:	0000                	unimp
    5988:	4796                	lw	a5,68(sp)
    598a:	0000                	unimp
    598c:	4796                	lw	a5,68(sp)
    598e:	0000                	unimp
    5990:	4796                	lw	a5,68(sp)
    5992:	0000                	unimp
    5994:	4894                	lw	a3,16(s1)
    5996:	0000                	unimp
    5998:	4ac6                	lw	s5,80(sp)
    599a:	0000                	unimp
    599c:	4796                	lw	a5,68(sp)
    599e:	0000                	unimp
    59a0:	4796                	lw	a5,68(sp)
    59a2:	0000                	unimp
    59a4:	4796                	lw	a5,68(sp)
    59a6:	0000                	unimp
    59a8:	4796                	lw	a5,68(sp)
    59aa:	0000                	unimp
    59ac:	4796                	lw	a5,68(sp)
    59ae:	0000                	unimp
    59b0:	4796                	lw	a5,68(sp)
    59b2:	0000                	unimp
    59b4:	4796                	lw	a5,68(sp)
    59b6:	0000                	unimp
    59b8:	4796                	lw	a5,68(sp)
    59ba:	0000                	unimp
    59bc:	4796                	lw	a5,68(sp)
    59be:	0000                	unimp
    59c0:	4796                	lw	a5,68(sp)
    59c2:	0000                	unimp
    59c4:	4ac0                	lw	s0,20(a3)
    59c6:	0000                	unimp
    59c8:	4796                	lw	a5,68(sp)
    59ca:	0000                	unimp
    59cc:	4796                	lw	a5,68(sp)
    59ce:	0000                	unimp
    59d0:	4796                	lw	a5,68(sp)
    59d2:	0000                	unimp
    59d4:	4a76                	lw	s4,92(sp)
    59d6:	0000                	unimp
    59d8:	4796                	lw	a5,68(sp)
    59da:	0000                	unimp
    59dc:	4796                	lw	a5,68(sp)
    59de:	0000                	unimp
    59e0:	4796                	lw	a5,68(sp)
    59e2:	0000                	unimp
    59e4:	4796                	lw	a5,68(sp)
    59e6:	0000                	unimp
    59e8:	493c                	lw	a5,80(a0)
	...
