
build.riscv.pce_mpu_bios/pce_mpu_bios:     file format elf32-littleriscv


Disassembly of section .text:

00000000 <boot_vector>:
       0:	01c0006f          	j	1c <boot_vector2>
       4:	0000                	unimp
	...

00000008 <ipc_vector>:
	...
      10:	1300006f          	j	140 <isr_vector>

00000014 <ipc_request>:
      14:	0000                	unimp
	...

00000018 <ipc_frame>:
      18:	0000                	unimp
	...

0000001c <boot_vector2>:
      1c:	aad9                	j	1f2 <start>
	...

0000003c <arg_argc>:
      3c:	00000000          	.word	0x00000000

00000040 <arg_argv>:
	...

00000140 <isr_vector>:
     140:	f7410113          	addi	sp,sp,-140
     144:	c57e                	sw	t6,136(sp)
     146:	c37a                	sw	t5,132(sp)
     148:	c176                	sw	t4,128(sp)
     14a:	def2                	sw	t3,124(sp)
     14c:	dcee                	sw	s11,120(sp)
     14e:	daea                	sw	s10,116(sp)
     150:	d8e6                	sw	s9,112(sp)
     152:	d6e2                	sw	s8,108(sp)
     154:	d4de                	sw	s7,104(sp)
     156:	d2da                	sw	s6,100(sp)
     158:	d0d6                	sw	s5,96(sp)
     15a:	ced2                	sw	s4,92(sp)
     15c:	ccce                	sw	s3,88(sp)
     15e:	caca                	sw	s2,84(sp)
     160:	c8c6                	sw	a7,80(sp)
     162:	c6c2                	sw	a6,76(sp)
     164:	c4be                	sw	a5,72(sp)
     166:	c2ba                	sw	a4,68(sp)
     168:	c0b6                	sw	a3,64(sp)
     16a:	de32                	sw	a2,60(sp)
     16c:	dc2e                	sw	a1,56(sp)
     16e:	da2a                	sw	a0,52(sp)
     170:	d826                	sw	s1,48(sp)
     172:	d622                	sw	s0,44(sp)
     174:	d41e                	sw	t2,40(sp)
     176:	d21a                	sw	t1,36(sp)
     178:	d016                	sw	t0,32(sp)
     17a:	ce12                	sw	tp,28(sp)
     17c:	cc0e                	sw	gp,24(sp)
     17e:	ca0a                	sw	sp,20(sp)
     180:	c806                	sw	ra,16(sp)
     182:	34202473          	csrr	s0,mcause
     186:	c422                	sw	s0,8(sp)
     188:	30002473          	csrr	s0,mstatus
     18c:	c222                	sw	s0,4(sp)
     18e:	34102473          	csrr	s0,mepc
     192:	c022                	sw	s0,0(sp)
     194:	850a                	mv	a0,sp
     196:	74e020ef          	jal	ra,28e4 <_handle_trap>

0000019a <exception_return>:
     19a:	812a                	mv	sp,a0
     19c:	4402                	lw	s0,0(sp)
     19e:	34141073          	csrw	mepc,s0
     1a2:	4412                	lw	s0,4(sp)
     1a4:	30041073          	csrw	mstatus,s0
     1a8:	40c2                	lw	ra,16(sp)
     1aa:	41e2                	lw	gp,24(sp)
     1ac:	4272                	lw	tp,28(sp)
     1ae:	5282                	lw	t0,32(sp)
     1b0:	5312                	lw	t1,36(sp)
     1b2:	53a2                	lw	t2,40(sp)
     1b4:	5432                	lw	s0,44(sp)
     1b6:	54c2                	lw	s1,48(sp)
     1b8:	5552                	lw	a0,52(sp)
     1ba:	55e2                	lw	a1,56(sp)
     1bc:	5672                	lw	a2,60(sp)
     1be:	4686                	lw	a3,64(sp)
     1c0:	4716                	lw	a4,68(sp)
     1c2:	47a6                	lw	a5,72(sp)
     1c4:	4836                	lw	a6,76(sp)
     1c6:	48c6                	lw	a7,80(sp)
     1c8:	4956                	lw	s2,84(sp)
     1ca:	49e6                	lw	s3,88(sp)
     1cc:	4a76                	lw	s4,92(sp)
     1ce:	5a86                	lw	s5,96(sp)
     1d0:	5b16                	lw	s6,100(sp)
     1d2:	5ba6                	lw	s7,104(sp)
     1d4:	5c36                	lw	s8,108(sp)
     1d6:	5cc6                	lw	s9,112(sp)
     1d8:	5d56                	lw	s10,116(sp)
     1da:	5de6                	lw	s11,120(sp)
     1dc:	5e76                	lw	t3,124(sp)
     1de:	4e8a                	lw	t4,128(sp)
     1e0:	4f1a                	lw	t5,132(sp)
     1e2:	4faa                	lw	t6,136(sp)
     1e4:	08c10113          	addi	sp,sp,140
     1e8:	30200073          	mret

000001ec <exception_syscall>:
     1ec:	00000073          	ecall
     1f0:	8082                	ret

000001f2 <start>:
     1f2:	00007137          	lui	sp,0x7
     1f6:	f6010113          	addi	sp,sp,-160 # 6f60 <_sp>
     1fa:	14000293          	li	t0,320
     1fe:	30529073          	csrw	mtvec,t0
     202:	6295                	lui	t0,0x5
     204:	da828293          	addi	t0,t0,-600 # 4da8 <_ZZN5cue_t11CommandExecEvE3buf>
     208:	631d                	lui	t1,0x7
     20a:	f7030313          	addi	t1,t1,-144 # 6f70 <_end>

0000020e <bss_clear>:
     20e:	0002a023          	sw	zero,0(t0)
     212:	0291                	addi	t0,t0,4
     214:	fe62cde3          	blt	t0,t1,20e <bss_clear>
     218:	00000517          	auipc	a0,0x0
     21c:	e2450513          	addi	a0,a0,-476 # 3c <arg_argc>
     220:	4108                	lw	a0,0(a0)
     222:	00000597          	auipc	a1,0x0
     226:	e1e58593          	addi	a1,a1,-482 # 40 <arg_argv>
     22a:	220000ef          	jal	ra,44a <main>
     22e:	2009                	jal	230 <_exit>

00000230 <_exit>:
     230:	0ff57513          	zext.b	a0,a0
     234:	7b251073          	csrw	dscratch0,a0

00000238 <_exit_loop>:
     238:	2001                	jal	238 <_exit_loop>

0000023a <_Z10core_reseti>:
     23a:	85aa                	mv	a1,a0
     23c:	faa02223          	sw	a0,-92(zero) # ffffffa4 <__ram_end+0xfffeffa4>
     240:	6511                	lui	a0,0x4
     242:	f8850513          	addi	a0,a0,-120 # 3f88 <stream_vscanf+0x4c0>
     246:	2ef0206f          	j	2d34 <riscprintf_>

0000024a <_Z15full_core_resetv>:
     24a:	6511                	lui	a0,0x4
     24c:	1141                	addi	sp,sp,-16
     24e:	f9450513          	addi	a0,a0,-108 # 3f94 <stream_vscanf+0x4cc>
     252:	c606                	sw	ra,12(sp)
     254:	c422                	sw	s0,8(sp)
     256:	c226                	sw	s1,4(sp)
     258:	6411                	lui	s0,0x4
     25a:	2db020ef          	jal	ra,2d34 <riscprintf_>
     25e:	fa400493          	li	s1,-92
     262:	4581                	li	a1,0
     264:	0004a023          	sw	zero,0(s1)
     268:	f8840513          	addi	a0,s0,-120 # 3f88 <stream_vscanf+0x4c0>
     26c:	2c9020ef          	jal	ra,2d34 <riscprintf_>
     270:	0c800513          	li	a0,200
     274:	0b0030ef          	jal	ra,3324 <_Z10riscusleepi>
     278:	6515                	lui	a0,0x5
     27a:	e2050513          	addi	a0,a0,-480 # 4e20 <_ZZN5cue_t7LoadCUEEiE4line+0x58>
     27e:	f0002023          	sw	zero,-256(zero) # ffffff00 <__ram_end+0xfffeff00>
     282:	0a2030ef          	jal	ra,3324 <_Z10riscusleepi>
     286:	77c1                	lui	a5,0xffff0
     288:	fb402703          	lw	a4,-76(zero) # ffffffb4 <__ram_end+0xfffeffb4>
     28c:	5388                	lw	a0,32(a5)
     28e:	53cc                	lw	a1,36(a5)
     290:	22c5                	jal	470 <_Z15pcecd_set_imageii>
     292:	4585                	li	a1,1
     294:	03300513          	li	a0,51
     298:	567010ef          	jal	ra,1ffe <_Z21HPS_spi_uio_cmd8_conthh>
     29c:	487010ef          	jal	ra,1f22 <_Z13HPS_DisableIOv>
     2a0:	6511                	lui	a0,0x4
     2a2:	fac50513          	addi	a0,a0,-84 # 3fac <stream_vscanf+0x4e4>
     2a6:	28f020ef          	jal	ra,2d34 <riscprintf_>
     2aa:	4785                	li	a5,1
     2ac:	c09c                	sw	a5,0(s1)
     2ae:	4585                	li	a1,1
     2b0:	f8840513          	addi	a0,s0,-120
     2b4:	281020ef          	jal	ra,2d34 <riscprintf_>
     2b8:	1f400513          	li	a0,500
     2bc:	068030ef          	jal	ra,3324 <_Z10riscusleepi>
     2c0:	4422                	lw	s0,8(sp)
     2c2:	40b2                	lw	ra,12(sp)
     2c4:	4492                	lw	s1,4(sp)
     2c6:	6511                	lui	a0,0x4
     2c8:	fb850513          	addi	a0,a0,-72 # 3fb8 <stream_vscanf+0x4f0>
     2cc:	0141                	addi	sp,sp,16
     2ce:	2670206f          	j	2d34 <riscprintf_>

000002d2 <_Z21core_update_dataslotsv>:
     2d2:	77c1                	lui	a5,0xffff0
     2d4:	fb402703          	lw	a4,-76(zero) # ffffffb4 <__ram_end+0xfffeffb4>
     2d8:	5388                	lw	a0,32(a5)
     2da:	53cc                	lw	a1,36(a5)
     2dc:	1141                	addi	sp,sp,-16
     2de:	c606                	sw	ra,12(sp)
     2e0:	2a41                	jal	470 <_Z15pcecd_set_imageii>
     2e2:	4585                	li	a1,1
     2e4:	03300513          	li	a0,51
     2e8:	517010ef          	jal	ra,1ffe <_Z21HPS_spi_uio_cmd8_conthh>
     2ec:	437010ef          	jal	ra,1f22 <_Z13HPS_DisableIOv>
     2f0:	40b2                	lw	ra,12(sp)
     2f2:	6511                	lui	a0,0x4
     2f4:	fac50513          	addi	a0,a0,-84 # 3fac <stream_vscanf+0x4e4>
     2f8:	0141                	addi	sp,sp,16
     2fa:	23b0206f          	j	2d34 <riscprintf_>

000002fe <_Z12core_poll_iov>:
     2fe:	a419                	j	504 <_Z10pcecd_pollv>

00000300 <_Z15core_reg_updatev>:
     300:	f0402783          	lw	a5,-252(zero) # ffffff04 <__ram_end+0xfffeff04>
     304:	1141                	addi	sp,sp,-16
     306:	c606                	sw	ra,12(sp)
     308:	8b85                	andi	a5,a5,1
     30a:	c38d                	beqz	a5,32c <_Z15core_reg_updatev+0x2c>
     30c:	6515                	lui	a0,0x5
     30e:	4585                	li	a1,1
     310:	e4850513          	addi	a0,a0,-440 # 4e48 <cue>
     314:	70e010ef          	jal	ra,1a22 <_ZN5cue_t9SetRegionEh>
     318:	f0402783          	lw	a5,-252(zero) # ffffff04 <__ram_end+0xfffeff04>
     31c:	8b89                	andi	a5,a5,2
     31e:	c38d                	beqz	a5,340 <_Z15core_reg_updatev+0x40>
     320:	40b2                	lw	ra,12(sp)
     322:	4789                	li	a5,2
     324:	f4f02a23          	sw	a5,-172(zero) # ffffff54 <__ram_end+0xfffeff54>
     328:	0141                	addi	sp,sp,16
     32a:	8082                	ret
     32c:	6515                	lui	a0,0x5
     32e:	4581                	li	a1,0
     330:	e4850513          	addi	a0,a0,-440 # 4e48 <cue>
     334:	6ee010ef          	jal	ra,1a22 <_ZN5cue_t9SetRegionEh>
     338:	f0402783          	lw	a5,-252(zero) # ffffff04 <__ram_end+0xfffeff04>
     33c:	8b89                	andi	a5,a5,2
     33e:	f3ed                	bnez	a5,320 <_Z15core_reg_updatev+0x20>
     340:	40b2                	lw	ra,12(sp)
     342:	f4002a23          	sw	zero,-172(zero) # ffffff54 <__ram_end+0xfffeff54>
     346:	0141                	addi	sp,sp,16
     348:	8082                	ret

0000034a <_Z18core_restart_firstv>:
     34a:	8082                	ret

0000034c <_Z16core_input_setupv>:
     34c:	8082                	ret

0000034e <_Z4initv>:
     34e:	1141                	addi	sp,sp,-16
     350:	4501                	li	a0,0
     352:	c606                	sw	ra,12(sp)
     354:	35dd                	jal	23a <_Z10core_reseti>
     356:	596020ef          	jal	ra,28ec <_Z17DisableInterruptsv>
     35a:	7bd020ef          	jal	ra,3316 <_Z8SetTimerv>
     35e:	57c020ef          	jal	ra,28da <SetUART>
     362:	7a1020ef          	jal	ra,3302 <_Z10ResetTimerv>
     366:	0007a537          	lui	a0,0x7a
     36a:	12050513          	addi	a0,a0,288 # 7a120 <__ram_end+0x6a120>
     36e:	7b7020ef          	jal	ra,3324 <_Z10riscusleepi>
     372:	6511                	lui	a0,0x4
     374:	fd050513          	addi	a0,a0,-48 # 3fd0 <stream_vscanf+0x508>
     378:	1bd020ef          	jal	ra,2d34 <riscprintf_>
     37c:	40b2                	lw	ra,12(sp)
     37e:	0141                	addi	sp,sp,16
     380:	b7e9                	j	34a <_Z18core_restart_firstv>

00000382 <_Z8mainloopv>:
     382:	6509                	lui	a0,0x2
     384:	1101                	addi	sp,sp,-32
     386:	32850513          	addi	a0,a0,808 # 2328 <_Z14OsdWriteOffsethPKchhcccii+0x148>
     38a:	ce06                	sw	ra,28(sp)
     38c:	cc22                	sw	s0,24(sp)
     38e:	ca26                	sw	s1,20(sp)
     390:	c84a                	sw	s2,16(sp)
     392:	c64e                	sw	s3,12(sp)
     394:	791020ef          	jal	ra,3324 <_Z10riscusleepi>
     398:	6511                	lui	a0,0x4
     39a:	fd850513          	addi	a0,a0,-40 # 3fd8 <stream_vscanf+0x510>
     39e:	197020ef          	jal	ra,2d34 <riscprintf_>
     3a2:	6511                	lui	a0,0x4
     3a4:	ff050513          	addi	a0,a0,-16 # 3ff0 <stream_vscanf+0x528>
     3a8:	18d020ef          	jal	ra,2d34 <riscprintf_>
     3ac:	6511                	lui	a0,0x4
     3ae:	00c50513          	addi	a0,a0,12 # 400c <stream_vscanf+0x544>
     3b2:	183020ef          	jal	ra,2d34 <riscprintf_>
     3b6:	6511                	lui	a0,0x4
     3b8:	01c50513          	addi	a0,a0,28 # 401c <stream_vscanf+0x554>
     3bc:	179020ef          	jal	ra,2d34 <riscprintf_>
     3c0:	7d000513          	li	a0,2000
     3c4:	761020ef          	jal	ra,3324 <_Z10riscusleepi>
     3c8:	4505                	li	a0,1
     3ca:	3d85                	jal	23a <_Z10core_reseti>
     3cc:	3719                	jal	2d2 <_Z21core_update_dataslotsv>
     3ce:	3fbd                	jal	34c <_Z16core_input_setupv>
     3d0:	51c020ef          	jal	ra,28ec <_Z17DisableInterruptsv>
     3d4:	6511                	lui	a0,0x4
     3d6:	03850513          	addi	a0,a0,56 # 4038 <stream_vscanf+0x570>
     3da:	15b020ef          	jal	ra,2d34 <riscprintf_>
     3de:	046cf4b7          	lui	s1,0x46cf
     3e2:	71048593          	addi	a1,s1,1808 # 46cf710 <__ram_end+0x46bf710>
     3e6:	4501                	li	a0,0
     3e8:	74b020ef          	jal	ra,3332 <_Z13RISCGetTimer1mi>
     3ec:	842a                	mv	s0,a0
     3ee:	6991                	lui	s3,0x4
     3f0:	6911                	lui	s2,0x4
     3f2:	71048493          	addi	s1,s1,1808
     3f6:	fb002783          	lw	a5,-80(zero) # ffffffb0 <__ram_end+0xfffeffb0>
     3fa:	ef99                	bnez	a5,418 <_Z8mainloopv+0x96>
     3fc:	3709                	jal	2fe <_Z12core_poll_iov>
     3fe:	3709                	jal	300 <_Z15core_reg_updatev>
     400:	8522                	mv	a0,s0
     402:	745020ef          	jal	ra,3346 <_Z15RISCCheckTimer1m>
     406:	e905                	bnez	a0,436 <_Z8mainloopv+0xb4>
     408:	f0002783          	lw	a5,-256(zero) # ffffff00 <__ram_end+0xfffeff00>
     40c:	8b85                	andi	a5,a5,1
     40e:	d7e5                	beqz	a5,3f6 <_Z8mainloopv+0x74>
     410:	3d2d                	jal	24a <_Z15full_core_resetv>
     412:	fb002783          	lw	a5,-80(zero) # ffffffb0 <__ram_end+0xfffeffb0>
     416:	d3fd                	beqz	a5,3fc <_Z8mainloopv+0x7a>
     418:	05098513          	addi	a0,s3,80 # 4050 <stream_vscanf+0x588>
     41c:	119020ef          	jal	ra,2d34 <riscprintf_>
     420:	3d4d                	jal	2d2 <_Z21core_update_dataslotsv>
     422:	06490513          	addi	a0,s2,100 # 4064 <stream_vscanf+0x59c>
     426:	10f020ef          	jal	ra,2d34 <riscprintf_>
     42a:	3dd1                	jal	2fe <_Z12core_poll_iov>
     42c:	3dd1                	jal	300 <_Z15core_reg_updatev>
     42e:	8522                	mv	a0,s0
     430:	717020ef          	jal	ra,3346 <_Z15RISCCheckTimer1m>
     434:	d971                	beqz	a0,408 <_Z8mainloopv+0x86>
     436:	1fa020ef          	jal	ra,2630 <_Z16osd_display_infov>
     43a:	757020ef          	jal	ra,3390 <_Z11ResetTimer1v>
     43e:	85a6                	mv	a1,s1
     440:	4501                	li	a0,0
     442:	6f1020ef          	jal	ra,3332 <_Z13RISCGetTimer1mi>
     446:	842a                	mv	s0,a0
     448:	b7c1                	j	408 <_Z8mainloopv+0x86>

0000044a <main>:
     44a:	1141                	addi	sp,sp,-16
     44c:	c606                	sw	ra,12(sp)
     44e:	3701                	jal	34e <_Z4initv>
     450:	6515                	lui	a0,0x5
     452:	e2050513          	addi	a0,a0,-480 # 4e20 <_ZZN5cue_t7LoadCUEEiE4line+0x58>
     456:	6cf020ef          	jal	ra,3324 <_Z10riscusleepi>
     45a:	3725                	jal	382 <_Z8mainloopv>

0000045c <_Z15pcecd_send_dataPhih>:
     45c:	1141                	addi	sp,sp,-16
     45e:	03600613          	li	a2,54
     462:	c606                	sw	ra,12(sp)
     464:	443010ef          	jal	ra,20a6 <_Z19HPS_io_file_tx_dataPKhmi>
     468:	40b2                	lw	ra,12(sp)
     46a:	4505                	li	a0,1
     46c:	0141                	addi	sp,sp,16
     46e:	8082                	ret

00000470 <_Z15pcecd_set_imageii>:
     470:	1101                	addi	sp,sp,-32
     472:	cc22                	sw	s0,24(sp)
     474:	6415                	lui	s0,0x5
     476:	ca26                	sw	s1,20(sp)
     478:	84aa                	mv	s1,a0
     47a:	e4840513          	addi	a0,s0,-440 # 4e48 <cue>
     47e:	ce06                	sw	ra,28(sp)
     480:	c84a                	sw	s2,16(sp)
     482:	c64e                	sw	s3,12(sp)
     484:	52d000ef          	jal	ra,11b0 <_ZN5cue_t6UnloadEv>
     488:	e4840513          	addi	a0,s0,-440
     48c:	57b000ef          	jal	ra,1206 <_ZN5cue_t5ResetEv>
     490:	4985                	li	s3,1
     492:	e4840913          	addi	s2,s0,-440
     496:	85a6                	mv	a1,s1
     498:	e4840513          	addi	a0,s0,-440
     49c:	01390423          	sb	s3,8(s2)
     4a0:	4f7000ef          	jal	ra,1196 <_ZN5cue_t4LoadEi>
     4a4:	03350863          	beq	a0,s3,4d4 <_Z15pcecd_set_imageii+0x64>
     4a8:	84aa                	mv	s1,a0
     4aa:	e4840513          	addi	a0,s0,-440
     4ae:	503000ef          	jal	ra,11b0 <_ZN5cue_t6UnloadEv>
     4b2:	4581                	li	a1,0
     4b4:	03300513          	li	a0,51
     4b8:	389010ef          	jal	ra,2040 <_Z16HPS_spi_uio_cmd8hh>
     4bc:	8526                	mv	a0,s1
     4be:	2a4020ef          	jal	ra,2762 <_Z26osd_display_error_datasloti>
     4c2:	01390423          	sb	s3,8(s2)
     4c6:	40f2                	lw	ra,28(sp)
     4c8:	4462                	lw	s0,24(sp)
     4ca:	44d2                	lw	s1,20(sp)
     4cc:	4942                	lw	s2,16(sp)
     4ce:	49b2                	lw	s3,12(sp)
     4d0:	6105                	addi	sp,sp,32
     4d2:	8082                	ret
     4d4:	00c92783          	lw	a5,12(s2)
     4d8:	4585                	li	a1,1
     4da:	03300513          	li	a0,51
     4de:	0017b793          	seqz	a5,a5
     4e2:	00f90423          	sb	a5,8(s2)
     4e6:	47a9                	li	a5,10
     4e8:	00f92023          	sw	a5,0(s2)
     4ec:	4462                	lw	s0,24(sp)
     4ee:	45c00793          	li	a5,1116
     4f2:	40f2                	lw	ra,28(sp)
     4f4:	44d2                	lw	s1,20(sp)
     4f6:	49b2                	lw	s3,12(sp)
     4f8:	00f92823          	sw	a5,16(s2)
     4fc:	4942                	lw	s2,16(sp)
     4fe:	6105                	addi	sp,sp,32
     500:	3410106f          	j	2040 <_Z16HPS_spi_uio_cmd8hh>

00000504 <_Z10pcecd_pollv>:
     504:	1101                	addi	sp,sp,-32
     506:	cc22                	sw	s0,24(sp)
     508:	641d                	lui	s0,0x7
     50a:	b2c42503          	lw	a0,-1236(s0) # 6b2c <_ZZ10pcecd_pollvE10poll_timer>
     50e:	ce06                	sw	ra,28(sp)
     510:	ca26                	sw	s1,20(sp)
     512:	c84a                	sw	s2,16(sp)
     514:	c161                	beqz	a0,5d4 <_Z10pcecd_pollv+0xd0>
     516:	659020ef          	jal	ra,336e <_Z15RISCCheckTimer2m>
     51a:	0c051763          	bnez	a0,5e8 <_Z10pcecd_pollv+0xe4>
     51e:	03400513          	li	a0,52
     522:	2c3010ef          	jal	ra,1fe4 <_Z20HPS_spi_uio_cmd_contt>
     526:	671d                	lui	a4,0x7
     528:	b2974683          	lbu	a3,-1239(a4) # 6b29 <_ZZ10pcecd_pollvE8last_req>
     52c:	0ff57793          	zext.b	a5,a0
     530:	08f68663          	beq	a3,a5,5bc <_Z10pcecd_pollv+0xb8>
     534:	4501                	li	a0,0
     536:	b2f704a3          	sb	a5,-1239(a4)
     53a:	207010ef          	jal	ra,1f40 <_Z12HPS_fpga_spit>
     53e:	87aa                	mv	a5,a0
     540:	4501                	li	a0,0
     542:	00f11023          	sh	a5,0(sp)
     546:	1fb010ef          	jal	ra,1f40 <_Z12HPS_fpga_spit>
     54a:	87aa                	mv	a5,a0
     54c:	4501                	li	a0,0
     54e:	00f11123          	sh	a5,2(sp)
     552:	1ef010ef          	jal	ra,1f40 <_Z12HPS_fpga_spit>
     556:	87aa                	mv	a5,a0
     558:	4501                	li	a0,0
     55a:	00f11223          	sh	a5,4(sp)
     55e:	1e3010ef          	jal	ra,1f40 <_Z12HPS_fpga_spit>
     562:	87aa                	mv	a5,a0
     564:	4501                	li	a0,0
     566:	00f11323          	sh	a5,6(sp)
     56a:	1d7010ef          	jal	ra,1f40 <_Z12HPS_fpga_spit>
     56e:	87aa                	mv	a5,a0
     570:	4501                	li	a0,0
     572:	00f11423          	sh	a5,8(sp)
     576:	1cb010ef          	jal	ra,1f40 <_Z12HPS_fpga_spit>
     57a:	87aa                	mv	a5,a0
     57c:	4501                	li	a0,0
     57e:	00f11523          	sh	a5,10(sp)
     582:	1bf010ef          	jal	ra,1f40 <_Z12HPS_fpga_spit>
     586:	00a11623          	sh	a0,12(sp)
     58a:	199010ef          	jal	ra,1f22 <_Z13HPS_DisableIOv>
     58e:	00c14783          	lbu	a5,12(sp)
     592:	4705                	li	a4,1
     594:	0ee78563          	beq	a5,a4,67e <_Z10pcecd_pollv+0x17a>
     598:	4689                	li	a3,2
     59a:	649d                	lui	s1,0x7
     59c:	0ad78e63          	beq	a5,a3,658 <_Z10pcecd_pollv+0x154>
     5a0:	c3f1                	beqz	a5,664 <_Z10pcecd_pollv+0x160>
     5a2:	b204a823          	sw	zero,-1232(s1) # 6b30 <_ZL10need_reset>
     5a6:	b2042623          	sw	zero,-1236(s0)
     5aa:	77c1                	lui	a5,0xffff0
     5ac:	4462                	lw	s0,24(sp)
     5ae:	5388                	lw	a0,32(a5)
     5b0:	40f2                	lw	ra,28(sp)
     5b2:	44d2                	lw	s1,20(sp)
     5b4:	4942                	lw	s2,16(sp)
     5b6:	53cc                	lw	a1,36(a5)
     5b8:	6105                	addi	sp,sp,32
     5ba:	bd5d                	j	470 <_Z15pcecd_set_imageii>
     5bc:	649d                	lui	s1,0x7
     5be:	165010ef          	jal	ra,1f22 <_Z13HPS_DisableIOv>
     5c2:	b304a783          	lw	a5,-1232(s1) # 6b30 <_ZL10need_reset>
     5c6:	fff1                	bnez	a5,5a2 <_Z10pcecd_pollv+0x9e>
     5c8:	40f2                	lw	ra,28(sp)
     5ca:	4462                	lw	s0,24(sp)
     5cc:	44d2                	lw	s1,20(sp)
     5ce:	4942                	lw	s2,16(sp)
     5d0:	6105                	addi	sp,sp,32
     5d2:	8082                	ret
     5d4:	f0402583          	lw	a1,-252(zero) # ffffff04 <__ram_end+0xfffeff04>
     5d8:	583020ef          	jal	ra,335a <_Z13RISCGetTimer2mi>
     5dc:	b2a42623          	sw	a0,-1236(s0)
     5e0:	58f020ef          	jal	ra,336e <_Z15RISCCheckTimer2m>
     5e4:	f2050de3          	beqz	a0,51e <_Z10pcecd_pollv+0x1a>
     5e8:	6915                	lui	s2,0x5
     5ea:	e4890493          	addi	s1,s2,-440 # 4e48 <cue>
     5ee:	5b5020ef          	jal	ra,33a2 <_Z11ResetTimer2v>
     5f2:	4094                	lw	a3,0(s1)
     5f4:	e69d                	bnez	a3,622 <_Z10pcecd_pollv+0x11e>
     5f6:	0084c703          	lbu	a4,8(s1)
     5fa:	4789                	li	a5,2
     5fc:	02f71363          	bne	a4,a5,622 <_Z10pcecd_pollv+0x11e>
     600:	48dc                	lw	a5,20(s1)
     602:	4741                	li	a4,16
     604:	b2e42623          	sw	a4,-1236(s0)
     608:	cf95                	beqz	a5,644 <_Z10pcecd_pollv+0x140>
     60a:	e4890513          	addi	a0,s2,-440
     60e:	390010ef          	jal	ra,199e <_ZN5cue_t9GetStatusEv>
     612:	85aa                	mv	a1,a0
     614:	e4890513          	addi	a0,s2,-440
     618:	3aa010ef          	jal	ra,19c2 <_ZN5cue_t10SendStatusEt>
     61c:	0004aa23          	sw	zero,20(s1)
     620:	a02d                	j	64a <_Z10pcecd_pollv+0x146>
     622:	671d                	lui	a4,0x7
     624:	b2874783          	lbu	a5,-1240(a4) # 6b28 <_ZZ10pcecd_pollvE3adj>
     628:	460d                	li	a2,3
     62a:	06c78463          	beq	a5,a2,692 <_Z10pcecd_pollv+0x18e>
     62e:	45b5                	li	a1,13
     630:	b2b42623          	sw	a1,-1236(s0)
     634:	06f67363          	bgeu	a2,a5,69a <_Z10pcecd_pollv+0x196>
     638:	4789                	li	a5,2
     63a:	48d0                	lw	a2,20(s1)
     63c:	b2f70423          	sb	a5,-1240(a4)
     640:	c211                	beqz	a2,644 <_Z10pcecd_pollv+0x140>
     642:	d6e1                	beqz	a3,60a <_Z10pcecd_pollv+0x106>
     644:	0184c783          	lbu	a5,24(s1)
     648:	efb9                	bnez	a5,6a6 <_Z10pcecd_pollv+0x1a2>
     64a:	e4890513          	addi	a0,s2,-440
     64e:	47a010ef          	jal	ra,1ac8 <_ZN5cue_t6UpdateEv>
     652:	b2042623          	sw	zero,-1236(s0)
     656:	b5e1                	j	51e <_Z10pcecd_pollv+0x1a>
     658:	6695                	lui	a3,0x5
     65a:	b304a783          	lw	a5,-1232(s1)
     65e:	e6e680a3          	sb	a4,-415(a3) # 4e61 <cue+0x19>
     662:	b795                	j	5c6 <_Z10pcecd_pollv+0xc2>
     664:	6915                	lui	s2,0x5
     666:	858a                	mv	a1,sp
     668:	e4890513          	addi	a0,s2,-440 # 4e48 <cue>
     66c:	33c010ef          	jal	ra,19a8 <_ZN5cue_t10SetCommandEPh>
     670:	e4890513          	addi	a0,s2,-440
     674:	3e1000ef          	jal	ra,1254 <_ZN5cue_t11CommandExecEv>
     678:	b304a783          	lw	a5,-1232(s1)
     67c:	b7a9                	j	5c6 <_Z10pcecd_pollv+0xc2>
     67e:	6515                	lui	a0,0x5
     680:	4581                	li	a1,0
     682:	e4850513          	addi	a0,a0,-440 # 4e48 <cue>
     686:	649d                	lui	s1,0x7
     688:	33a010ef          	jal	ra,19c2 <_ZN5cue_t10SendStatusEt>
     68c:	b304a783          	lw	a5,-1232(s1) # 6b30 <_ZL10need_reset>
     690:	bf1d                	j	5c6 <_Z10pcecd_pollv+0xc2>
     692:	47b9                	li	a5,14
     694:	b2f42623          	sw	a5,-1236(s0)
     698:	b745                	j	638 <_Z10pcecd_pollv+0x134>
     69a:	17fd                	addi	a5,a5,-1 # fffeffff <__ram_end+0xfffdffff>
     69c:	0ff7f793          	zext.b	a5,a5
     6a0:	ffc9                	bnez	a5,63a <_Z10pcecd_pollv+0x136>
     6a2:	478d                	li	a5,3
     6a4:	bf59                	j	63a <_Z10pcecd_pollv+0x136>
     6a6:	e4890513          	addi	a0,s2,-440
     6aa:	348010ef          	jal	ra,19f2 <_ZN5cue_t15SendDataRequestEv>
     6ae:	00048c23          	sb	zero,24(s1)
     6b2:	bf61                	j	64a <_Z10pcecd_pollv+0x146>

000006b4 <_Z14dataslot_readyv>:
     6b4:	1141                	addi	sp,sp,-16
     6b6:	c422                	sw	s0,8(sp)
     6b8:	f9002403          	lw	s0,-112(zero) # ffffff90 <__ram_end+0xfffeff90>
     6bc:	c606                	sw	ra,12(sp)
     6be:	00747593          	andi	a1,s0,7
     6c2:	e981                	bnez	a1,6d2 <_Z14dataslot_readyv+0x1e>
     6c4:	40b2                	lw	ra,12(sp)
     6c6:	00345513          	srli	a0,s0,0x3
     6ca:	4422                	lw	s0,8(sp)
     6cc:	8905                	andi	a0,a0,1
     6ce:	0141                	addi	sp,sp,16
     6d0:	8082                	ret
     6d2:	6511                	lui	a0,0x4
     6d4:	07850513          	addi	a0,a0,120 # 4078 <stream_vscanf+0x5b0>
     6d8:	65c020ef          	jal	ra,2d34 <riscprintf_>
     6dc:	40b2                	lw	ra,12(sp)
     6de:	00345513          	srli	a0,s0,0x3
     6e2:	4422                	lw	s0,8(sp)
     6e4:	8905                	andi	a0,a0,1
     6e6:	0141                	addi	sp,sp,16
     6e8:	8082                	ret

000006ea <_Z13dataslot_sizet>:
     6ea:	7741                	lui	a4,0xffff0
     6ec:	4781                	li	a5,0
     6ee:	10200613          	li	a2,258
     6f2:	a021                	j	6fa <_Z13dataslot_sizet+0x10>
     6f4:	0789                	addi	a5,a5,2
     6f6:	00c78c63          	beq	a5,a2,70e <_Z13dataslot_sizet+0x24>
     6fa:	4314                	lw	a3,0(a4)
     6fc:	0721                	addi	a4,a4,8 # ffff0008 <__ram_end+0xfffe0008>
     6fe:	fea69be3          	bne	a3,a0,6f4 <_Z13dataslot_sizet+0xa>
     702:	0785                	addi	a5,a5,1
     704:	7741                	lui	a4,0xffff0
     706:	078a                	slli	a5,a5,0x2
     708:	97ba                	add	a5,a5,a4
     70a:	4388                	lw	a0,0(a5)
     70c:	8082                	ret
     70e:	77c1                	lui	a5,0xffff0
     710:	0791                	addi	a5,a5,4 # ffff0004 <__ram_end+0xfffe0004>
     712:	4388                	lw	a0,0(a5)
     714:	8082                	ret

00000716 <_Z13dataslot_readtmmm>:
     716:	1101                	addi	sp,sp,-32
     718:	ca26                	sw	s1,20(sp)
     71a:	c84a                	sw	s2,16(sp)
     71c:	c64e                	sw	s3,12(sp)
     71e:	c452                	sw	s4,8(sp)
     720:	ce06                	sw	ra,28(sp)
     722:	cc22                	sw	s0,24(sp)
     724:	f8a02023          	sw	a0,-128(zero) # ffffff80 <__ram_end+0xfffeff80>
     728:	f8b02223          	sw	a1,-124(zero) # ffffff84 <__ram_end+0xfffeff84>
     72c:	f8d02423          	sw	a3,-120(zero) # ffffff88 <__ram_end+0xfffeff88>
     730:	f8c02623          	sw	a2,-116(zero) # ffffff8c <__ram_end+0xfffeff8c>
     734:	4785                	li	a5,1
     736:	f8f02823          	sw	a5,-112(zero) # ffffff90 <__ram_end+0xfffeff90>
     73a:	8932                	mv	s2,a2
     73c:	f8402603          	lw	a2,-124(zero) # ffffff84 <__ram_end+0xfffeff84>
     740:	84aa                	mv	s1,a0
     742:	8a2e                	mv	s4,a1
     744:	85aa                	mv	a1,a0
     746:	6511                	lui	a0,0x4
     748:	8736                	mv	a4,a3
     74a:	89b6                	mv	s3,a3
     74c:	09850513          	addi	a0,a0,152 # 4098 <stream_vscanf+0x5d0>
     750:	86ca                	mv	a3,s2
     752:	5e2020ef          	jal	ra,2d34 <riscprintf_>
     756:	4801                	li	a6,0
     758:	f9002403          	lw	s0,-112(zero) # ffffff90 <__ram_end+0xfffeff90>
     75c:	0805                	addi	a6,a6,1
     75e:	3e982893          	slti	a7,a6,1001
     762:	00445793          	srli	a5,s0,0x4
     766:	881d                	andi	s0,s0,7
     768:	8b85                	andi	a5,a5,1
     76a:	ec11                	bnez	s0,786 <_Z13dataslot_readtmmm+0x70>
     76c:	d7f5                	beqz	a5,758 <_Z13dataslot_readtmmm+0x42>
     76e:	02088f63          	beqz	a7,7ac <_Z13dataslot_readtmmm+0x96>
     772:	f9002403          	lw	s0,-112(zero) # ffffff90 <__ram_end+0xfffeff90>
     776:	0805                	addi	a6,a6,1
     778:	3e982893          	slti	a7,a6,1001
     77c:	00445793          	srli	a5,s0,0x4
     780:	881d                	andi	s0,s0,7
     782:	8b85                	andi	a5,a5,1
     784:	d465                	beqz	s0,76c <_Z13dataslot_readtmmm+0x56>
     786:	6511                	lui	a0,0x4
     788:	874e                	mv	a4,s3
     78a:	86ca                	mv	a3,s2
     78c:	8652                	mv	a2,s4
     78e:	85a6                	mv	a1,s1
     790:	0bc50513          	addi	a0,a0,188 # 40bc <stream_vscanf+0x5f4>
     794:	5a0020ef          	jal	ra,2d34 <riscprintf_>
     798:	40f2                	lw	ra,28(sp)
     79a:	8522                	mv	a0,s0
     79c:	4462                	lw	s0,24(sp)
     79e:	44d2                	lw	s1,20(sp)
     7a0:	4942                	lw	s2,16(sp)
     7a2:	49b2                	lw	s3,12(sp)
     7a4:	4a22                	lw	s4,8(sp)
     7a6:	6105                	addi	sp,sp,32
     7a8:	8082                	ret
     7aa:	e395                	bnez	a5,7ce <_Z13dataslot_readtmmm+0xb8>
     7ac:	f9002783          	lw	a5,-112(zero) # ffffff90 <__ram_end+0xfffeff90>
     7b0:	0077f413          	andi	s0,a5,7
     7b4:	8ba1                	andi	a5,a5,8
     7b6:	d875                	beqz	s0,7aa <_Z13dataslot_readtmmm+0x94>
     7b8:	6511                	lui	a0,0x4
     7ba:	87a2                	mv	a5,s0
     7bc:	874e                	mv	a4,s3
     7be:	86ca                	mv	a3,s2
     7c0:	8652                	mv	a2,s4
     7c2:	85a6                	mv	a1,s1
     7c4:	12050513          	addi	a0,a0,288 # 4120 <stream_vscanf+0x658>
     7c8:	56c020ef          	jal	ra,2d34 <riscprintf_>
     7cc:	b7f1                	j	798 <_Z13dataslot_readtmmm+0x82>
     7ce:	6511                	lui	a0,0x4
     7d0:	19050513          	addi	a0,a0,400 # 4190 <stream_vscanf+0x6c8>
     7d4:	560020ef          	jal	ra,2d34 <riscprintf_>
     7d8:	b7c1                	j	798 <_Z13dataslot_readtmmm+0x82>

000007da <_Z21dataslot_read_lba_settmm>:
     7da:	800007b7          	lui	a5,0x80000
     7de:	f8a02023          	sw	a0,-128(zero) # ffffff80 <__ram_end+0xfffeff80>
     7e2:	8ddd                	or	a1,a1,a5
     7e4:	f8b02223          	sw	a1,-124(zero) # ffffff84 <__ram_end+0xfffeff84>
     7e8:	f8c02623          	sw	a2,-116(zero) # ffffff8c <__ram_end+0xfffeff8c>
     7ec:	4501                	li	a0,0
     7ee:	8082                	ret

000007f0 <_Z17dataslot_read_lbam>:
     7f0:	1141                	addi	sp,sp,-16
     7f2:	c606                	sw	ra,12(sp)
     7f4:	c422                	sw	s0,8(sp)
     7f6:	f8a02423          	sw	a0,-120(zero) # ffffff88 <__ram_end+0xfffeff88>
     7fa:	4785                	li	a5,1
     7fc:	85aa                	mv	a1,a0
     7fe:	f8f02823          	sw	a5,-112(zero) # ffffff90 <__ram_end+0xfffeff90>
     802:	4701                	li	a4,0
     804:	f9002783          	lw	a5,-112(zero) # ffffff90 <__ram_end+0xfffeff90>
     808:	0705                	addi	a4,a4,1 # ffff0001 <__ram_end+0xfffe0001>
     80a:	06572693          	slti	a3,a4,101
     80e:	8391                	srli	a5,a5,0x4
     810:	8b85                	andi	a5,a5,1
     812:	dbed                	beqz	a5,804 <_Z17dataslot_read_lbam+0x14>
     814:	fae5                	bnez	a3,804 <_Z17dataslot_read_lbam+0x14>
     816:	f9002783          	lw	a5,-112(zero) # ffffff90 <__ram_end+0xfffeff90>
     81a:	0077f413          	andi	s0,a5,7
     81e:	8ba1                	andi	a5,a5,8
     820:	e801                	bnez	s0,830 <_Z17dataslot_read_lbam+0x40>
     822:	e38d                	bnez	a5,844 <_Z17dataslot_read_lbam+0x54>
     824:	f9002783          	lw	a5,-112(zero) # ffffff90 <__ram_end+0xfffeff90>
     828:	0077f413          	andi	s0,a5,7
     82c:	8ba1                	andi	a5,a5,8
     82e:	d875                	beqz	s0,822 <_Z17dataslot_read_lbam+0x32>
     830:	6511                	lui	a0,0x4
     832:	1a450513          	addi	a0,a0,420 # 41a4 <stream_vscanf+0x6dc>
     836:	4fe020ef          	jal	ra,2d34 <riscprintf_>
     83a:	40b2                	lw	ra,12(sp)
     83c:	8522                	mv	a0,s0
     83e:	4422                	lw	s0,8(sp)
     840:	0141                	addi	sp,sp,16
     842:	8082                	ret
     844:	f8c02783          	lw	a5,-116(zero) # ffffff8c <__ram_end+0xfffeff8c>
     848:	40b2                	lw	ra,12(sp)
     84a:	8522                	mv	a0,s0
     84c:	4422                	lw	s0,8(sp)
     84e:	97ae                	add	a5,a5,a1
     850:	f8f02623          	sw	a5,-116(zero) # ffffff8c <__ram_end+0xfffeff8c>
     854:	0141                	addi	sp,sp,16
     856:	8082                	ret

00000858 <_Z22dataslot_read_lba_fastmb>:
     858:	c905                	beqz	a0,888 <_Z22dataslot_read_lba_fastmb+0x30>
     85a:	f8a02423          	sw	a0,-120(zero) # ffffff88 <__ram_end+0xfffeff88>
     85e:	4785                	li	a5,1
     860:	f8f02823          	sw	a5,-112(zero) # ffffff90 <__ram_end+0xfffeff90>
     864:	c195                	beqz	a1,888 <_Z22dataslot_read_lba_fastmb+0x30>
     866:	6689                	lui	a3,0x2
     868:	4701                	li	a4,0
     86a:	71168693          	addi	a3,a3,1809 # 2711 <_Z23osd_display_info_updatei+0x5>
     86e:	f9002783          	lw	a5,-112(zero) # ffffff90 <__ram_end+0xfffeff90>
     872:	0705                	addi	a4,a4,1
     874:	8391                	srli	a5,a5,0x4
     876:	8b85                	andi	a5,a5,1
     878:	dbfd                	beqz	a5,86e <_Z22dataslot_read_lba_fastmb+0x16>
     87a:	fed74ae3          	blt	a4,a3,86e <_Z22dataslot_read_lba_fastmb+0x16>
     87e:	f8c02783          	lw	a5,-116(zero) # ffffff8c <__ram_end+0xfffeff8c>
     882:	97aa                	add	a5,a5,a0
     884:	f8f02623          	sw	a5,-116(zero) # ffffff8c <__ram_end+0xfffeff8c>
     888:	4501                	li	a0,0
     88a:	8082                	ret

0000088c <_Z14clearbufferramv>:
     88c:	67a1                	lui	a5,0x8
     88e:	6741                	lui	a4,0x10
     890:	0007a023          	sw	zero,0(a5) # 8000 <sector_buffer0>
     894:	0791                	addi	a5,a5,4
     896:	fee79de3          	bne	a5,a4,890 <_Z14clearbufferramv+0x4>
     89a:	8082                	ret

0000089c <_Z12RISCFileSeekimm>:
     89c:	669d                	lui	a3,0x7
     89e:	b4c6a703          	lw	a4,-1204(a3) # 6b4c <sector_buffer_dataslot>
     8a2:	715d                	addi	sp,sp,-80
     8a4:	c4a2                	sw	s0,72(sp)
     8a6:	c2a6                	sw	s1,68(sp)
     8a8:	de4e                	sw	s3,60(sp)
     8aa:	dc52                	sw	s4,56(sp)
     8ac:	d85a                	sw	s6,48(sp)
     8ae:	d65e                	sw	s7,44(sp)
     8b0:	d462                	sw	s8,40(sp)
     8b2:	d06a                	sw	s10,32(sp)
     8b4:	6a1d                	lui	s4,0x7
     8b6:	6b1d                	lui	s6,0x7
     8b8:	842a                	mv	s0,a0
     8ba:	6ba1                	lui	s7,0x8
     8bc:	6c31                	lui	s8,0xc
     8be:	c686                	sw	ra,76(sp)
     8c0:	c0ca                	sw	s2,64(sp)
     8c2:	da56                	sw	s5,52(sp)
     8c4:	d266                	sw	s9,36(sp)
     8c6:	ce6e                	sw	s11,28(sp)
     8c8:	b48a2783          	lw	a5,-1208(s4) # 6b48 <sector_buffer0_address>
     8cc:	b44b2503          	lw	a0,-1212(s6) # 6b44 <sector_buffer1_address>
     8d0:	84ae                	mv	s1,a1
     8d2:	89b2                	mv	s3,a2
     8d4:	000b8b93          	mv	s7,s7
     8d8:	000c0c13          	mv	s8,s8
     8dc:	6d1d                	lui	s10,0x7
     8de:	08870263          	beq	a4,s0,962 <_Z12RISCFileSeekimm+0xc6>
     8e2:	679d                	lui	a5,0x7
     8e4:	b537a023          	sw	s3,-1216(a5) # 6b40 <sector_buffer_size>
     8e8:	679d                	lui	a5,0x7
     8ea:	b486a623          	sw	s0,-1204(a3)
     8ee:	b49a2423          	sw	s1,-1208(s4)
     8f2:	b40b2223          	sw	zero,-1212(s6)
     8f6:	b20d2e23          	sw	zero,-1220(s10) # 6b3c <sector_buffer_selector>
     8fa:	b207ac23          	sw	zero,-1224(a5) # 6b38 <sector_buffer_offset>
     8fe:	4901                	li	s2,0
     900:	a011                	j	904 <_Z12RISCFileSeekimm+0x68>
     902:	0905                	addi	s2,s2,1
     904:	3b45                	jal	6b4 <_Z14dataslot_readyv>
     906:	dd75                	beqz	a0,902 <_Z12RISCFileSeekimm+0x66>
     908:	854a                	mv	a0,s2
     90a:	603010ef          	jal	ra,270c <_Z23osd_display_info_updatei>
     90e:	b48a2603          	lw	a2,-1208(s4)
     912:	0442                	slli	s0,s0,0x10
     914:	8041                	srli	s0,s0,0x10
     916:	85de                	mv	a1,s7
     918:	8522                	mv	a0,s0
     91a:	35c1                	jal	7da <_Z21dataslot_read_lba_settmm>
     91c:	b48a2903          	lw	s2,-1208(s4)
     920:	8522                	mv	a0,s0
     922:	33e1                	jal	6ea <_Z13dataslot_sizet>
     924:	41250533          	sub	a0,a0,s2
     928:	6791                	lui	a5,0x4
     92a:	12f55b63          	bge	a0,a5,a60 <_Z12RISCFileSeekimm+0x1c4>
     92e:	35c9                	jal	7f0 <_Z17dataslot_read_lbam>
     930:	8522                	mv	a0,s0
     932:	3b65                	jal	6ea <_Z13dataslot_sizet>
     934:	6911                	lui	s2,0x4
     936:	12a96763          	bltu	s2,a0,a64 <_Z12RISCFileSeekimm+0x1c8>
     93a:	679d                	lui	a5,0x7
     93c:	4705                	li	a4,1
     93e:	b2e7aa23          	sw	a4,-1228(a5) # 6b34 <sector_buffer_processing>
     942:	40b6                	lw	ra,76(sp)
     944:	4426                	lw	s0,72(sp)
     946:	4496                	lw	s1,68(sp)
     948:	4906                	lw	s2,64(sp)
     94a:	59f2                	lw	s3,60(sp)
     94c:	5a62                	lw	s4,56(sp)
     94e:	5ad2                	lw	s5,52(sp)
     950:	5b42                	lw	s6,48(sp)
     952:	5bb2                	lw	s7,44(sp)
     954:	5c22                	lw	s8,40(sp)
     956:	5c92                	lw	s9,36(sp)
     958:	5d02                	lw	s10,32(sp)
     95a:	4df2                	lw	s11,28(sp)
     95c:	4505                	li	a0,1
     95e:	6161                	addi	sp,sp,80
     960:	8082                	ret
     962:	b3cd2e83          	lw	t4,-1220(s10)
     966:	00c588b3          	add	a7,a1,a2
     96a:	6591                	lui	a1,0x4
     96c:	95be                	add	a1,a1,a5
     96e:	00f4b633          	sltu	a2,s1,a5
     972:	00b8be33          	sltu	t3,a7,a1
     976:	00164613          	xori	a2,a2,1
     97a:	fffe8313          	addi	t1,t4,-1
     97e:	00ce7db3          	and	s11,t3,a2
     982:	04031d63          	bnez	t1,9dc <_Z12RISCFileSeekimm+0x140>
     986:	040d8b63          	beqz	s11,9dc <_Z12RISCFileSeekimm+0x140>
     98a:	8c9d                	sub	s1,s1,a5
     98c:	671d                	lui	a4,0x7
     98e:	b20d2e23          	sw	zero,-1220(s10)
     992:	b2972c23          	sw	s1,-1224(a4) # 6b38 <sector_buffer_offset>
     996:	669d                	lui	a3,0x7
     998:	6711                	lui	a4,0x4
     99a:	97ba                	add	a5,a5,a4
     99c:	4705                	li	a4,1
     99e:	b2e6aa23          	sw	a4,-1228(a3) # 6b34 <sector_buffer_processing>
     9a2:	b4fb2223          	sw	a5,-1212(s6)
     9a6:	4481                	li	s1,0
     9a8:	a011                	j	9ac <_Z12RISCFileSeekimm+0x110>
     9aa:	0485                	addi	s1,s1,1
     9ac:	3321                	jal	6b4 <_Z14dataslot_readyv>
     9ae:	dd75                	beqz	a0,9aa <_Z12RISCFileSeekimm+0x10e>
     9b0:	8526                	mv	a0,s1
     9b2:	55b010ef          	jal	ra,270c <_Z23osd_display_info_updatei>
     9b6:	b44b2603          	lw	a2,-1212(s6)
     9ba:	0442                	slli	s0,s0,0x10
     9bc:	8041                	srli	s0,s0,0x10
     9be:	85e2                	mv	a1,s8
     9c0:	8522                	mv	a0,s0
     9c2:	3d21                	jal	7da <_Z21dataslot_read_lba_settmm>
     9c4:	b44b2483          	lw	s1,-1212(s6)
     9c8:	8522                	mv	a0,s0
     9ca:	3305                	jal	6ea <_Z13dataslot_sizet>
     9cc:	8d05                	sub	a0,a0,s1
     9ce:	6791                	lui	a5,0x4
     9d0:	00f54363          	blt	a0,a5,9d6 <_Z12RISCFileSeekimm+0x13a>
     9d4:	6511                	lui	a0,0x4
     9d6:	4581                	li	a1,0
     9d8:	3541                	jal	858 <_Z22dataslot_read_lba_fastmb>
     9da:	b7a5                	j	942 <_Z12RISCFileSeekimm+0xa6>
     9dc:	6f11                	lui	t5,0x4
     9de:	00a4b333          	sltu	t1,s1,a0
     9e2:	9f2a                	add	t5,t5,a0
     9e4:	8d89                	sub	a1,a1,a0
     9e6:	01e8b8b3          	sltu	a7,a7,t5
     9ea:	ffe36c93          	ori	s9,t1,-2
     9ee:	0015b593          	seqz	a1,a1
     9f2:	00bcfcb3          	and	s9,s9,a1
     9f6:	011675b3          	and	a1,a2,a7
     9fa:	00bcf733          	and	a4,s9,a1
     9fe:	00134313          	xori	t1,t1,1
     a02:	c43a                	sw	a4,8(sp)
     a04:	8cba                	mv	s9,a4
     a06:	0068f8b3          	and	a7,a7,t1
     a0a:	060e9e63          	bnez	t4,a86 <_Z12RISCFileSeekimm+0x1ea>
     a0e:	06088c63          	beqz	a7,a86 <_Z12RISCFileSeekimm+0x1ea>
     a12:	669d                	lui	a3,0x7
     a14:	b206aa23          	sw	zero,-1228(a3) # 6b34 <sector_buffer_processing>
     a18:	120c9963          	bnez	s9,b4a <_Z12RISCFileSeekimm+0x2ae>
     a1c:	120d9763          	bnez	s11,b4a <_Z12RISCFileSeekimm+0x2ae>
     a20:	4785                	li	a5,1
     a22:	8c89                	sub	s1,s1,a0
     a24:	b2fd2e23          	sw	a5,-1220(s10)
     a28:	679d                	lui	a5,0x7
     a2a:	b297ac23          	sw	s1,-1224(a5) # 6b38 <sector_buffer_offset>
     a2e:	6791                	lui	a5,0x4
     a30:	953e                	add	a0,a0,a5
     a32:	4785                	li	a5,1
     a34:	b2f6aa23          	sw	a5,-1228(a3)
     a38:	b4aa2423          	sw	a0,-1208(s4)
     a3c:	4481                	li	s1,0
     a3e:	a011                	j	a42 <_Z12RISCFileSeekimm+0x1a6>
     a40:	0485                	addi	s1,s1,1
     a42:	398d                	jal	6b4 <_Z14dataslot_readyv>
     a44:	dd75                	beqz	a0,a40 <_Z12RISCFileSeekimm+0x1a4>
     a46:	8526                	mv	a0,s1
     a48:	4c5010ef          	jal	ra,270c <_Z23osd_display_info_updatei>
     a4c:	b48a2603          	lw	a2,-1208(s4)
     a50:	0442                	slli	s0,s0,0x10
     a52:	8041                	srli	s0,s0,0x10
     a54:	85de                	mv	a1,s7
     a56:	8522                	mv	a0,s0
     a58:	3349                	jal	7da <_Z21dataslot_read_lba_settmm>
     a5a:	b48a2483          	lw	s1,-1208(s4)
     a5e:	b7ad                	j	9c8 <_Z12RISCFileSeekimm+0x12c>
     a60:	6511                	lui	a0,0x4
     a62:	b5f1                	j	92e <_Z12RISCFileSeekimm+0x92>
     a64:	01248633          	add	a2,s1,s2
     a68:	85e2                	mv	a1,s8
     a6a:	8522                	mv	a0,s0
     a6c:	b4cb2223          	sw	a2,-1212(s6)
     a70:	33ad                	jal	7da <_Z21dataslot_read_lba_settmm>
     a72:	b44b2483          	lw	s1,-1212(s6)
     a76:	8522                	mv	a0,s0
     a78:	398d                	jal	6ea <_Z13dataslot_sizet>
     a7a:	8d05                	sub	a0,a0,s1
     a7c:	0b255863          	bge	a0,s2,b2c <_Z12RISCFileSeekimm+0x290>
     a80:	4581                	li	a1,0
     a82:	3bd9                	jal	858 <_Z22dataslot_read_lba_fastmb>
     a84:	bd5d                	j	93a <_Z12RISCFileSeekimm+0x9e>
     a86:	41e78f33          	sub	t5,a5,t5
     a8a:	fff64913          	not	s2,a2
     a8e:	001f3f13          	seqz	t5,t5
     a92:	01e97933          	and	s2,s2,t5
     a96:	006e7e33          	and	t3,t3,t1
     a9a:	01b8e8b3          	or	a7,a7,s11
     a9e:	01c97933          	and	s2,s2,t3
     aa2:	0018ca93          	xori	s5,a7,1
     aa6:	000c8463          	beqz	s9,aae <_Z12RISCFileSeekimm+0x212>
     aaa:	060a9963          	bnez	s5,b1c <_Z12RISCFileSeekimm+0x280>
     aae:	08090163          	beqz	s2,b30 <_Z12RISCFileSeekimm+0x294>
     ab2:	060a8f63          	beqz	s5,b30 <_Z12RISCFileSeekimm+0x294>
     ab6:	c602                	sw	zero,12(sp)
     ab8:	a021                	j	ac0 <_Z12RISCFileSeekimm+0x224>
     aba:	47b2                	lw	a5,12(sp)
     abc:	0785                	addi	a5,a5,1 # 4001 <stream_vscanf+0x539>
     abe:	c63e                	sw	a5,12(sp)
     ac0:	3ed5                	jal	6b4 <_Z14dataslot_readyv>
     ac2:	dd65                	beqz	a0,aba <_Z12RISCFileSeekimm+0x21e>
     ac4:	4532                	lw	a0,12(sp)
     ac6:	447010ef          	jal	ra,270c <_Z23osd_display_info_updatei>
     aca:	669d                	lui	a3,0x7
     acc:	b4c6a603          	lw	a2,-1204(a3) # 6b4c <sector_buffer_dataslot>
     ad0:	47a2                	lw	a5,8(sp)
     ad2:	00194913          	xori	s2,s2,1
     ad6:	0017c793          	xori	a5,a5,1
     ada:	0127f933          	and	s2,a5,s2
     ade:	40c407b3          	sub	a5,s0,a2
     ae2:	012afab3          	and	s5,s5,s2
     ae6:	0017b613          	seqz	a2,a5
     aea:	01567ab3          	and	s5,a2,s5
     aee:	de0a9ae3          	bnez	s5,8e2 <_Z12RISCFileSeekimm+0x46>
     af2:	de0798e3          	bnez	a5,8e2 <_Z12RISCFileSeekimm+0x46>
     af6:	669d                	lui	a3,0x7
     af8:	b346a603          	lw	a2,-1228(a3) # 6b34 <sector_buffer_processing>
     afc:	020c9c63          	bnez	s9,b34 <_Z12RISCFileSeekimm+0x298>
     b00:	020d9a63          	bnez	s11,b34 <_Z12RISCFileSeekimm+0x298>
     b04:	b44b2503          	lw	a0,-1212(s6)
     b08:	4785                	li	a5,1
     b0a:	b2fd2e23          	sw	a5,-1220(s10)
     b0e:	8c89                	sub	s1,s1,a0
     b10:	679d                	lui	a5,0x7
     b12:	b297ac23          	sw	s1,-1224(a5) # 6b38 <sector_buffer_offset>
     b16:	e20616e3          	bnez	a2,942 <_Z12RISCFileSeekimm+0xa6>
     b1a:	bf11                	j	a2e <_Z12RISCFileSeekimm+0x192>
     b1c:	c602                	sw	zero,12(sp)
     b1e:	a021                	j	b26 <_Z12RISCFileSeekimm+0x28a>
     b20:	47b2                	lw	a5,12(sp)
     b22:	0785                	addi	a5,a5,1
     b24:	c63e                	sw	a5,12(sp)
     b26:	3679                	jal	6b4 <_Z14dataslot_readyv>
     b28:	dd65                	beqz	a0,b20 <_Z12RISCFileSeekimm+0x284>
     b2a:	bf69                	j	ac4 <_Z12RISCFileSeekimm+0x228>
     b2c:	6511                	lui	a0,0x4
     b2e:	bf89                	j	a80 <_Z12RISCFileSeekimm+0x1e4>
     b30:	8622                	mv	a2,s0
     b32:	bf79                	j	ad0 <_Z12RISCFileSeekimm+0x234>
     b34:	b48a2783          	lw	a5,-1208(s4)
     b38:	671d                	lui	a4,0x7
     b3a:	b20d2e23          	sw	zero,-1220(s10)
     b3e:	8c9d                	sub	s1,s1,a5
     b40:	b2972c23          	sw	s1,-1224(a4) # 6b38 <sector_buffer_offset>
     b44:	de061fe3          	bnez	a2,942 <_Z12RISCFileSeekimm+0xa6>
     b48:	bd81                	j	998 <_Z12RISCFileSeekimm+0xfc>
     b4a:	8c9d                	sub	s1,s1,a5
     b4c:	671d                	lui	a4,0x7
     b4e:	b20d2e23          	sw	zero,-1220(s10)
     b52:	b2972c23          	sw	s1,-1224(a4) # 6b38 <sector_buffer_offset>
     b56:	b589                	j	998 <_Z12RISCFileSeekimm+0xfc>

00000b58 <_Z15RISCFileReadAdvihhhm>:
     b58:	1101                	addi	sp,sp,-32
     b5a:	c256                	sw	s5,4(sp)
     b5c:	679d                	lui	a5,0x7
     b5e:	6a9d                	lui	s5,0x7
     b60:	b407a783          	lw	a5,-1216(a5) # 6b40 <sector_buffer_size>
     b64:	c64e                	sw	s3,12(sp)
     b66:	b38aa983          	lw	s3,-1224(s5) # 6b38 <sector_buffer_offset>
     b6a:	ca26                	sw	s1,20(sp)
     b6c:	c84a                	sw	s2,16(sp)
     b6e:	c452                	sw	s4,8(sp)
     b70:	0622                	slli	a2,a2,0x8
     b72:	ce06                	sw	ra,28(sp)
     b74:	cc22                	sw	s0,24(sp)
     b76:	97ce                	add	a5,a5,s3
     b78:	6511                	lui	a0,0x4
     b7a:	8936                	mv	s2,a3
     b7c:	8a3a                	mv	s4,a4
     b7e:	00b664b3          	or	s1,a2,a1
     b82:	04a7f863          	bgeu	a5,a0,bd2 <_Z15RISCFileReadAdvihhhm+0x7a>
     b86:	679d                	lui	a5,0x7
     b88:	b3c7a783          	lw	a5,-1220(a5) # 6b3c <sector_buffer_selector>
     b8c:	cf95                	beqz	a5,bc8 <_Z15RISCFileReadAdvihhhm+0x70>
     b8e:	6431                	lui	s0,0xc
     b90:	00040413          	mv	s0,s0
     b94:	944e                	add	s0,s0,s3
     b96:	376010ef          	jal	ra,1f0c <_Z12HPS_EnableIOv>
     b9a:	854a                	mv	a0,s2
     b9c:	3a4010ef          	jal	ra,1f40 <_Z12HPS_fpga_spit>
     ba0:	8526                	mv	a0,s1
     ba2:	39e010ef          	jal	ra,1f40 <_Z12HPS_fpga_spit>
     ba6:	4605                	li	a2,1
     ba8:	85d2                	mv	a1,s4
     baa:	8522                	mv	a0,s0
     bac:	3d8010ef          	jal	ra,1f84 <_Z13HPS_spi_writePKhmi>
     bb0:	372010ef          	jal	ra,1f22 <_Z13HPS_DisableIOv>
     bb4:	40f2                	lw	ra,28(sp)
     bb6:	4462                	lw	s0,24(sp)
     bb8:	44d2                	lw	s1,20(sp)
     bba:	4942                	lw	s2,16(sp)
     bbc:	49b2                	lw	s3,12(sp)
     bbe:	4a22                	lw	s4,8(sp)
     bc0:	4a92                	lw	s5,4(sp)
     bc2:	4505                	li	a0,1
     bc4:	6105                	addi	sp,sp,32
     bc6:	8082                	ret
     bc8:	6421                	lui	s0,0x8
     bca:	00040413          	mv	s0,s0
     bce:	944e                	add	s0,s0,s3
     bd0:	b7d9                	j	b96 <_Z15RISCFileReadAdvihhhm+0x3e>
     bd2:	4401                	li	s0,0
     bd4:	a011                	j	bd8 <_Z15RISCFileReadAdvihhhm+0x80>
     bd6:	0405                	addi	s0,s0,1 # 8001 <sector_buffer0+0x1>
     bd8:	3cf1                	jal	6b4 <_Z14dataslot_readyv>
     bda:	dd75                	beqz	a0,bd6 <_Z15RISCFileReadAdvihhhm+0x7e>
     bdc:	8522                	mv	a0,s0
     bde:	32f010ef          	jal	ra,270c <_Z23osd_display_info_updatei>
     be2:	679d                	lui	a5,0x7
     be4:	b3c7a783          	lw	a5,-1220(a5) # 6b3c <sector_buffer_selector>
     be8:	7471                	lui	s0,0xffffc
     bea:	944e                	add	s0,s0,s3
     bec:	b38aaa83          	lw	s5,-1224(s5)
     bf0:	9452                	add	s0,s0,s4
     bf2:	cf8d                	beqz	a5,c2c <_Z15RISCFileReadAdvihhhm+0xd4>
     bf4:	67b1                	lui	a5,0xc
     bf6:	00078793          	mv	a5,a5
     bfa:	6a21                	lui	s4,0x8
     bfc:	9abe                	add	s5,s5,a5
     bfe:	000a0a13          	mv	s4,s4
     c02:	30a010ef          	jal	ra,1f0c <_Z12HPS_EnableIOv>
     c06:	854a                	mv	a0,s2
     c08:	338010ef          	jal	ra,1f40 <_Z12HPS_fpga_spit>
     c0c:	8526                	mv	a0,s1
     c0e:	332010ef          	jal	ra,1f40 <_Z12HPS_fpga_spit>
     c12:	6591                	lui	a1,0x4
     c14:	413585b3          	sub	a1,a1,s3
     c18:	8556                	mv	a0,s5
     c1a:	4605                	li	a2,1
     c1c:	368010ef          	jal	ra,1f84 <_Z13HPS_spi_writePKhmi>
     c20:	4605                	li	a2,1
     c22:	85a2                	mv	a1,s0
     c24:	8552                	mv	a0,s4
     c26:	35e010ef          	jal	ra,1f84 <_Z13HPS_spi_writePKhmi>
     c2a:	b759                	j	bb0 <_Z15RISCFileReadAdvihhhm+0x58>
     c2c:	67a1                	lui	a5,0x8
     c2e:	00078793          	mv	a5,a5
     c32:	6a31                	lui	s4,0xc
     c34:	9abe                	add	s5,s5,a5
     c36:	000a0a13          	mv	s4,s4
     c3a:	b7e1                	j	c02 <_Z15RISCFileReadAdvihhhm+0xaa>

00000c3c <_ZN5cue_t7LoadCUEEi>:
     c3c:	715d                	addi	sp,sp,-80
     c3e:	de4e                	sw	s3,60(sp)
     c40:	89aa                	mv	s3,a0
     c42:	06400513          	li	a0,100
     c46:	c2a6                	sw	s1,68(sp)
     c48:	c686                	sw	ra,76(sp)
     c4a:	c4a2                	sw	s0,72(sp)
     c4c:	c0ca                	sw	s2,64(sp)
     c4e:	dc52                	sw	s4,56(sp)
     c50:	da56                	sw	s5,52(sp)
     c52:	d85a                	sw	s6,48(sp)
     c54:	d65e                	sw	s7,44(sp)
     c56:	d462                	sw	s8,40(sp)
     c58:	d266                	sw	s9,36(sp)
     c5a:	d06a                	sw	s10,32(sp)
     c5c:	ce6e                	sw	s11,28(sp)
     c5e:	84ae                	mv	s1,a1
     c60:	a8bff0ef          	jal	ra,6ea <_Z13dataslot_sizet>
     c64:	42050463          	beqz	a0,108c <_ZN5cue_t7LoadCUEEi+0x450>
     c68:	842a                	mv	s0,a0
     c6a:	06600513          	li	a0,102
     c6e:	a7dff0ef          	jal	ra,6ea <_Z13dataslot_sizet>
     c72:	6785                	lui	a5,0x1
     c74:	7741                	lui	a4,0xffff0
     c76:	80078793          	addi	a5,a5,-2048 # 800 <_Z17dataslot_read_lbam+0x10>
     c7a:	cb5c                	sw	a5,20(a4)
     c7c:	6c1d                	lui	s8,0x7
     c7e:	67a1                	lui	a5,0x8
     c80:	8b2a                	mv	s6,a0
     c82:	b4fc2823          	sw	a5,-1200(s8) # 6b50 <foo1>
     c86:	3119                	jal	88c <_Z14clearbufferramv>
     c88:	b50c2783          	lw	a5,-1200(s8)
     c8c:	01049513          	slli	a0,s1,0x10
     c90:	800005b7          	lui	a1,0x80000
     c94:	86a2                	mv	a3,s0
     c96:	4601                	li	a2,0
     c98:	8ddd                	or	a1,a1,a5
     c9a:	8141                	srli	a0,a0,0x10
     c9c:	a7bff0ef          	jal	ra,716 <_Z13dataslot_readtmmm>
     ca0:	4a01                	li	s4,0
     ca2:	4a81                	li	s5,0
     ca4:	6915                	lui	s2,0x5
     ca6:	4cb5                	li	s9,13
     ca8:	07e00d13          	li	s10,126
     cac:	6491                	lui	s1,0x4
     cae:	b50c2783          	lw	a5,-1200(s8)
     cb2:	dc090423          	sb	zero,-568(s2) # 4dc8 <_ZZN5cue_t7LoadCUEEiE4line>
     cb6:	dc890b93          	addi	s7,s2,-568
     cba:	c63e                	sw	a5,12(sp)
     cbc:	0007c703          	lbu	a4,0(a5) # 8000 <sector_buffer0>
     cc0:	cf31                	beqz	a4,d1c <_ZN5cue_t7LoadCUEEi+0xe0>
     cc2:	b50c2683          	lw	a3,-1200(s8)
     cc6:	4601                	li	a2,0
     cc8:	48a9                	li	a7,10
     cca:	15170563          	beq	a4,a7,e14 <_ZN5cue_t7LoadCUEEi+0x1d8>
     cce:	0785                	addi	a5,a5,1
     cd0:	0685                	addi	a3,a3,1
     cd2:	01970f63          	beq	a4,s9,cf0 <_ZN5cue_t7LoadCUEEi+0xb4>
     cd6:	00160593          	addi	a1,a2,1
     cda:	01760833          	add	a6,a2,s7
     cde:	01758533          	add	a0,a1,s7
     ce2:	00cd4763          	blt	s10,a2,cf0 <_ZN5cue_t7LoadCUEEi+0xb4>
     ce6:	00e80023          	sb	a4,0(a6)
     cea:	00050023          	sb	zero,0(a0) # 4000 <stream_vscanf+0x538>
     cee:	862e                	mv	a2,a1
     cf0:	c63e                	sw	a5,12(sp)
     cf2:	b4dc2823          	sw	a3,-1200(s8)
     cf6:	0007c703          	lbu	a4,0(a5)
     cfa:	fb61                	bnez	a4,cca <_ZN5cue_t7LoadCUEEi+0x8e>
     cfc:	0007c783          	lbu	a5,0(a5)
     d00:	cf91                	beqz	a5,d1c <_ZN5cue_t7LoadCUEEi+0xe0>
     d02:	b50c2583          	lw	a1,-1200(s8)
     d06:	0074                	addi	a3,sp,12
     d08:	2b048513          	addi	a0,s1,688 # 42b0 <stream_vscanf+0x7e8>
     d0c:	028020ef          	jal	ra,2d34 <riscprintf_>
     d10:	b50c2783          	lw	a5,-1200(s8)
     d14:	7761                	lui	a4,0xffff8
     d16:	973e                	add	a4,a4,a5
     d18:	fa8771e3          	bgeu	a4,s0,cba <_ZN5cue_t7LoadCUEEi+0x7e>
     d1c:	dc894783          	lbu	a5,-568(s2)
     d20:	22078263          	beqz	a5,f44 <_ZN5cue_t7LoadCUEEi+0x308>
     d24:	6511                	lui	a0,0x4
     d26:	dc890593          	addi	a1,s2,-568
     d2a:	1d450513          	addi	a0,a0,468 # 41d4 <stream_vscanf+0x70c>
     d2e:	006020ef          	jal	ra,2d34 <riscprintf_>
     d32:	dc894703          	lbu	a4,-568(s2)
     d36:	02000793          	li	a5,32
     d3a:	dc890b93          	addi	s7,s2,-568
     d3e:	00f71963          	bne	a4,a5,d50 <_ZN5cue_t7LoadCUEEi+0x114>
     d42:	02000713          	li	a4,32
     d46:	001bc783          	lbu	a5,1(s7) # 8001 <sector_buffer0+0x1>
     d4a:	0b85                	addi	s7,s7,1
     d4c:	fee78de3          	beq	a5,a4,d46 <_ZN5cue_t7LoadCUEEi+0x10a>
     d50:	000bc703          	lbu	a4,0(s7)
     d54:	04600793          	li	a5,70
     d58:	0cf70663          	beq	a4,a5,e24 <_ZN5cue_t7LoadCUEEi+0x1e8>
     d5c:	6d91                	lui	s11,0x4
     d5e:	0030                	addi	a2,sp,8
     d60:	208d8593          	addi	a1,s11,520 # 4208 <stream_vscanf+0x740>
     d64:	855e                	mv	a0,s7
     d66:	48b020ef          	jal	ra,39f0 <sscanf>
     d6a:	16050463          	beqz	a0,ed2 <_ZN5cue_t7LoadCUEEi+0x296>
     d6e:	0209a783          	lw	a5,32(s3)
     d72:	46a2                	lw	a3,8(sp)
     d74:	00178713          	addi	a4,a5,1
     d78:	1cd71863          	bne	a4,a3,f48 <_ZN5cue_t7LoadCUEEi+0x30c>
     d7c:	120b0463          	beqz	s6,ea4 <_ZN5cue_t7LoadCUEEi+0x268>
     d80:	02c00693          	li	a3,44
     d84:	02d78633          	mul	a2,a5,a3
     d88:	0742                	slli	a4,a4,0x10
     d8a:	06578793          	addi	a5,a5,101
     d8e:	8341                	srli	a4,a4,0x10
     d90:	01079513          	slli	a0,a5,0x10
     d94:	06470713          	addi	a4,a4,100 # ffff8064 <__ram_end+0xfffe8064>
     d98:	8141                	srli	a0,a0,0x10
     d9a:	964e                	add	a2,a2,s3
     d9c:	d258                	sw	a4,36(a2)
     d9e:	94dff0ef          	jal	ra,6ea <_Z13dataslot_sizet>
     da2:	0209ad83          	lw	s11,32(s3)
     da6:	02c00693          	li	a3,44
     daa:	02dd87b3          	mul	a5,s11,a3
     dae:	97ce                	add	a5,a5,s3
     db0:	d7c8                	sw	a0,44(a5)
     db2:	0207a423          	sw	zero,40(a5)
     db6:	02c00793          	li	a5,44
     dba:	02fd87b3          	mul	a5,s11,a5
     dbe:	97ce                	add	a5,a5,s3
     dc0:	57d8                	lw	a4,44(a5)
     dc2:	00e05463          	blez	a4,dca <_ZN5cue_t7LoadCUEEi+0x18e>
     dc6:	4705                	li	a4,1
     dc8:	d798                	sw	a4,40(a5)
     dca:	6591                	lui	a1,0x4
     dcc:	23058593          	addi	a1,a1,560 # 4230 <stream_vscanf+0x768>
     dd0:	855e                	mv	a0,s7
     dd2:	4bf020ef          	jal	ra,3a90 <strstr>
     dd6:	14050463          	beqz	a0,f1e <_ZN5cue_t7LoadCUEEi+0x2e2>
     dda:	02c00793          	li	a5,44
     dde:	02fd87b3          	mul	a5,s11,a5
     de2:	6705                	lui	a4,0x1
     de4:	80070713          	addi	a4,a4,-2048 # 800 <_Z17dataslot_read_lbam+0x10>
     de8:	97ce                	add	a5,a5,s3
     dea:	c3f8                	sw	a4,68(a5)
     dec:	4705                	li	a4,1
     dee:	c3b8                	sw	a4,64(a5)
     df0:	ea0d8fe3          	beqz	s11,cae <_ZN5cue_t7LoadCUEEi+0x72>
     df4:	02c00713          	li	a4,44
     df8:	02ed87b3          	mul	a5,s11,a4
     dfc:	97ce                	add	a5,a5,s3
     dfe:	579c                	lw	a5,40(a5)
     e00:	ea0797e3          	bnez	a5,cae <_ZN5cue_t7LoadCUEEi+0x72>
     e04:	fffd8793          	addi	a5,s11,-1
     e08:	02e787b3          	mul	a5,a5,a4
     e0c:	97ce                	add	a5,a5,s3
     e0e:	0207ae23          	sw	zero,60(a5)
     e12:	bd71                	j	cae <_ZN5cue_t7LoadCUEEi+0x72>
     e14:	b50c2703          	lw	a4,-1200(s8)
     e18:	0785                	addi	a5,a5,1
     e1a:	c63e                	sw	a5,12(sp)
     e1c:	0705                	addi	a4,a4,1
     e1e:	b4ec2823          	sw	a4,-1200(s8)
     e22:	bde9                	j	cfc <_ZN5cue_t7LoadCUEEi+0xc0>
     e24:	001bc703          	lbu	a4,1(s7)
     e28:	04900793          	li	a5,73
     e2c:	f2f718e3          	bne	a4,a5,d5c <_ZN5cue_t7LoadCUEEi+0x120>
     e30:	002bc703          	lbu	a4,2(s7)
     e34:	04c00793          	li	a5,76
     e38:	f2f712e3          	bne	a4,a5,d5c <_ZN5cue_t7LoadCUEEi+0x120>
     e3c:	003bc703          	lbu	a4,3(s7)
     e40:	04500793          	li	a5,69
     e44:	f0f71ce3          	bne	a4,a5,d5c <_ZN5cue_t7LoadCUEEi+0x120>
     e48:	6591                	lui	a1,0x4
     e4a:	1e458593          	addi	a1,a1,484 # 41e4 <stream_vscanf+0x71c>
     e4e:	855e                	mv	a0,s7
     e50:	441020ef          	jal	ra,3a90 <strstr>
     e54:	4a01                	li	s4,0
     e56:	c119                	beqz	a0,e5c <_ZN5cue_t7LoadCUEEi+0x220>
     e58:	02c00a93          	li	s5,44
     e5c:	0209a783          	lw	a5,32(s3)
     e60:	02c00713          	li	a4,44
     e64:	6591                	lui	a1,0x4
     e66:	02e787b3          	mul	a5,a5,a4
     e6a:	1ec58593          	addi	a1,a1,492 # 41ec <stream_vscanf+0x724>
     e6e:	855e                	mv	a0,s7
     e70:	97ce                	add	a5,a5,s3
     e72:	0207a823          	sw	zero,48(a5)
     e76:	41b020ef          	jal	ra,3a90 <strstr>
     e7a:	e2051ae3          	bnez	a0,cae <_ZN5cue_t7LoadCUEEi+0x72>
     e7e:	6591                	lui	a1,0x4
     e80:	1f458593          	addi	a1,a1,500 # 41f4 <stream_vscanf+0x72c>
     e84:	855e                	mv	a0,s7
     e86:	40b020ef          	jal	ra,3a90 <strstr>
     e8a:	e20512e3          	bnez	a0,cae <_ZN5cue_t7LoadCUEEi+0x72>
     e8e:	6591                	lui	a1,0x4
     e90:	20058593          	addi	a1,a1,512 # 4200 <stream_vscanf+0x738>
     e94:	855e                	mv	a0,s7
     e96:	3fb020ef          	jal	ra,3a90 <strstr>
     e9a:	e0051ae3          	bnez	a0,cae <_ZN5cue_t7LoadCUEEi+0x72>
     e9e:	6541                	lui	a0,0x10
     ea0:	157d                	addi	a0,a0,-1 # ffff <sector_buffer1+0x3fff>
     ea2:	a211                	j	fa6 <_ZN5cue_t7LoadCUEEi+0x36a>
     ea4:	02c00713          	li	a4,44
     ea8:	02e787b3          	mul	a5,a5,a4
     eac:	06500693          	li	a3,101
     eb0:	06500513          	li	a0,101
     eb4:	97ce                	add	a5,a5,s3
     eb6:	d3d4                	sw	a3,36(a5)
     eb8:	833ff0ef          	jal	ra,6ea <_Z13dataslot_sizet>
     ebc:	0209ad83          	lw	s11,32(s3)
     ec0:	02c00713          	li	a4,44
     ec4:	02ed87b3          	mul	a5,s11,a4
     ec8:	97ce                	add	a5,a5,s3
     eca:	d7c8                	sw	a0,44(a5)
     ecc:	0207a423          	sw	zero,40(a5)
     ed0:	b5dd                	j	db6 <_ZN5cue_t7LoadCUEEi+0x17a>
     ed2:	0030                	addi	a2,sp,8
     ed4:	208d8593          	addi	a1,s11,520
     ed8:	855e                	mv	a0,s7
     eda:	317020ef          	jal	ra,39f0 <sscanf>
     ede:	e80518e3          	bnez	a0,d6e <_ZN5cue_t7LoadCUEEi+0x132>
     ee2:	6591                	lui	a1,0x4
     ee4:	0038                	addi	a4,sp,8
     ee6:	0054                	addi	a3,sp,4
     ee8:	860a                	mv	a2,sp
     eea:	21858593          	addi	a1,a1,536 # 4218 <stream_vscanf+0x750>
     eee:	855e                	mv	a0,s7
     ef0:	301020ef          	jal	ra,39f0 <sscanf>
     ef4:	4d8d                	li	s11,3
     ef6:	15b51063          	bne	a0,s11,1036 <_ZN5cue_t7LoadCUEEi+0x3fa>
     efa:	4682                	lw	a3,0(sp)
     efc:	6785                	lui	a5,0x1
     efe:	19478793          	addi	a5,a5,404 # 1194 <_ZN5cue_t7LoadCUEEi+0x558>
     f02:	02f686b3          	mul	a3,a3,a5
     f06:	4792                	lw	a5,4(sp)
     f08:	00279713          	slli	a4,a5,0x2
     f0c:	973e                	add	a4,a4,a5
     f0e:	00471793          	slli	a5,a4,0x4
     f12:	8f99                	sub	a5,a5,a4
     f14:	4722                	lw	a4,8(sp)
     f16:	97ba                	add	a5,a5,a4
     f18:	97b6                	add	a5,a5,a3
     f1a:	9a3e                	add	s4,s4,a5
     f1c:	bb49                	j	cae <_ZN5cue_t7LoadCUEEi+0x72>
     f1e:	6591                	lui	a1,0x4
     f20:	23c58593          	addi	a1,a1,572 # 423c <stream_vscanf+0x774>
     f24:	855e                	mv	a0,s7
     f26:	36b020ef          	jal	ra,3a90 <strstr>
     f2a:	cd49                	beqz	a0,fc4 <_ZN5cue_t7LoadCUEEi+0x388>
     f2c:	02c00793          	li	a5,44
     f30:	02fd87b3          	mul	a5,s11,a5
     f34:	6705                	lui	a4,0x1
     f36:	93070713          	addi	a4,a4,-1744 # 930 <_Z12RISCFileSeekimm+0x94>
     f3a:	97ce                	add	a5,a5,s3
     f3c:	c3f8                	sw	a4,68(a5)
     f3e:	4705                	li	a4,1
     f40:	c3b8                	sw	a4,64(a5)
     f42:	b57d                	j	df0 <_ZN5cue_t7LoadCUEEi+0x1b4>
     f44:	0209a783          	lw	a5,32(s3)
     f48:	e3d5                	bnez	a5,fec <_ZN5cue_t7LoadCUEEi+0x3b0>
     f4a:	7441                	lui	s0,0xffff0
     f4c:	400c                	lw	a1,0(s0)
     f4e:	4050                	lw	a2,4(s0)
     f50:	6511                	lui	a0,0x4
     f52:	2d050513          	addi	a0,a0,720 # 42d0 <stream_vscanf+0x808>
     f56:	5df010ef          	jal	ra,2d34 <riscprintf_>
     f5a:	440c                	lw	a1,8(s0)
     f5c:	4450                	lw	a2,12(s0)
     f5e:	6511                	lui	a0,0x4
     f60:	2e450513          	addi	a0,a0,740 # 42e4 <stream_vscanf+0x81c>
     f64:	5d1010ef          	jal	ra,2d34 <riscprintf_>
     f68:	480c                	lw	a1,16(s0)
     f6a:	4850                	lw	a2,20(s0)
     f6c:	6511                	lui	a0,0x4
     f6e:	2f850513          	addi	a0,a0,760 # 42f8 <stream_vscanf+0x830>
     f72:	5c3010ef          	jal	ra,2d34 <riscprintf_>
     f76:	4c0c                	lw	a1,24(s0)
     f78:	4c50                	lw	a2,28(s0)
     f7a:	6511                	lui	a0,0x4
     f7c:	30c50513          	addi	a0,a0,780 # 430c <stream_vscanf+0x844>
     f80:	5b5010ef          	jal	ra,2d34 <riscprintf_>
     f84:	500c                	lw	a1,32(s0)
     f86:	5050                	lw	a2,36(s0)
     f88:	6511                	lui	a0,0x4
     f8a:	32050513          	addi	a0,a0,800 # 4320 <stream_vscanf+0x858>
     f8e:	5a7010ef          	jal	ra,2d34 <riscprintf_>
     f92:	540c                	lw	a1,40(s0)
     f94:	5450                	lw	a2,44(s0)
     f96:	6511                	lui	a0,0x4
     f98:	33850513          	addi	a0,a0,824 # 4338 <stream_vscanf+0x870>
     f9c:	599010ef          	jal	ra,2d34 <riscprintf_>
     fa0:	8edff0ef          	jal	ra,88c <_Z14clearbufferramv>
     fa4:	4505                	li	a0,1
     fa6:	40b6                	lw	ra,76(sp)
     fa8:	4426                	lw	s0,72(sp)
     faa:	4496                	lw	s1,68(sp)
     fac:	4906                	lw	s2,64(sp)
     fae:	59f2                	lw	s3,60(sp)
     fb0:	5a62                	lw	s4,56(sp)
     fb2:	5ad2                	lw	s5,52(sp)
     fb4:	5b42                	lw	s6,48(sp)
     fb6:	5bb2                	lw	s7,44(sp)
     fb8:	5c22                	lw	s8,40(sp)
     fba:	5c92                	lw	s9,36(sp)
     fbc:	5d02                	lw	s10,32(sp)
     fbe:	4df2                	lw	s11,28(sp)
     fc0:	6161                	addi	sp,sp,80
     fc2:	8082                	ret
     fc4:	6591                	lui	a1,0x4
     fc6:	24858593          	addi	a1,a1,584 # 4248 <stream_vscanf+0x780>
     fca:	855e                	mv	a0,s7
     fcc:	2c5020ef          	jal	ra,3a90 <strstr>
     fd0:	e20500e3          	beqz	a0,df0 <_ZN5cue_t7LoadCUEEi+0x1b4>
     fd4:	02c00793          	li	a5,44
     fd8:	02fd87b3          	mul	a5,s11,a5
     fdc:	6705                	lui	a4,0x1
     fde:	93070713          	addi	a4,a4,-1744 # 930 <_Z12RISCFileSeekimm+0x94>
     fe2:	97ce                	add	a5,a5,s3
     fe4:	c3f8                	sw	a4,68(a5)
     fe6:	0407a023          	sw	zero,64(a5)
     fea:	b519                	j	df0 <_ZN5cue_t7LoadCUEEi+0x1b4>
     fec:	02c00693          	li	a3,44
     ff0:	fff78713          	addi	a4,a5,-1
     ff4:	02d70733          	mul	a4,a4,a3
     ff8:	974e                	add	a4,a4,s3
     ffa:	5f54                	lw	a3,60(a4)
     ffc:	12068c63          	beqz	a3,1134 <_ZN5cue_t7LoadCUEEi+0x4f8>
    1000:	f4f055e3          	blez	a5,f4a <_ZN5cue_t7LoadCUEEi+0x30e>
    1004:	02498413          	addi	s0,s3,36
    1008:	4481                	li	s1,0
    100a:	6911                	lui	s2,0x4
    100c:	501c                	lw	a5,32(s0)
    100e:	00042883          	lw	a7,0(s0) # ffff0000 <__ram_end+0xfffe0000>
    1012:	01c42803          	lw	a6,28(s0)
    1016:	4458                	lw	a4,12(s0)
    1018:	4c14                	lw	a3,24(s0)
    101a:	4850                	lw	a2,20(s0)
    101c:	85a6                	mv	a1,s1
    101e:	35090513          	addi	a0,s2,848 # 4350 <stream_vscanf+0x888>
    1022:	513010ef          	jal	ra,2d34 <riscprintf_>
    1026:	0209a783          	lw	a5,32(s3)
    102a:	0485                	addi	s1,s1,1
    102c:	02c40413          	addi	s0,s0,44
    1030:	fcf4cee3          	blt	s1,a5,100c <_ZN5cue_t7LoadCUEEi+0x3d0>
    1034:	bf19                	j	f4a <_ZN5cue_t7LoadCUEEi+0x30e>
    1036:	6591                	lui	a1,0x4
    1038:	0038                	addi	a4,sp,8
    103a:	0054                	addi	a3,sp,4
    103c:	860a                	mv	a2,sp
    103e:	25058593          	addi	a1,a1,592 # 4250 <stream_vscanf+0x788>
    1042:	855e                	mv	a0,s7
    1044:	1ad020ef          	jal	ra,39f0 <sscanf>
    1048:	05b51563          	bne	a0,s11,1092 <_ZN5cue_t7LoadCUEEi+0x456>
    104c:	0209a783          	lw	a5,32(s3)
    1050:	c4078fe3          	beqz	a5,cae <_ZN5cue_t7LoadCUEEi+0x72>
    1054:	02c00713          	li	a4,44
    1058:	17fd                	addi	a5,a5,-1
    105a:	02e787b3          	mul	a5,a5,a4
    105e:	97ce                	add	a5,a5,s3
    1060:	5fd8                	lw	a4,60(a5)
    1062:	c40716e3          	bnez	a4,cae <_ZN5cue_t7LoadCUEEi+0x72>
    1066:	4602                	lw	a2,0(sp)
    1068:	6705                	lui	a4,0x1
    106a:	19470713          	addi	a4,a4,404 # 1194 <_ZN5cue_t7LoadCUEEi+0x558>
    106e:	02e60633          	mul	a2,a2,a4
    1072:	4712                	lw	a4,4(sp)
    1074:	00271693          	slli	a3,a4,0x2
    1078:	96ba                	add	a3,a3,a4
    107a:	00469713          	slli	a4,a3,0x4
    107e:	8f15                	sub	a4,a4,a3
    1080:	46a2                	lw	a3,8(sp)
    1082:	9736                	add	a4,a4,a3
    1084:	9732                	add	a4,a4,a2
    1086:	9752                	add	a4,a4,s4
    1088:	dfd8                	sw	a4,60(a5)
    108a:	b115                	j	cae <_ZN5cue_t7LoadCUEEi+0x72>
    108c:	06400513          	li	a0,100
    1090:	bf19                	j	fa6 <_ZN5cue_t7LoadCUEEi+0x36a>
    1092:	6591                	lui	a1,0x4
    1094:	0038                	addi	a4,sp,8
    1096:	0054                	addi	a3,sp,4
    1098:	860a                	mv	a2,sp
    109a:	26858593          	addi	a1,a1,616 # 4268 <stream_vscanf+0x7a0>
    109e:	855e                	mv	a0,s7
    10a0:	151020ef          	jal	ra,39f0 <sscanf>
    10a4:	fbb504e3          	beq	a0,s11,104c <_ZN5cue_t7LoadCUEEi+0x410>
    10a8:	6591                	lui	a1,0x4
    10aa:	0038                	addi	a4,sp,8
    10ac:	0054                	addi	a3,sp,4
    10ae:	860a                	mv	a2,sp
    10b0:	28058593          	addi	a1,a1,640 # 4280 <stream_vscanf+0x7b8>
    10b4:	855e                	mv	a0,s7
    10b6:	13b020ef          	jal	ra,39f0 <sscanf>
    10ba:	09b51563          	bne	a0,s11,1144 <_ZN5cue_t7LoadCUEEi+0x508>
    10be:	4712                	lw	a4,4(sp)
    10c0:	0209a783          	lw	a5,32(s3)
    10c4:	02c00513          	li	a0,44
    10c8:	00271693          	slli	a3,a4,0x2
    10cc:	96ba                	add	a3,a3,a4
    10ce:	00469713          	slli	a4,a3,0x4
    10d2:	02a78633          	mul	a2,a5,a0
    10d6:	8f15                	sub	a4,a4,a3
    10d8:	4682                	lw	a3,0(sp)
    10da:	6585                	lui	a1,0x1
    10dc:	19458593          	addi	a1,a1,404 # 1194 <_ZN5cue_t7LoadCUEEi+0x558>
    10e0:	4822                	lw	a6,8(sp)
    10e2:	9742                	add	a4,a4,a6
    10e4:	02b686b3          	mul	a3,a3,a1
    10e8:	964e                	add	a2,a2,s3
    10ea:	560c                	lw	a1,40(a2)
    10ec:	9736                	add	a4,a4,a3
    10ee:	c5bd                	beqz	a1,115c <_ZN5cue_t7LoadCUEEi+0x520>
    10f0:	5654                	lw	a3,44(a2)
    10f2:	426c                	lw	a1,68(a2)
    10f4:	01c9a503          	lw	a0,28(s3)
    10f8:	415686b3          	sub	a3,a3,s5
    10fc:	96ae                	add	a3,a3,a1
    10fe:	16fd                	addi	a3,a3,-1
    1100:	02b6c6b3          	div	a3,a3,a1
    1104:	9552                	add	a0,a0,s4
    1106:	972a                	add	a4,a4,a0
    1108:	de18                	sw	a4,56(a2)
    110a:	02b505b3          	mul	a1,a0,a1
    110e:	00a68733          	add	a4,a3,a0
    1112:	de58                	sw	a4,60(a2)
    1114:	415586b3          	sub	a3,a1,s5
    1118:	da14                	sw	a3,48(a2)
    111a:	00e9ae23          	sw	a4,28(s3)
    111e:	0785                	addi	a5,a5,1
    1120:	02f9a023          	sw	a5,32(s3)
    1124:	040b0963          	beqz	s6,1176 <_ZN5cue_t7LoadCUEEi+0x53a>
    1128:	4769                	li	a4,26
    112a:	b8f752e3          	bge	a4,a5,cae <_ZN5cue_t7LoadCUEEi+0x72>
    112e:	ea079fe3          	bnez	a5,fec <_ZN5cue_t7LoadCUEEi+0x3b0>
    1132:	bd21                	j	f4a <_ZN5cue_t7LoadCUEEi+0x30e>
    1134:	01c9a683          	lw	a3,28(s3)
    1138:	9a36                	add	s4,s4,a3
    113a:	0149ae23          	sw	s4,28(s3)
    113e:	03472e23          	sw	s4,60(a4)
    1142:	bd7d                	j	1000 <_ZN5cue_t7LoadCUEEi+0x3c4>
    1144:	6591                	lui	a1,0x4
    1146:	0038                	addi	a4,sp,8
    1148:	0054                	addi	a3,sp,4
    114a:	860a                	mv	a2,sp
    114c:	29858593          	addi	a1,a1,664 # 4298 <stream_vscanf+0x7d0>
    1150:	855e                	mv	a0,s7
    1152:	09f020ef          	jal	ra,39f0 <sscanf>
    1156:	b5b51ce3          	bne	a0,s11,cae <_ZN5cue_t7LoadCUEEi+0x72>
    115a:	b795                	j	10be <_ZN5cue_t7LoadCUEEi+0x482>
    115c:	4274                	lw	a3,68(a2)
    115e:	9752                	add	a4,a4,s4
    1160:	de18                	sw	a4,56(a2)
    1162:	02da06b3          	mul	a3,s4,a3
    1166:	415686b3          	sub	a3,a3,s5
    116a:	da14                	sw	a3,48(a2)
    116c:	ef81                	bnez	a5,1184 <_ZN5cue_t7LoadCUEEi+0x548>
    116e:	4785                	li	a5,1
    1170:	02f9a023          	sw	a5,32(s3)
    1174:	be2d                	j	cae <_ZN5cue_t7LoadCUEEi+0x72>
    1176:	06300713          	li	a4,99
    117a:	b2f75ae3          	bge	a4,a5,cae <_ZN5cue_t7LoadCUEEi+0x72>
    117e:	e60797e3          	bnez	a5,fec <_ZN5cue_t7LoadCUEEi+0x3b0>
    1182:	b3e1                	j	f4a <_ZN5cue_t7LoadCUEEi+0x30e>
    1184:	fff78693          	addi	a3,a5,-1
    1188:	02a686b3          	mul	a3,a3,a0
    118c:	96ce                	add	a3,a3,s3
    118e:	5ed0                	lw	a2,60(a3)
    1190:	f659                	bnez	a2,111e <_ZN5cue_t7LoadCUEEi+0x4e2>
    1192:	ded8                	sw	a4,60(a3)
    1194:	b769                	j	111e <_ZN5cue_t7LoadCUEEi+0x4e2>

00001196 <_ZN5cue_t4LoadEi>:
    1196:	1141                	addi	sp,sp,-16
    1198:	c422                	sw	s0,8(sp)
    119a:	c606                	sw	ra,12(sp)
    119c:	842a                	mv	s0,a0
    119e:	a9fff0ef          	jal	ra,c3c <_ZN5cue_t7LoadCUEEi>
    11a2:	00a037b3          	snez	a5,a0
    11a6:	40b2                	lw	ra,12(sp)
    11a8:	c45c                	sw	a5,12(s0)
    11aa:	4422                	lw	s0,8(sp)
    11ac:	0141                	addi	sp,sp,16
    11ae:	8082                	ret

000011b0 <_ZN5cue_t6UnloadEv>:
    11b0:	455c                	lw	a5,12(a0)
    11b2:	cba9                	beqz	a5,1204 <_ZN5cue_t6UnloadEv+0x54>
    11b4:	5118                	lw	a4,32(a0)
    11b6:	04e05163          	blez	a4,11f8 <_ZN5cue_t6UnloadEv+0x48>
    11ba:	02c00793          	li	a5,44
    11be:	02f70733          	mul	a4,a4,a5
    11c2:	02450793          	addi	a5,a0,36
    11c6:	973e                	add	a4,a4,a5
    11c8:	0007a023          	sw	zero,0(a5)
    11cc:	0007a223          	sw	zero,4(a5)
    11d0:	0007a423          	sw	zero,8(a5)
    11d4:	0007a623          	sw	zero,12(a5)
    11d8:	0007a823          	sw	zero,16(a5)
    11dc:	0007aa23          	sw	zero,20(a5)
    11e0:	0007ac23          	sw	zero,24(a5)
    11e4:	0007ae23          	sw	zero,28(a5)
    11e8:	0207a023          	sw	zero,32(a5)
    11ec:	0207a223          	sw	zero,36(a5)
    11f0:	02c78793          	addi	a5,a5,44
    11f4:	fce79ae3          	bne	a5,a4,11c8 <_ZN5cue_t6UnloadEv+0x18>
    11f8:	00052623          	sw	zero,12(a0)
    11fc:	00052e23          	sw	zero,28(a0)
    1200:	02052023          	sw	zero,32(a0)
    1204:	8082                	ret

00001206 <_ZN5cue_t5ResetEv>:
    1206:	6785                	lui	a5,0x1
    1208:	00052023          	sw	zero,0(a0)
    120c:	00052223          	sw	zero,4(a0)
    1210:	97aa                	add	a5,a5,a0
    1212:	1207a423          	sw	zero,296(a5) # 1128 <_ZN5cue_t7LoadCUEEi+0x4ec>
    1216:	1207a623          	sw	zero,300(a5)
    121a:	1207aa23          	sw	zero,308(a5)
    121e:	4558                	lw	a4,12(a0)
    1220:	4685                	li	a3,1
    1222:	00d504a3          	sb	a3,9(a0)
    1226:	00173713          	seqz	a4,a4
    122a:	00e50423          	sb	a4,8(a0)
    122e:	1207ac23          	sw	zero,312(a5)
    1232:	1207ae23          	sw	zero,316(a5)
    1236:	00052a23          	sw	zero,20(a0)
    123a:	00051c23          	sh	zero,24(a0)
    123e:	1407a023          	sw	zero,320(a5)
    1242:	1407a223          	sw	zero,324(a5)
    1246:	14078623          	sb	zero,332(a5)
    124a:	02052023          	sw	zero,32(a0)
    124e:	14079e23          	sh	zero,348(a5)
    1252:	8082                	ret

00001254 <_ZN5cue_t11CommandExecEv>:
    1254:	1141                	addi	sp,sp,-16
    1256:	c226                	sw	s1,4(sp)
    1258:	6485                	lui	s1,0x1
    125a:	c422                	sw	s0,8(sp)
    125c:	c606                	sw	ra,12(sp)
    125e:	c04a                	sw	s2,0(sp)
    1260:	94aa                	add	s1,s1,a0
    1262:	842a                	mv	s0,a0
    1264:	15e4c783          	lbu	a5,350(s1) # 115e <_ZN5cue_t7LoadCUEEi+0x522>
    1268:	6515                	lui	a0,0x5
    126a:	da850713          	addi	a4,a0,-600 # 4da8 <_ZZN5cue_t11CommandExecEvE3buf>
    126e:	00072023          	sw	zero,0(a4)
    1272:	00072223          	sw	zero,4(a4)
    1276:	00072423          	sw	zero,8(a4)
    127a:	00072623          	sw	zero,12(a4)
    127e:	00072823          	sw	zero,16(a4)
    1282:	00072a23          	sw	zero,20(a4)
    1286:	00072c23          	sw	zero,24(a4)
    128a:	00072e23          	sw	zero,28(a4)
    128e:	0de00693          	li	a3,222
    1292:	10f6ef63          	bltu	a3,a5,13b0 <_ZN5cue_t11CommandExecEv+0x15c>
    1296:	0d700693          	li	a3,215
    129a:	02f6f063          	bgeu	a3,a5,12ba <_ZN5cue_t11CommandExecEv+0x66>
    129e:	02878793          	addi	a5,a5,40
    12a2:	0ff7f793          	zext.b	a5,a5
    12a6:	4699                	li	a3,6
    12a8:	10f6e463          	bltu	a3,a5,13b0 <_ZN5cue_t11CommandExecEv+0x15c>
    12ac:	6691                	lui	a3,0x4
    12ae:	078a                	slli	a5,a5,0x2
    12b0:	3bc68693          	addi	a3,a3,956 # 43bc <stream_vscanf+0x8f4>
    12b4:	97b6                	add	a5,a5,a3
    12b6:	439c                	lw	a5,0(a5)
    12b8:	8782                	jr	a5
    12ba:	46a1                	li	a3,8
    12bc:	38d78463          	beq	a5,a3,1644 <_ZN5cue_t11CommandExecEv+0x3f0>
    12c0:	04f6fb63          	bgeu	a3,a5,1316 <_ZN5cue_t11CommandExecEv+0xc2>
    12c4:	4755                	li	a4,21
    12c6:	0ee79563          	bne	a5,a4,13b0 <_ZN5cue_t11CommandExecEv+0x15c>
    12ca:	1624c783          	lbu	a5,354(s1)
    12ce:	cf89                	beqz	a5,12e8 <_ZN5cue_t11CommandExecEv+0x94>
    12d0:	4785                	li	a5,1
    12d2:	00f40c23          	sb	a5,24(s0)
    12d6:	40b2                	lw	ra,12(sp)
    12d8:	4422                	lw	s0,8(sp)
    12da:	4492                	lw	s1,4(sp)
    12dc:	4902                	lw	s2,0(sp)
    12de:	0141                	addi	sp,sp,16
    12e0:	8082                	ret
    12e2:	4791                	li	a5,4
    12e4:	00f40423          	sb	a5,8(s0)
    12e8:	03500513          	li	a0,53
    12ec:	4f9000ef          	jal	ra,1fe4 <_Z20HPS_spi_uio_cmd_contt>
    12f0:	4501                	li	a0,0
    12f2:	44f000ef          	jal	ra,1f40 <_Z12HPS_fpga_spit>
    12f6:	6785                	lui	a5,0x1
    12f8:	97a2                	add	a5,a5,s0
    12fa:	1517c503          	lbu	a0,337(a5) # 1151 <_ZN5cue_t7LoadCUEEi+0x515>
    12fe:	00a03533          	snez	a0,a0
    1302:	0506                	slli	a0,a0,0x1
    1304:	43d000ef          	jal	ra,1f40 <_Z12HPS_fpga_spit>
    1308:	4422                	lw	s0,8(sp)
    130a:	40b2                	lw	ra,12(sp)
    130c:	4492                	lw	s1,4(sp)
    130e:	4902                	lw	s2,0(sp)
    1310:	0141                	addi	sp,sp,16
    1312:	4110006f          	j	1f22 <_Z13HPS_DisableIOv>
    1316:	3a078d63          	beqz	a5,16d0 <_ZN5cue_t11CommandExecEv+0x47c>
    131a:	468d                	li	a3,3
    131c:	08d79a63          	bne	a5,a3,13b0 <_ZN5cue_t11CommandExecEv+0x15c>
    1320:	1504c783          	lbu	a5,336(s1)
    1324:	14d4c583          	lbu	a1,333(s1)
    1328:	14e4d603          	lhu	a2,334(s1)
    132c:	00f70823          	sb	a5,16(a4)
    1330:	77e1                	lui	a5,0xffff8
    1332:	07c9                	addi	a5,a5,18 # ffff8012 <__ram_end+0xfffe8012>
    1334:	140486a3          	sb	zero,333(s1)
    1338:	14049723          	sh	zero,334(s1)
    133c:	14048823          	sb	zero,336(s1)
    1340:	daf51423          	sh	a5,-600(a0)
    1344:	4814                	lw	a3,16(s0)
    1346:	07000793          	li	a5,112
    134a:	00f70123          	sb	a5,2(a4)
    134e:	47a9                	li	a5,10
    1350:	00b70223          	sb	a1,4(a4)
    1354:	00f704a3          	sb	a5,9(a4)
    1358:	00c71723          	sh	a2,14(a4)
    135c:	d6d1                	beqz	a3,12e8 <_ZN5cue_t11CommandExecEv+0x94>
    135e:	4609                	li	a2,2
    1360:	45d1                	li	a1,20
    1362:	da850513          	addi	a0,a0,-600
    1366:	9682                	jalr	a3
    1368:	b741                	j	12e8 <_ZN5cue_t11CommandExecEv+0x94>
    136a:	6785                	lui	a5,0x1
    136c:	00f40633          	add	a2,s0,a5
    1370:	15f64683          	lbu	a3,351(a2)
    1374:	4585                	li	a1,1
    1376:	3cb68463          	beq	a3,a1,173e <_ZN5cue_t11CommandExecEv+0x4ea>
    137a:	4809                	li	a6,2
    137c:	47068663          	beq	a3,a6,17e8 <_ZN5cue_t11CommandExecEv+0x594>
    1380:	5014                	lw	a3,32(s0)
    1382:	4829                	li	a6,10
    1384:	7661                	lui	a2,0xffff8
    1386:	0306c7b3          	div	a5,a3,a6
    138a:	0611                	addi	a2,a2,4 # ffff8004 <__ram_end+0xfffe8004>
    138c:	dac51423          	sh	a2,-600(a0)
    1390:	00b70123          	sb	a1,2(a4)
    1394:	0306e6b3          	rem	a3,a3,a6
    1398:	0792                	slli	a5,a5,0x4
    139a:	8fd5                	or	a5,a5,a3
    139c:	00f701a3          	sb	a5,3(a4)
    13a0:	481c                	lw	a5,16(s0)
    13a2:	d3b9                	beqz	a5,12e8 <_ZN5cue_t11CommandExecEv+0x94>
    13a4:	4609                	li	a2,2
    13a6:	4599                	li	a1,6
    13a8:	da850513          	addi	a0,a0,-600
    13ac:	9782                	jalr	a5
    13ae:	bf2d                	j	12e8 <_ZN5cue_t11CommandExecEv+0x94>
    13b0:	6485                	lui	s1,0x1
    13b2:	94a2                	add	s1,s1,s0
    13b4:	4795                	li	a5,5
    13b6:	14f486a3          	sb	a5,333(s1) # 114d <_ZN5cue_t7LoadCUEEi+0x511>
    13ba:	02000793          	li	a5,32
    13be:	14f49723          	sh	a5,334(s1)
    13c2:	14048823          	sb	zero,336(s1)
    13c6:	00042a23          	sw	zero,20(s0)
    13ca:	03500513          	li	a0,53
    13ce:	417000ef          	jal	ra,1fe4 <_Z20HPS_spi_uio_cmd_contt>
    13d2:	4505                	li	a0,1
    13d4:	36d000ef          	jal	ra,1f40 <_Z12HPS_fpga_spit>
    13d8:	1514c503          	lbu	a0,337(s1)
    13dc:	b70d                	j	12fe <_ZN5cue_t11CommandExecEv+0xaa>
    13de:	6685                	lui	a3,0x1
    13e0:	00d40733          	add	a4,s0,a3
    13e4:	16774783          	lbu	a5,359(a4)
    13e8:	04000613          	li	a2,64
    13ec:	0c07f793          	andi	a5,a5,192
    13f0:	52c78363          	beq	a5,a2,1916 <_ZN5cue_t11CommandExecEv+0x6c2>
    13f4:	08000693          	li	a3,128
    13f8:	3ad78e63          	beq	a5,a3,17b4 <_ZN5cue_t11CommandExecEv+0x560>
    13fc:	16174483          	lbu	s1,353(a4)
    1400:	16274783          	lbu	a5,354(a4)
    1404:	16374703          	lbu	a4,355(a4)
    1408:	04c2                	slli	s1,s1,0x10
    140a:	07a2                	slli	a5,a5,0x8
    140c:	8cdd                	or	s1,s1,a5
    140e:	8cd9                	or	s1,s1,a4
    1410:	6785                	lui	a5,0x1
    1412:	97a2                	add	a5,a5,s0
    1414:	16b78703          	lb	a4,363(a5) # 116b <_ZN5cue_t7LoadCUEEi+0x52f>
    1418:	2e075a63          	bgez	a4,170c <_ZN5cue_t11CommandExecEv+0x4b8>
    141c:	00042023          	sw	zero,0(s0)
    1420:	00042223          	sw	zero,4(s0)
    1424:	6785                	lui	a5,0x1
    1426:	97a2                	add	a5,a5,s0
    1428:	1297a623          	sw	s1,300(a5) # 112c <_ZN5cue_t7LoadCUEEi+0x4f0>
    142c:	5c5c                	lw	a5,60(s0)
    142e:	56f4c663          	blt	s1,a5,199a <_ZN5cue_t11CommandExecEv+0x746>
    1432:	5010                	lw	a2,32(s0)
    1434:	06840713          	addi	a4,s0,104
    1438:	4781                	li	a5,0
    143a:	00c7d863          	bge	a5,a2,144a <_ZN5cue_t11CommandExecEv+0x1f6>
    143e:	4314                	lw	a3,0(a4)
    1440:	0785                	addi	a5,a5,1
    1442:	02c70713          	addi	a4,a4,44
    1446:	fed4dae3          	bge	s1,a3,143a <_ZN5cue_t11CommandExecEv+0x1e6>
    144a:	6705                	lui	a4,0x1
    144c:	9722                	add	a4,a4,s0
    144e:	15f74603          	lbu	a2,351(a4) # 115f <_ZN5cue_t7LoadCUEEi+0x523>
    1452:	12f72423          	sw	a5,296(a4)
    1456:	14972023          	sw	s1,320(a4)
    145a:	4c4c                	lw	a1,28(s0)
    145c:	4685                	li	a3,1
    145e:	00163793          	seqz	a5,a2
    1462:	14c70623          	sb	a2,332(a4)
    1466:	14b72223          	sw	a1,324(a4)
    146a:	14d72423          	sw	a3,328(a4)
    146e:	078d                	addi	a5,a5,3
    1470:	00f40423          	sb	a5,8(s0)
    1474:	14071e23          	sh	zero,348(a4)
    1478:	40b2                	lw	ra,12(sp)
    147a:	c854                	sw	a3,20(s0)
    147c:	4422                	lw	s0,8(sp)
    147e:	4492                	lw	s1,4(sp)
    1480:	4902                	lw	s2,0(sp)
    1482:	0141                	addi	sp,sp,16
    1484:	8082                	ret
    1486:	6685                	lui	a3,0x1
    1488:	00d40733          	add	a4,s0,a3
    148c:	16774783          	lbu	a5,359(a4)
    1490:	04000613          	li	a2,64
    1494:	0c07f793          	andi	a5,a5,192
    1498:	40c78c63          	beq	a5,a2,18b0 <_ZN5cue_t11CommandExecEv+0x65c>
    149c:	08000693          	li	a3,128
    14a0:	3ed78363          	beq	a5,a3,1886 <_ZN5cue_t11CommandExecEv+0x632>
    14a4:	16174783          	lbu	a5,353(a4)
    14a8:	16274683          	lbu	a3,354(a4)
    14ac:	16374603          	lbu	a2,355(a4)
    14b0:	07c2                	slli	a5,a5,0x10
    14b2:	00869713          	slli	a4,a3,0x8
    14b6:	8fd9                	or	a5,a5,a4
    14b8:	8fd1                	or	a5,a5,a2
    14ba:	6705                	lui	a4,0x1
    14bc:	9722                	add	a4,a4,s0
    14be:	15f74683          	lbu	a3,351(a4) # 115f <_ZN5cue_t7LoadCUEEi+0x523>
    14c2:	14f72223          	sw	a5,324(a4)
    14c6:	14d70623          	sb	a3,332(a4)
    14ca:	22069163          	bnez	a3,16ec <_ZN5cue_t11CommandExecEv+0x498>
    14ce:	00040423          	sb	zero,8(s0)
    14d2:	bd19                	j	12e8 <_ZN5cue_t11CommandExecEv+0x94>
    14d4:	6785                	lui	a5,0x1
    14d6:	97a2                	add	a5,a5,s0
    14d8:	1287a803          	lw	a6,296(a5) # 1128 <_ZN5cue_t7LoadCUEEi+0x4ec>
    14dc:	02c00693          	li	a3,44
    14e0:	75e1                	lui	a1,0xffff8
    14e2:	02d806b3          	mul	a3,a6,a3
    14e6:	05a9                	addi	a1,a1,10 # ffff800a <__ram_end+0xfffe800a>
    14e8:	12c7a603          	lw	a2,300(a5)
    14ec:	dab51423          	sh	a1,-600(a0)
    14f0:	00844783          	lbu	a5,8(s0)
    14f4:	4891                	li	a7,4
    14f6:	4e89                	li	t4,2
    14f8:	96a2                	add	a3,a3,s0
    14fa:	5e8c                	lw	a1,56(a3)
    14fc:	40b605b3          	sub	a1,a2,a1
    1500:	01178963          	beq	a5,a7,1512 <_ZN5cue_t11CommandExecEv+0x2be>
    1504:	17f5                	addi	a5,a5,-3
    1506:	00f037b3          	snez	a5,a5
    150a:	40f007b3          	neg	a5,a5
    150e:	0037fe93          	andi	t4,a5,3
    1512:	04b00e13          	li	t3,75
    1516:	09660613          	addi	a2,a2,150
    151a:	03c64fb3          	div	t6,a2,t3
    151e:	01d70123          	sb	t4,2(a4)
    1522:	6785                	lui	a5,0x1
    1524:	19478793          	addi	a5,a5,404 # 1194 <_ZN5cue_t7LoadCUEEi+0x558>
    1528:	46a9                	li	a3,10
    152a:	03c00893          	li	a7,60
    152e:	00180913          	addi	s2,a6,1
    1532:	ff0102b7          	lui	t0,0xff010
    1536:	12fd                	addi	t0,t0,-1 # ff00ffff <__ram_end+0xfeffffff>
    1538:	01000f37          	lui	t5,0x1000
    153c:	1f7d                	addi	t5,t5,-1 # ffffff <__ram_end+0xfeffff>
    153e:	01042303          	lw	t1,16(s0)
    1542:	03c5ceb3          	div	t4,a1,t3
    1546:	02f640b3          	div	ra,a2,a5
    154a:	03c5e4b3          	rem	s1,a1,t3
    154e:	0ff0f093          	zext.b	ra,ra
    1552:	02f5c5b3          	div	a1,a1,a5
    1556:	0ff4f493          	zext.b	s1,s1
    155a:	031fefb3          	rem	t6,t6,a7
    155e:	0ff5f593          	zext.b	a1,a1
    1562:	031eeeb3          	rem	t4,t4,a7
    1566:	0fffff93          	zext.b	t6,t6
    156a:	02d848b3          	div	a7,a6,a3
    156e:	0ffefe93          	zext.b	t4,t4
    1572:	02d86833          	rem	a6,a6,a3
    1576:	0892                	slli	a7,a7,0x4
    1578:	02d943b3          	div	t2,s2,a3
    157c:	0108e8b3          	or	a7,a7,a6
    1580:	0ff8f893          	zext.b	a7,a7
    1584:	08a2                	slli	a7,a7,0x8
    1586:	03c66633          	rem	a2,a2,t3
    158a:	0392                	slli	t2,t2,0x4
    158c:	02d0de33          	divu	t3,ra,a3
    1590:	0ff67613          	zext.b	a2,a2
    1594:	02d4d7b3          	divu	a5,s1,a3
    1598:	0e12                	slli	t3,t3,0x4
    159a:	02d0f0b3          	remu	ra,ra,a3
    159e:	0792                	slli	a5,a5,0x4
    15a0:	02d96933          	rem	s2,s2,a3
    15a4:	001e6e33          	or	t3,t3,ra
    15a8:	0ffe7e13          	zext.b	t3,t3
    15ac:	0e22                	slli	t3,t3,0x8
    15ae:	02d4f4b3          	remu	s1,s1,a3
    15b2:	0123e3b3          	or	t2,t2,s2
    15b6:	0ff3f393          	zext.b	t2,t2
    15ba:	0113e3b3          	or	t2,t2,a7
    15be:	0053f3b3          	and	t2,t2,t0
    15c2:	02d5d833          	divu	a6,a1,a3
    15c6:	8fc5                	or	a5,a5,s1
    15c8:	0ff7f793          	zext.b	a5,a5
    15cc:	01c7e7b3          	or	a5,a5,t3
    15d0:	0057f7b3          	and	a5,a5,t0
    15d4:	00481893          	slli	a7,a6,0x4
    15d8:	02dfd833          	divu	a6,t6,a3
    15dc:	02d5fe33          	remu	t3,a1,a3
    15e0:	00481593          	slli	a1,a6,0x4
    15e4:	02dfffb3          	remu	t6,t6,a3
    15e8:	01c8e833          	or	a6,a7,t3
    15ec:	0ff87813          	zext.b	a6,a6
    15f0:	0842                	slli	a6,a6,0x10
    15f2:	0103e833          	or	a6,t2,a6
    15f6:	01e87833          	and	a6,a6,t5
    15fa:	02ded8b3          	divu	a7,t4,a3
    15fe:	01f5e5b3          	or	a1,a1,t6
    1602:	0ff5f593          	zext.b	a1,a1
    1606:	05c2                	slli	a1,a1,0x10
    1608:	8fcd                	or	a5,a5,a1
    160a:	01e7f7b3          	and	a5,a5,t5
    160e:	02defeb3          	remu	t4,t4,a3
    1612:	0892                	slli	a7,a7,0x4
    1614:	02d655b3          	divu	a1,a2,a3
    1618:	02d67633          	remu	a2,a2,a3
    161c:	01d8e6b3          	or	a3,a7,t4
    1620:	06e2                	slli	a3,a3,0x18
    1622:	00d866b3          	or	a3,a6,a3
    1626:	0592                	slli	a1,a1,0x4
    1628:	c354                	sw	a3,4(a4)
    162a:	00c5e6b3          	or	a3,a1,a2
    162e:	06e2                	slli	a3,a3,0x18
    1630:	8fd5                	or	a5,a5,a3
    1632:	c71c                	sw	a5,8(a4)
    1634:	ca030ae3          	beqz	t1,12e8 <_ZN5cue_t11CommandExecEv+0x94>
    1638:	4609                	li	a2,2
    163a:	45b1                	li	a1,12
    163c:	da850513          	addi	a0,a0,-600
    1640:	9302                	jalr	t1
    1642:	b15d                	j	12e8 <_ZN5cue_t11CommandExecEv+0x94>
    1644:	15f4c583          	lbu	a1,351(s1)
    1648:	1604c783          	lbu	a5,352(s1)
    164c:	1614c703          	lbu	a4,353(s1)
    1650:	05c2                	slli	a1,a1,0x10
    1652:	07a2                	slli	a5,a5,0x8
    1654:	8ddd                	or	a1,a1,a5
    1656:	1624c783          	lbu	a5,354(s1)
    165a:	00e5e4b3          	or	s1,a1,a4
    165e:	04ae                	slli	s1,s1,0xb
    1660:	80ad                	srli	s1,s1,0xb
    1662:	10000913          	li	s2,256
    1666:	c391                	beqz	a5,166a <_ZN5cue_t11CommandExecEv+0x416>
    1668:	893e                	mv	s2,a5
    166a:	5c5c                	lw	a5,60(s0)
    166c:	32f4c563          	blt	s1,a5,1996 <_ZN5cue_t11CommandExecEv+0x742>
    1670:	5010                	lw	a2,32(s0)
    1672:	06840713          	addi	a4,s0,104
    1676:	4781                	li	a5,0
    1678:	00c7d863          	bge	a5,a2,1688 <_ZN5cue_t11CommandExecEv+0x434>
    167c:	4314                	lw	a3,0(a4)
    167e:	0785                	addi	a5,a5,1
    1680:	02c70713          	addi	a4,a4,44
    1684:	fed4dae3          	bge	s1,a3,1678 <_ZN5cue_t11CommandExecEv+0x424>
    1688:	6705                	lui	a4,0x1
    168a:	9722                	add	a4,a4,s0
    168c:	12c72503          	lw	a0,300(a4) # 112c <_ZN5cue_t7LoadCUEEi+0x4f0>
    1690:	12f72423          	sw	a5,296(a4)
    1694:	08a48a63          	beq	s1,a0,1728 <_ZN5cue_t11CommandExecEv+0x4d4>
    1698:	6785                	lui	a5,0x1
    169a:	97a2                	add	a5,a5,s0
    169c:	16b78783          	lb	a5,363(a5) # 116b <_ZN5cue_t7LoadCUEEi+0x52f>
    16a0:	0407dd63          	bgez	a5,16fa <_ZN5cue_t11CommandExecEv+0x4a6>
    16a4:	00042023          	sw	zero,0(s0)
    16a8:	6785                	lui	a5,0x1
    16aa:	97a2                	add	a5,a5,s0
    16ac:	1297a623          	sw	s1,300(a5) # 112c <_ZN5cue_t7LoadCUEEi+0x4f0>
    16b0:	1327a823          	sw	s2,304(a5)
    16b4:	1207ae23          	sw	zero,316(a5)
    16b8:	4785                	li	a5,1
    16ba:	00f40ca3          	sb	a5,25(s0)
    16be:	4789                	li	a5,2
    16c0:	00f40423          	sb	a5,8(s0)
    16c4:	40b2                	lw	ra,12(sp)
    16c6:	4422                	lw	s0,8(sp)
    16c8:	4492                	lw	s1,4(sp)
    16ca:	4902                	lw	s2,0(sp)
    16cc:	0141                	addi	sp,sp,16
    16ce:	8082                	ret
    16d0:	00844703          	lbu	a4,8(s0)
    16d4:	4785                	li	a5,1
    16d6:	c0f719e3          	bne	a4,a5,12e8 <_ZN5cue_t11CommandExecEv+0x94>
    16da:	4789                	li	a5,2
    16dc:	14f486a3          	sb	a5,333(s1)
    16e0:	47ad                	li	a5,11
    16e2:	14f49723          	sh	a5,334(s1)
    16e6:	14048823          	sb	zero,336(s1)
    16ea:	b1c5                	j	13ca <_ZN5cue_t11CommandExecEv+0x176>
    16ec:	478d                	li	a5,3
    16ee:	00f40423          	sb	a5,8(s0)
    16f2:	4789                	li	a5,2
    16f4:	bef681e3          	beq	a3,a5,12d6 <_ZN5cue_t11CommandExecEv+0x82>
    16f8:	bec5                	j	12e8 <_ZN5cue_t11CommandExecEv+0x94>
    16fa:	85a6                	mv	a1,s1
    16fc:	2dad                	jal	1d76 <_Z14get_cd_seek_msii>
    16fe:	47b5                	li	a5,13
    1700:	02f54533          	div	a0,a0,a5
    1704:	00042223          	sw	zero,4(s0)
    1708:	c008                	sw	a0,0(s0)
    170a:	bf79                	j	16a8 <_ZN5cue_t11CommandExecEv+0x454>
    170c:	12c7a503          	lw	a0,300(a5)
    1710:	85a6                	mv	a1,s1
    1712:	2595                	jal	1d76 <_Z14get_cd_seek_msii>
    1714:	47b5                	li	a5,13
    1716:	02f54533          	div	a0,a0,a5
    171a:	47c1                	li	a5,16
    171c:	c05c                	sw	a5,4(s0)
    171e:	26a7f063          	bgeu	a5,a0,197e <_ZN5cue_t11CommandExecEv+0x72a>
    1722:	1541                	addi	a0,a0,-16
    1724:	c008                	sw	a0,0(s0)
    1726:	b9fd                	j	1424 <_ZN5cue_t11CommandExecEv+0x1d0>
    1728:	07800793          	li	a5,120
    172c:	f6f90ce3          	beq	s2,a5,16a4 <_ZN5cue_t11CommandExecEv+0x450>
    1730:	0fc00793          	li	a5,252
    1734:	f6f912e3          	bne	s2,a5,1698 <_ZN5cue_t11CommandExecEv+0x444>
    1738:	4795                	li	a5,5
    173a:	c01c                	sw	a5,0(s0)
    173c:	b7b5                	j	16a8 <_ZN5cue_t11CommandExecEv+0x454>
    173e:	4c54                	lw	a3,28(s0)
    1740:	04b00593          	li	a1,75
    1744:	7661                	lui	a2,0xffff8
    1746:	09668693          	addi	a3,a3,150 # 1096 <_ZN5cue_t7LoadCUEEi+0x45a>
    174a:	02b6c833          	div	a6,a3,a1
    174e:	0611                	addi	a2,a2,4 # ffff8004 <__ram_end+0xfffe8004>
    1750:	dac51423          	sh	a2,-600(a0)
    1754:	03c00613          	li	a2,60
    1758:	19478793          	addi	a5,a5,404
    175c:	48a9                	li	a7,10
    175e:	02c86833          	rem	a6,a6,a2
    1762:	02f6c7b3          	div	a5,a3,a5
    1766:	0ff87813          	zext.b	a6,a6
    176a:	02b6e6b3          	rem	a3,a3,a1
    176e:	0ff7f793          	zext.b	a5,a5
    1772:	031855b3          	divu	a1,a6,a7
    1776:	0ff6f693          	zext.b	a3,a3
    177a:	03187833          	remu	a6,a6,a7
    177e:	0592                	slli	a1,a1,0x4
    1780:	0317d633          	divu	a2,a5,a7
    1784:	0105e5b3          	or	a1,a1,a6
    1788:	0ff5f593          	zext.b	a1,a1
    178c:	05a2                	slli	a1,a1,0x8
    178e:	0317f7b3          	remu	a5,a5,a7
    1792:	0612                	slli	a2,a2,0x4
    1794:	0316d833          	divu	a6,a3,a7
    1798:	8fd1                	or	a5,a5,a2
    179a:	0ff7f793          	zext.b	a5,a5
    179e:	8fcd                	or	a5,a5,a1
    17a0:	00f71123          	sh	a5,2(a4)
    17a4:	0316f6b3          	remu	a3,a3,a7
    17a8:	00481793          	slli	a5,a6,0x4
    17ac:	8fd5                	or	a5,a5,a3
    17ae:	00f70223          	sb	a5,4(a4)
    17b2:	b6fd                	j	13a0 <_ZN5cue_t11CommandExecEv+0x14c>
    17b4:	16074683          	lbu	a3,352(a4)
    17b8:	4701                	li	a4,0
    17ba:	0046d793          	srli	a5,a3,0x4
    17be:	00279613          	slli	a2,a5,0x2
    17c2:	97b2                	add	a5,a5,a2
    17c4:	0786                	slli	a5,a5,0x1
    17c6:	8abd                	andi	a3,a3,15
    17c8:	97b6                	add	a5,a5,a3
    17ca:	0ff7f793          	zext.b	a5,a5
    17ce:	c791                	beqz	a5,17da <_ZN5cue_t11CommandExecEv+0x586>
    17d0:	5018                	lw	a4,32(s0)
    17d2:	00e7d363          	bge	a5,a4,17d8 <_ZN5cue_t11CommandExecEv+0x584>
    17d6:	873e                	mv	a4,a5
    17d8:	177d                	addi	a4,a4,-1
    17da:	02c00793          	li	a5,44
    17de:	02f70733          	mul	a4,a4,a5
    17e2:	9722                	add	a4,a4,s0
    17e4:	5f04                	lw	s1,56(a4)
    17e6:	b12d                	j	1410 <_ZN5cue_t11CommandExecEv+0x1bc>
    17e8:	16064603          	lbu	a2,352(a2)
    17ec:	04b00893          	li	a7,75
    17f0:	19478793          	addi	a5,a5,404
    17f4:	00465693          	srli	a3,a2,0x4
    17f8:	00269593          	slli	a1,a3,0x2
    17fc:	96ae                	add	a3,a3,a1
    17fe:	8a3d                	andi	a2,a2,15
    1800:	0686                	slli	a3,a3,0x1
    1802:	96b2                	add	a3,a3,a2
    1804:	0ff6f693          	zext.b	a3,a3
    1808:	02c00613          	li	a2,44
    180c:	16fd                	addi	a3,a3,-1
    180e:	02c686b3          	mul	a3,a3,a2
    1812:	7661                	lui	a2,0xffff8
    1814:	0611                	addi	a2,a2,4 # ffff8004 <__ram_end+0xfffe8004>
    1816:	dac51423          	sh	a2,-600(a0)
    181a:	45a9                	li	a1,10
    181c:	96a2                	add	a3,a3,s0
    181e:	5e90                	lw	a2,56(a3)
    1820:	0406a803          	lw	a6,64(a3)
    1824:	09660693          	addi	a3,a2,150
    1828:	0316c633          	div	a2,a3,a7
    182c:	080a                	slli	a6,a6,0x2
    182e:	010702a3          	sb	a6,5(a4)
    1832:	03c00813          	li	a6,60
    1836:	02f6c7b3          	div	a5,a3,a5
    183a:	03066633          	rem	a2,a2,a6
    183e:	0ff7f793          	zext.b	a5,a5
    1842:	0316e6b3          	rem	a3,a3,a7
    1846:	0ff67613          	zext.b	a2,a2
    184a:	02b7d333          	divu	t1,a5,a1
    184e:	0ff6f693          	zext.b	a3,a3
    1852:	02b658b3          	divu	a7,a2,a1
    1856:	0312                	slli	t1,t1,0x4
    1858:	02b7f7b3          	remu	a5,a5,a1
    185c:	0892                	slli	a7,a7,0x4
    185e:	02b6d833          	divu	a6,a3,a1
    1862:	00f367b3          	or	a5,t1,a5
    1866:	00f70123          	sb	a5,2(a4)
    186a:	02b67633          	remu	a2,a2,a1
    186e:	0812                	slli	a6,a6,0x4
    1870:	02b6f6b3          	remu	a3,a3,a1
    1874:	00c8e7b3          	or	a5,a7,a2
    1878:	00f701a3          	sb	a5,3(a4)
    187c:	00d867b3          	or	a5,a6,a3
    1880:	00f70223          	sb	a5,4(a4)
    1884:	be31                	j	13a0 <_ZN5cue_t11CommandExecEv+0x14c>
    1886:	16074703          	lbu	a4,352(a4)
    188a:	00475793          	srli	a5,a4,0x4
    188e:	00279693          	slli	a3,a5,0x2
    1892:	97b6                	add	a5,a5,a3
    1894:	8b3d                	andi	a4,a4,15
    1896:	0786                	slli	a5,a5,0x1
    1898:	97ba                	add	a5,a5,a4
    189a:	0ff7f713          	zext.b	a4,a5
    189e:	e311                	bnez	a4,18a2 <_ZN5cue_t11CommandExecEv+0x64e>
    18a0:	4785                	li	a5,1
    18a2:	5018                	lw	a4,32(s0)
    18a4:	0ff7f793          	zext.b	a5,a5
    18a8:	0cf75f63          	bge	a4,a5,1986 <_ZN5cue_t11CommandExecEv+0x732>
    18ac:	4c5c                	lw	a5,28(s0)
    18ae:	b131                	j	14ba <_ZN5cue_t11CommandExecEv+0x266>
    18b0:	16074583          	lbu	a1,352(a4)
    18b4:	19468613          	addi	a2,a3,404
    18b8:	16174503          	lbu	a0,353(a4)
    18bc:	0045d793          	srli	a5,a1,0x4
    18c0:	00279693          	slli	a3,a5,0x2
    18c4:	97b6                	add	a5,a5,a3
    18c6:	89bd                	andi	a1,a1,15
    18c8:	0786                	slli	a5,a5,0x1
    18ca:	97ae                	add	a5,a5,a1
    18cc:	00455693          	srli	a3,a0,0x4
    18d0:	0ff7f793          	zext.b	a5,a5
    18d4:	16274583          	lbu	a1,354(a4)
    18d8:	02c78733          	mul	a4,a5,a2
    18dc:	00269793          	slli	a5,a3,0x2
    18e0:	97b6                	add	a5,a5,a3
    18e2:	893d                	andi	a0,a0,15
    18e4:	0786                	slli	a5,a5,0x1
    18e6:	0045d693          	srli	a3,a1,0x4
    18ea:	97aa                	add	a5,a5,a0
    18ec:	0ff7f793          	zext.b	a5,a5
    18f0:	00269513          	slli	a0,a3,0x2
    18f4:	00279613          	slli	a2,a5,0x2
    18f8:	96aa                	add	a3,a3,a0
    18fa:	963e                	add	a2,a2,a5
    18fc:	0686                	slli	a3,a3,0x1
    18fe:	89bd                	andi	a1,a1,15
    1900:	00461793          	slli	a5,a2,0x4
    1904:	96ae                	add	a3,a3,a1
    1906:	8f91                	sub	a5,a5,a2
    1908:	0ff6f693          	zext.b	a3,a3
    190c:	97b6                	add	a5,a5,a3
    190e:	97ba                	add	a5,a5,a4
    1910:	f6a78793          	addi	a5,a5,-150
    1914:	b65d                	j	14ba <_ZN5cue_t11CommandExecEv+0x266>
    1916:	16074583          	lbu	a1,352(a4)
    191a:	19468613          	addi	a2,a3,404
    191e:	16174503          	lbu	a0,353(a4)
    1922:	0045d793          	srli	a5,a1,0x4
    1926:	00279693          	slli	a3,a5,0x2
    192a:	97b6                	add	a5,a5,a3
    192c:	89bd                	andi	a1,a1,15
    192e:	0786                	slli	a5,a5,0x1
    1930:	97ae                	add	a5,a5,a1
    1932:	00455693          	srli	a3,a0,0x4
    1936:	0ff7f793          	zext.b	a5,a5
    193a:	16274583          	lbu	a1,354(a4)
    193e:	02c787b3          	mul	a5,a5,a2
    1942:	00269713          	slli	a4,a3,0x2
    1946:	9736                	add	a4,a4,a3
    1948:	893d                	andi	a0,a0,15
    194a:	0706                	slli	a4,a4,0x1
    194c:	0045d693          	srli	a3,a1,0x4
    1950:	972a                	add	a4,a4,a0
    1952:	0ff77713          	zext.b	a4,a4
    1956:	00269513          	slli	a0,a3,0x2
    195a:	00271613          	slli	a2,a4,0x2
    195e:	96aa                	add	a3,a3,a0
    1960:	963a                	add	a2,a2,a4
    1962:	89bd                	andi	a1,a1,15
    1964:	00169713          	slli	a4,a3,0x1
    1968:	00461493          	slli	s1,a2,0x4
    196c:	972e                	add	a4,a4,a1
    196e:	8c91                	sub	s1,s1,a2
    1970:	0ff77713          	zext.b	a4,a4
    1974:	94ba                	add	s1,s1,a4
    1976:	94be                	add	s1,s1,a5
    1978:	f6a48493          	addi	s1,s1,-150
    197c:	bc51                	j	1410 <_ZN5cue_t11CommandExecEv+0x1bc>
    197e:	c008                	sw	a0,0(s0)
    1980:	00042223          	sw	zero,4(s0)
    1984:	b445                	j	1424 <_ZN5cue_t11CommandExecEv+0x1d0>
    1986:	17fd                	addi	a5,a5,-1
    1988:	02c00713          	li	a4,44
    198c:	02e787b3          	mul	a5,a5,a4
    1990:	97a2                	add	a5,a5,s0
    1992:	5f9c                	lw	a5,56(a5)
    1994:	b61d                	j	14ba <_ZN5cue_t11CommandExecEv+0x266>
    1996:	4781                	li	a5,0
    1998:	b9c5                	j	1688 <_ZN5cue_t11CommandExecEv+0x434>
    199a:	4781                	li	a5,0
    199c:	b47d                	j	144a <_ZN5cue_t11CommandExecEv+0x1f6>

0000199e <_ZN5cue_t9GetStatusEv>:
    199e:	6785                	lui	a5,0x1
    19a0:	953e                	add	a0,a0,a5
    19a2:	15c55503          	lhu	a0,348(a0)
    19a6:	8082                	ret

000019a8 <_ZN5cue_t10SetCommandEPh>:
    19a8:	6785                	lui	a5,0x1
    19aa:	15e78793          	addi	a5,a5,350 # 115e <_ZN5cue_t7LoadCUEEi+0x522>
    19ae:	1141                	addi	sp,sp,-16
    19b0:	4639                	li	a2,14
    19b2:	953e                	add	a0,a0,a5
    19b4:	c606                	sw	ra,12(sp)
    19b6:	1ff010ef          	jal	ra,33b4 <memcpy>
    19ba:	40b2                	lw	ra,12(sp)
    19bc:	4501                	li	a0,0
    19be:	0141                	addi	sp,sp,16
    19c0:	8082                	ret

000019c2 <_ZN5cue_t10SendStatusEt>:
    19c2:	1141                	addi	sp,sp,-16
    19c4:	c422                	sw	s0,8(sp)
    19c6:	842a                	mv	s0,a0
    19c8:	03500513          	li	a0,53
    19cc:	c606                	sw	ra,12(sp)
    19ce:	c226                	sw	s1,4(sp)
    19d0:	84ae                	mv	s1,a1
    19d2:	2d09                	jal	1fe4 <_Z20HPS_spi_uio_cmd_contt>
    19d4:	8526                	mv	a0,s1
    19d6:	23ad                	jal	1f40 <_Z12HPS_fpga_spit>
    19d8:	6785                	lui	a5,0x1
    19da:	943e                	add	s0,s0,a5
    19dc:	15144503          	lbu	a0,337(s0)
    19e0:	00a03533          	snez	a0,a0
    19e4:	0506                	slli	a0,a0,0x1
    19e6:	2ba9                	jal	1f40 <_Z12HPS_fpga_spit>
    19e8:	4422                	lw	s0,8(sp)
    19ea:	40b2                	lw	ra,12(sp)
    19ec:	4492                	lw	s1,4(sp)
    19ee:	0141                	addi	sp,sp,16
    19f0:	ab0d                	j	1f22 <_Z13HPS_DisableIOv>

000019f2 <_ZN5cue_t15SendDataRequestEv>:
    19f2:	1141                	addi	sp,sp,-16
    19f4:	c422                	sw	s0,8(sp)
    19f6:	842a                	mv	s0,a0
    19f8:	03500513          	li	a0,53
    19fc:	c606                	sw	ra,12(sp)
    19fe:	23dd                	jal	1fe4 <_Z20HPS_spi_uio_cmd_contt>
    1a00:	4501                	li	a0,0
    1a02:	2b3d                	jal	1f40 <_Z12HPS_fpga_spit>
    1a04:	6785                	lui	a5,0x1
    1a06:	943e                	add	s0,s0,a5
    1a08:	15144503          	lbu	a0,337(s0)
    1a0c:	00153513          	seqz	a0,a0
    1a10:	40a00533          	neg	a0,a0
    1a14:	9979                	andi	a0,a0,-2
    1a16:	050d                	addi	a0,a0,3
    1a18:	2325                	jal	1f40 <_Z12HPS_fpga_spit>
    1a1a:	4422                	lw	s0,8(sp)
    1a1c:	40b2                	lw	ra,12(sp)
    1a1e:	0141                	addi	sp,sp,16
    1a20:	a309                	j	1f22 <_Z13HPS_DisableIOv>

00001a22 <_ZN5cue_t9SetRegionEh>:
    1a22:	6785                	lui	a5,0x1
    1a24:	953e                	add	a0,a0,a5
    1a26:	14b508a3          	sb	a1,337(a0)
    1a2a:	8082                	ret

00001a2c <_ZN5cue_t8ReadDataEv>:
    1a2c:	1101                	addi	sp,sp,-32
    1a2e:	ca26                	sw	s1,20(sp)
    1a30:	6485                	lui	s1,0x1
    1a32:	c84a                	sw	s2,16(sp)
    1a34:	00950933          	add	s2,a0,s1
    1a38:	12892783          	lw	a5,296(s2)
    1a3c:	c64e                	sw	s3,12(sp)
    1a3e:	02c00993          	li	s3,44
    1a42:	033787b3          	mul	a5,a5,s3
    1a46:	ce06                	sw	ra,28(sp)
    1a48:	cc22                	sw	s0,24(sp)
    1a4a:	97aa                	add	a5,a5,a0
    1a4c:	43b8                	lw	a4,64(a5)
    1a4e:	cb31                	beqz	a4,1aa2 <_ZN5cue_t8ReadDataEv+0x76>
    1a50:	12c92703          	lw	a4,300(s2)
    1a54:	04074763          	bltz	a4,1aa2 <_ZN5cue_t8ReadDataEv+0x76>
    1a58:	43f4                	lw	a3,68(a5)
    1a5a:	5b8c                	lw	a1,48(a5)
    1a5c:	842a                	mv	s0,a0
    1a5e:	53c8                	lw	a0,36(a5)
    1a60:	80068793          	addi	a5,a3,-2048
    1a64:	c7b1                	beqz	a5,1ab0 <_ZN5cue_t8ReadDataEv+0x84>
    1a66:	93048493          	addi	s1,s1,-1744 # 930 <_Z12RISCFileSeekimm+0x94>
    1a6a:	02970733          	mul	a4,a4,s1
    1a6e:	8626                	mv	a2,s1
    1a70:	0741                	addi	a4,a4,16
    1a72:	40b705b3          	sub	a1,a4,a1
    1a76:	e27fe0ef          	jal	ra,89c <_Z12RISCFileSeekimm>
    1a7a:	12892783          	lw	a5,296(s2)
    1a7e:	8726                	mv	a4,s1
    1a80:	033787b3          	mul	a5,a5,s3
    1a84:	40f2                	lw	ra,28(sp)
    1a86:	44d2                	lw	s1,20(sp)
    1a88:	4942                	lw	s2,16(sp)
    1a8a:	49b2                	lw	s3,12(sp)
    1a8c:	03600693          	li	a3,54
    1a90:	08800613          	li	a2,136
    1a94:	4581                	li	a1,0
    1a96:	943e                	add	s0,s0,a5
    1a98:	5048                	lw	a0,36(s0)
    1a9a:	4462                	lw	s0,24(sp)
    1a9c:	6105                	addi	sp,sp,32
    1a9e:	8baff06f          	j	b58 <_Z15RISCFileReadAdvihhhm>
    1aa2:	40f2                	lw	ra,28(sp)
    1aa4:	4462                	lw	s0,24(sp)
    1aa6:	44d2                	lw	s1,20(sp)
    1aa8:	4942                	lw	s2,16(sp)
    1aaa:	49b2                	lw	s3,12(sp)
    1aac:	6105                	addi	sp,sp,32
    1aae:	8082                	ret
    1ab0:	072e                	slli	a4,a4,0xb
    1ab2:	40b705b3          	sub	a1,a4,a1
    1ab6:	80048613          	addi	a2,s1,-2048
    1aba:	de3fe0ef          	jal	ra,89c <_Z12RISCFileSeekimm>
    1abe:	12892783          	lw	a5,296(s2)
    1ac2:	80048713          	addi	a4,s1,-2048
    1ac6:	bf6d                	j	1a80 <_ZN5cue_t8ReadDataEv+0x54>

00001ac8 <_ZN5cue_t6UpdateEv>:
    1ac8:	1101                	addi	sp,sp,-32
    1aca:	c84a                	sw	s2,16(sp)
    1acc:	ce06                	sw	ra,28(sp)
    1ace:	cc22                	sw	s0,24(sp)
    1ad0:	ca26                	sw	s1,20(sp)
    1ad2:	c64e                	sw	s3,12(sp)
    1ad4:	c452                	sw	s4,8(sp)
    1ad6:	00854783          	lbu	a5,8(a0)
    1ada:	4709                	li	a4,2
    1adc:	892a                	mv	s2,a0
    1ade:	14e78b63          	beq	a5,a4,1c34 <_ZN5cue_t6UpdateEv+0x16c>
    1ae2:	470d                	li	a4,3
    1ae4:	06e78a63          	beq	a5,a4,1b58 <_ZN5cue_t6UpdateEv+0x90>
    1ae8:	4711                	li	a4,4
    1aea:	12e78763          	beq	a5,a4,1c18 <_ZN5cue_t6UpdateEv+0x150>
    1aee:	6505                	lui	a0,0x1
    1af0:	954a                	add	a0,a0,s2
    1af2:	12c52783          	lw	a5,300(a0) # 112c <_ZN5cue_t7LoadCUEEi+0x4f0>
    1af6:	12852683          	lw	a3,296(a0)
    1afa:	04b00713          	li	a4,75
    1afe:	02e7c733          	div	a4,a5,a4
    1b02:	00168513          	addi	a0,a3,1
    1b06:	6685                	lui	a3,0x1
    1b08:	19468693          	addi	a3,a3,404 # 1194 <_ZN5cue_t7LoadCUEEi+0x558>
    1b0c:	4829                	li	a6,10
    1b0e:	4462                	lw	s0,24(sp)
    1b10:	40f2                	lw	ra,28(sp)
    1b12:	44d2                	lw	s1,20(sp)
    1b14:	4942                	lw	s2,16(sp)
    1b16:	49b2                	lw	s3,12(sp)
    1b18:	4a22                	lw	s4,8(sp)
    1b1a:	0ff57513          	zext.b	a0,a0
    1b1e:	6105                	addi	sp,sp,32
    1b20:	02d7c7b3          	div	a5,a5,a3
    1b24:	03c00693          	li	a3,60
    1b28:	02d76733          	rem	a4,a4,a3
    1b2c:	0ff7f793          	zext.b	a5,a5
    1b30:	0ff77713          	zext.b	a4,a4
    1b34:	03075633          	divu	a2,a4,a6
    1b38:	0307d5b3          	divu	a1,a5,a6
    1b3c:	0612                	slli	a2,a2,0x4
    1b3e:	03077733          	remu	a4,a4,a6
    1b42:	0592                	slli	a1,a1,0x4
    1b44:	0307f7b3          	remu	a5,a5,a6
    1b48:	8e59                	or	a2,a2,a4
    1b4a:	0ff67613          	zext.b	a2,a2
    1b4e:	8ddd                	or	a1,a1,a5
    1b50:	0ff5f593          	zext.b	a1,a1
    1b54:	3e70006f          	j	273a <_Z18osd_display_timinghhh>
    1b58:	411c                	lw	a5,0(a0)
    1b5a:	e3f1                	bnez	a5,1c1e <_ZN5cue_t6UpdateEv+0x156>
    1b5c:	415c                	lw	a5,4(a0)
    1b5e:	1a079b63          	bnez	a5,1d14 <_ZN5cue_t6UpdateEv+0x24c>
    1b62:	6785                	lui	a5,0x1
    1b64:	97aa                	add	a5,a5,a0
    1b66:	12c7a783          	lw	a5,300(a5) # 112c <_ZN5cue_t7LoadCUEEi+0x4f0>
    1b6a:	5d58                	lw	a4,60(a0)
    1b6c:	20e7c363          	blt	a5,a4,1d72 <_ZN5cue_t6UpdateEv+0x2aa>
    1b70:	510c                	lw	a1,32(a0)
    1b72:	06850693          	addi	a3,a0,104
    1b76:	4701                	li	a4,0
    1b78:	a031                	j	1b84 <_ZN5cue_t6UpdateEv+0xbc>
    1b7a:	fd46a603          	lw	a2,-44(a3)
    1b7e:	0705                	addi	a4,a4,1
    1b80:	00c7c663          	blt	a5,a2,1b8c <_ZN5cue_t6UpdateEv+0xc4>
    1b84:	02c68693          	addi	a3,a3,44
    1b88:	feb749e3          	blt	a4,a1,1b7a <_ZN5cue_t6UpdateEv+0xb2>
    1b8c:	6985                	lui	s3,0x1
    1b8e:	01390433          	add	s0,s2,s3
    1b92:	14842683          	lw	a3,328(s0)
    1b96:	12e42423          	sw	a4,296(s0)
    1b9a:	1406c663          	bltz	a3,1ce6 <_ZN5cue_t6UpdateEv+0x21e>
    1b9e:	4481                	li	s1,0
    1ba0:	02c00a13          	li	s4,44
    1ba4:	93098993          	addi	s3,s3,-1744 # 930 <_Z12RISCFileSeekimm+0x94>
    1ba8:	a00d                	j	1bca <_ZN5cue_t6UpdateEv+0x102>
    1baa:	13342c23          	sw	s3,312(s0)
    1bae:	12042e23          	sw	zero,316(s0)
    1bb2:	12c42783          	lw	a5,300(s0)
    1bb6:	14842703          	lw	a4,328(s0)
    1bba:	0485                	addi	s1,s1,1
    1bbc:	0785                	addi	a5,a5,1
    1bbe:	12f42623          	sw	a5,300(s0)
    1bc2:	12974263          	blt	a4,s1,1ce6 <_ZN5cue_t6UpdateEv+0x21e>
    1bc6:	12842703          	lw	a4,296(s0)
    1bca:	03470733          	mul	a4,a4,s4
    1bce:	974a                	add	a4,a4,s2
    1bd0:	433c                	lw	a5,64(a4)
    1bd2:	f3e5                	bnez	a5,1bb2 <_ZN5cue_t6UpdateEv+0xea>
    1bd4:	571c                	lw	a5,40(a4)
    1bd6:	dbf1                	beqz	a5,1baa <_ZN5cue_t6UpdateEv+0xe2>
    1bd8:	12c42783          	lw	a5,300(s0)
    1bdc:	5b0c                	lw	a1,48(a4)
    1bde:	5348                	lw	a0,36(a4)
    1be0:	033787b3          	mul	a5,a5,s3
    1be4:	864e                	mv	a2,s3
    1be6:	40b785b3          	sub	a1,a5,a1
    1bea:	cb3fe0ef          	jal	ra,89c <_Z12RISCFileSeekimm>
    1bee:	12842783          	lw	a5,296(s0)
    1bf2:	874e                	mv	a4,s3
    1bf4:	03600693          	li	a3,54
    1bf8:	034787b3          	mul	a5,a5,s4
    1bfc:	4625                	li	a2,9
    1bfe:	03000593          	li	a1,48
    1c02:	97ca                	add	a5,a5,s2
    1c04:	5788                	lw	a0,40(a5)
    1c06:	13342c23          	sw	s3,312(s0)
    1c0a:	12042e23          	sw	zero,316(s0)
    1c0e:	d155                	beqz	a0,1bb2 <_ZN5cue_t6UpdateEv+0xea>
    1c10:	53c8                	lw	a0,36(a5)
    1c12:	f47fe0ef          	jal	ra,b58 <_Z15RISCFileReadAdvihhhm>
    1c16:	bf71                	j	1bb2 <_ZN5cue_t6UpdateEv+0xea>
    1c18:	411c                	lw	a5,0(a0)
    1c1a:	ec078ae3          	beqz	a5,1aee <_ZN5cue_t6UpdateEv+0x26>
    1c1e:	17fd                	addi	a5,a5,-1
    1c20:	00f92023          	sw	a5,0(s2)
    1c24:	40f2                	lw	ra,28(sp)
    1c26:	4462                	lw	s0,24(sp)
    1c28:	44d2                	lw	s1,20(sp)
    1c2a:	4942                	lw	s2,16(sp)
    1c2c:	49b2                	lw	s3,12(sp)
    1c2e:	4a22                	lw	s4,8(sp)
    1c30:	6105                	addi	sp,sp,32
    1c32:	8082                	ret
    1c34:	411c                	lw	a5,0(a0)
    1c36:	f7e5                	bnez	a5,1c1e <_ZN5cue_t6UpdateEv+0x156>
    1c38:	6405                	lui	s0,0x1
    1c3a:	942a                	add	s0,s0,a0
    1c3c:	12842683          	lw	a3,296(s0) # 1128 <_ZN5cue_t7LoadCUEEi+0x4ec>
    1c40:	511c                	lw	a5,32(a0)
    1c42:	08f6df63          	bge	a3,a5,1ce0 <_ZN5cue_t6UpdateEv+0x218>
    1c46:	01954783          	lbu	a5,25(a0)
    1c4a:	dfe9                	beqz	a5,1c24 <_ZN5cue_t6UpdateEv+0x15c>
    1c4c:	02c00713          	li	a4,44
    1c50:	02e68733          	mul	a4,a3,a4
    1c54:	00050ca3          	sb	zero,25(a0)
    1c58:	972a                	add	a4,a4,a0
    1c5a:	433c                	lw	a5,64(a4)
    1c5c:	0e079e63          	bnez	a5,1d58 <_ZN5cue_t6UpdateEv+0x290>
    1c60:	12c42783          	lw	a5,300(s0)
    1c64:	5f18                	lw	a4,56(a4)
    1c66:	00e7c463          	blt	a5,a4,1c6e <_ZN5cue_t6UpdateEv+0x1a6>
    1c6a:	000504a3          	sb	zero,9(a0)
    1c6e:	6705                	lui	a4,0x1
    1c70:	974a                	add	a4,a4,s2
    1c72:	13072603          	lw	a2,304(a4) # 1130 <_ZN5cue_t7LoadCUEEi+0x4f4>
    1c76:	167d                	addi	a2,a2,-1
    1c78:	12c72823          	sw	a2,304(a4)
    1c7c:	ea01                	bnez	a2,1c8c <_ZN5cue_t6UpdateEv+0x1c4>
    1c7e:	14071e23          	sh	zero,348(a4)
    1c82:	4705                	li	a4,1
    1c84:	00e92a23          	sw	a4,20(s2)
    1c88:	00090423          	sb	zero,8(s2)
    1c8c:	02c00713          	li	a4,44
    1c90:	02e685b3          	mul	a1,a3,a4
    1c94:	6605                	lui	a2,0x1
    1c96:	0785                	addi	a5,a5,1
    1c98:	00c90433          	add	s0,s2,a2
    1c9c:	12f42623          	sw	a5,300(s0)
    1ca0:	95ca                	add	a1,a1,s2
    1ca2:	5dcc                	lw	a1,60(a1)
    1ca4:	e4b7cbe3          	blt	a5,a1,1afa <_ZN5cue_t6UpdateEv+0x32>
    1ca8:	0685                	addi	a3,a3,1
    1caa:	02e68733          	mul	a4,a3,a4
    1cae:	12d42423          	sw	a3,296(s0)
    1cb2:	4585                	li	a1,1
    1cb4:	00b904a3          	sb	a1,9(s2)
    1cb8:	974a                	add	a4,a4,s2
    1cba:	570c                	lw	a1,40(a4)
    1cbc:	e2058fe3          	beqz	a1,1afa <_ZN5cue_t6UpdateEv+0x32>
    1cc0:	5f1c                	lw	a5,56(a4)
    1cc2:	93060613          	addi	a2,a2,-1744 # 930 <_Z12RISCFileSeekimm+0x94>
    1cc6:	5b0c                	lw	a1,48(a4)
    1cc8:	02c787b3          	mul	a5,a5,a2
    1ccc:	5348                	lw	a0,36(a4)
    1cce:	40b785b3          	sub	a1,a5,a1
    1cd2:	bcbfe0ef          	jal	ra,89c <_Z12RISCFileSeekimm>
    1cd6:	12c42783          	lw	a5,300(s0)
    1cda:	12842683          	lw	a3,296(s0)
    1cde:	bd31                	j	1afa <_ZN5cue_t6UpdateEv+0x32>
    1ce0:	00050423          	sb	zero,8(a0)
    1ce4:	b781                	j	1c24 <_ZN5cue_t6UpdateEv+0x15c>
    1ce6:	6705                	lui	a4,0x1
    1ce8:	974a                	add	a4,a4,s2
    1cea:	14472683          	lw	a3,324(a4) # 1144 <_ZN5cue_t7LoadCUEEi+0x508>
    1cee:	14072423          	sw	zero,328(a4)
    1cf2:	02f6d463          	bge	a3,a5,1d1a <_ZN5cue_t6UpdateEv+0x252>
    1cf6:	6405                	lui	s0,0x1
    1cf8:	944a                	add	s0,s0,s2
    1cfa:	14c44703          	lbu	a4,332(s0) # 114c <_ZN5cue_t7LoadCUEEi+0x510>
    1cfe:	4685                	li	a3,1
    1d00:	06d70263          	beq	a4,a3,1d64 <_ZN5cue_t6UpdateEv+0x29c>
    1d04:	00090423          	sb	zero,8(s2)
    1d08:	4689                	li	a3,2
    1d0a:	02d70663          	beq	a4,a3,1d36 <_ZN5cue_t6UpdateEv+0x26e>
    1d0e:	12842683          	lw	a3,296(s0)
    1d12:	b3e5                	j	1afa <_ZN5cue_t6UpdateEv+0x32>
    1d14:	17fd                	addi	a5,a5,-1
    1d16:	c15c                	sw	a5,4(a0)
    1d18:	b731                	j	1c24 <_ZN5cue_t6UpdateEv+0x15c>
    1d1a:	12872683          	lw	a3,296(a4)
    1d1e:	02c00713          	li	a4,44
    1d22:	02e68733          	mul	a4,a3,a4
    1d26:	974a                	add	a4,a4,s2
    1d28:	4338                	lw	a4,64(a4)
    1d2a:	f771                	bnez	a4,1cf6 <_ZN5cue_t6UpdateEv+0x22e>
    1d2c:	02092703          	lw	a4,32(s2)
    1d30:	dcd755e3          	bge	a4,a3,1afa <_ZN5cue_t6UpdateEv+0x32>
    1d34:	b7c9                	j	1cf6 <_ZN5cue_t6UpdateEv+0x22e>
    1d36:	03500513          	li	a0,53
    1d3a:	246d                	jal	1fe4 <_Z20HPS_spi_uio_cmd_contt>
    1d3c:	4501                	li	a0,0
    1d3e:	2409                	jal	1f40 <_Z12HPS_fpga_spit>
    1d40:	15144503          	lbu	a0,337(s0)
    1d44:	00a03533          	snez	a0,a0
    1d48:	0506                	slli	a0,a0,0x1
    1d4a:	2add                	jal	1f40 <_Z12HPS_fpga_spit>
    1d4c:	2ad9                	jal	1f22 <_Z13HPS_DisableIOv>
    1d4e:	12c42783          	lw	a5,300(s0)
    1d52:	12842683          	lw	a3,296(s0)
    1d56:	b355                	j	1afa <_ZN5cue_t6UpdateEv+0x32>
    1d58:	39d1                	jal	1a2c <_ZN5cue_t8ReadDataEv>
    1d5a:	12c42783          	lw	a5,300(s0)
    1d5e:	12842683          	lw	a3,296(s0)
    1d62:	b731                	j	1c6e <_ZN5cue_t6UpdateEv+0x1a6>
    1d64:	14042783          	lw	a5,320(s0)
    1d68:	12842683          	lw	a3,296(s0)
    1d6c:	12f42623          	sw	a5,300(s0)
    1d70:	b369                	j	1afa <_ZN5cue_t6UpdateEv+0x32>
    1d72:	4701                	li	a4,0
    1d74:	bd21                	j	1b8c <_ZN5cue_t6UpdateEv+0xc4>

00001d76 <_Z14get_cd_seek_msii>:
    1d76:	1141                	addi	sp,sp,-16
    1d78:	6795                	lui	a5,0x5
    1d7a:	86c78693          	addi	a3,a5,-1940 # 486c <sector_list+0x4>
    1d7e:	c606                	sw	ra,12(sp)
    1d80:	c422                	sw	s0,8(sp)
    1d82:	862e                	mv	a2,a1
    1d84:	86c78793          	addi	a5,a5,-1940
    1d88:	4701                	li	a4,0
    1d8a:	4839                	li	a6,14
    1d8c:	438c                	lw	a1,0(a5)
    1d8e:	00b54563          	blt	a0,a1,1d98 <_Z14get_cd_seek_msii+0x22>
    1d92:	43cc                	lw	a1,4(a5)
    1d94:	00a5d763          	bge	a1,a0,1da2 <_Z14get_cd_seek_msii+0x2c>
    1d98:	0705                	addi	a4,a4,1
    1d9a:	07d1                	addi	a5,a5,20
    1d9c:	ff0718e3          	bne	a4,a6,1d8c <_Z14get_cd_seek_msii+0x16>
    1da0:	4701                	li	a4,0
    1da2:	4781                	li	a5,0
    1da4:	4839                	li	a6,14
    1da6:	428c                	lw	a1,0(a3)
    1da8:	00b64563          	blt	a2,a1,1db2 <_Z14get_cd_seek_msii+0x3c>
    1dac:	42cc                	lw	a1,4(a3)
    1dae:	0cc5d163          	bge	a1,a2,1e70 <_Z14get_cd_seek_msii+0xfa>
    1db2:	0785                	addi	a5,a5,1
    1db4:	06d1                	addi	a3,a3,20
    1db6:	ff0798e3          	bne	a5,a6,1da6 <_Z14get_cd_seek_msii+0x30>
    1dba:	6595                	lui	a1,0x5
    1dbc:	86858593          	addi	a1,a1,-1944 # 4868 <sector_list>
    1dc0:	0005ae83          	lw	t4,0(a1)
    1dc4:	40a60833          	sub	a6,a2,a0
    1dc8:	cf41                	beqz	a4,1e60 <_Z14get_cd_seek_msii+0xea>
    1dca:	00271693          	slli	a3,a4,0x2
    1dce:	00e687b3          	add	a5,a3,a4
    1dd2:	078a                	slli	a5,a5,0x2
    1dd4:	97ae                	add	a5,a5,a1
    1dd6:	0007af03          	lw	t5,0(a5)
    1dda:	4881                	li	a7,0
    1ddc:	4781                	li	a5,0
    1dde:	96ba                	add	a3,a3,a4
    1de0:	98be                	add	a7,a7,a5
    1de2:	068a                	slli	a3,a3,0x2
    1de4:	088a                	slli	a7,a7,0x2
    1de6:	96ae                	add	a3,a3,a1
    1de8:	98ae                	add	a7,a7,a1
    1dea:	0046a303          	lw	t1,4(a3)
    1dee:	0088a883          	lw	a7,8(a7)
    1df2:	40f706b3          	sub	a3,a4,a5
    1df6:	40650333          	sub	t1,a0,t1
    1dfa:	40c888b3          	sub	a7,a7,a2
    1dfe:	03e34333          	div	t1,t1,t5
    1e02:	16fd                	addi	a3,a3,-1
    1e04:	873e                	mv	a4,a5
    1e06:	64700793          	li	a5,1607
    1e0a:	03d8c8b3          	div	a7,a7,t4
    1e0e:	02f687b3          	mul	a5,a3,a5
    1e12:	006886b3          	add	a3,a7,t1
    1e16:	97b6                	add	a5,a5,a3
    1e18:	00380693          	addi	a3,a6,3
    1e1c:	4899                	li	a7,6
    1e1e:	02100413          	li	s0,33
    1e22:	00d8fe63          	bgeu	a7,a3,1e3e <_Z14get_cd_seek_msii+0xc8>
    1e26:	00271693          	slli	a3,a4,0x2
    1e2a:	9736                	add	a4,a4,a3
    1e2c:	070a                	slli	a4,a4,0x2
    1e2e:	972e                	add	a4,a4,a1
    1e30:	0819                	addi	a6,a6,6
    1e32:	46b1                	li	a3,12
    1e34:	4740                	lw	s0,12(a4)
    1e36:	0906e163          	bltu	a3,a6,1eb8 <_Z14get_cd_seek_msii+0x142>
    1e3a:	09640413          	addi	s0,s0,150
    1e3e:	85aa                	mv	a1,a0
    1e40:	6511                	lui	a0,0x4
    1e42:	3d850513          	addi	a0,a0,984 # 43d8 <stream_vscanf+0x910>
    1e46:	4a6010ef          	jal	ra,32ec <riscprintff_>
    1e4a:	6511                	lui	a0,0x4
    1e4c:	85a2                	mv	a1,s0
    1e4e:	3f850513          	addi	a0,a0,1016 # 43f8 <stream_vscanf+0x930>
    1e52:	49a010ef          	jal	ra,32ec <riscprintff_>
    1e56:	40b2                	lw	ra,12(sp)
    1e58:	8522                	mv	a0,s0
    1e5a:	4422                	lw	s0,8(sp)
    1e5c:	0141                	addi	sp,sp,16
    1e5e:	8082                	ret
    1e60:	41f85693          	srai	a3,a6,0x1f
    1e64:	0106c7b3          	xor	a5,a3,a6
    1e68:	8f95                	sub	a5,a5,a3
    1e6a:	03d7c7b3          	div	a5,a5,t4
    1e6e:	b76d                	j	1e18 <_Z14get_cd_seek_msii+0xa2>
    1e70:	00279893          	slli	a7,a5,0x2
    1e74:	6595                	lui	a1,0x5
    1e76:	00f88333          	add	t1,a7,a5
    1e7a:	86858593          	addi	a1,a1,-1944 # 4868 <sector_list>
    1e7e:	030a                	slli	t1,t1,0x2
    1e80:	932e                	add	t1,t1,a1
    1e82:	00032e83          	lw	t4,0(t1)
    1e86:	40a60833          	sub	a6,a2,a0
    1e8a:	fcf70be3          	beq	a4,a5,1e60 <_Z14get_cd_seek_msii+0xea>
    1e8e:	00271693          	slli	a3,a4,0x2
    1e92:	00e68e33          	add	t3,a3,a4
    1e96:	0e0a                	slli	t3,t3,0x2
    1e98:	9e2e                	add	t3,t3,a1
    1e9a:	000e2f03          	lw	t5,0(t3)
    1e9e:	f4f750e3          	bge	a4,a5,1dde <_Z14get_cd_seek_msii+0x68>
    1ea2:	00432883          	lw	a7,4(t1)
    1ea6:	008e2e03          	lw	t3,8(t3)
    1eaa:	40e786b3          	sub	a3,a5,a4
    1eae:	411608b3          	sub	a7,a2,a7
    1eb2:	40ae0333          	sub	t1,t3,a0
    1eb6:	b7a1                	j	1dfe <_Z14get_cd_seek_msii+0x88>
    1eb8:	05000713          	li	a4,80
    1ebc:	00f75963          	bge	a4,a5,1ece <_Z14get_cd_seek_msii+0x158>
    1ec0:	0a000693          	li	a3,160
    1ec4:	00f6c863          	blt	a3,a5,1ed4 <_Z14get_cd_seek_msii+0x15e>
    1ec8:	16e40413          	addi	s0,s0,366
    1ecc:	bf8d                	j	1e3e <_Z14get_cd_seek_msii+0xc8>
    1ece:	11b40413          	addi	s0,s0,283
    1ed2:	b7b5                	j	1e3e <_Z14get_cd_seek_msii+0xc8>
    1ed4:	28400693          	li	a3,644
    1ed8:	00f6cd63          	blt	a3,a5,1ef2 <_Z14get_cd_seek_msii+0x17c>
    1edc:	f5f78793          	addi	a5,a5,-161
    1ee0:	00479693          	slli	a3,a5,0x4
    1ee4:	97b6                	add	a5,a5,a3
    1ee6:	02e7c7b3          	div	a5,a5,a4
    1eea:	16e40413          	addi	s0,s0,366
    1eee:	943e                	add	s0,s0,a5
    1ef0:	b7b9                	j	1e3e <_Z14get_cd_seek_msii+0xc8>
    1ef2:	d7c78793          	addi	a5,a5,-644
    1ef6:	00479713          	slli	a4,a5,0x4
    1efa:	97ba                	add	a5,a5,a4
    1efc:	0c300713          	li	a4,195
    1f00:	02e7c7b3          	div	a5,a5,a4
    1f04:	25840413          	addi	s0,s0,600
    1f08:	943e                	add	s0,s0,a5
    1f0a:	bf15                	j	1e3e <_Z14get_cd_seek_msii+0xc8>

00001f0c <_Z12HPS_EnableIOv>:
    1f0c:	fd000713          	li	a4,-48
    1f10:	431c                	lw	a5,0(a4)
    1f12:	0001                	nop
    1f14:	0001                	nop
    1f16:	0001                	nop
    1f18:	801006b7          	lui	a3,0x80100
    1f1c:	8fd5                	or	a5,a5,a3
    1f1e:	c31c                	sw	a5,0(a4)
    1f20:	8082                	ret

00001f22 <_Z13HPS_DisableIOv>:
    1f22:	fd000693          	li	a3,-48
    1f26:	429c                	lw	a5,0(a3)
    1f28:	0001                	nop
    1f2a:	0001                	nop
    1f2c:	0001                	nop
    1f2e:	fff00737          	lui	a4,0xfff00
    1f32:	177d                	addi	a4,a4,-1 # ffefffff <__ram_end+0xffeeffff>
    1f34:	8ff9                	and	a5,a5,a4
    1f36:	80000737          	lui	a4,0x80000
    1f3a:	8fd9                	or	a5,a5,a4
    1f3c:	c29c                	sw	a5,0(a3)
    1f3e:	8082                	ret

00001f40 <_Z12HPS_fpga_spit>:
    1f40:	fd002683          	lw	a3,-48(zero) # ffffffd0 <__ram_end+0xfffeffd0>
    1f44:	0001                	nop
    1f46:	0001                	nop
    1f48:	fffd07b7          	lui	a5,0xfffd0
    1f4c:	8efd                	and	a3,a3,a5
    1f4e:	8ec9                	or	a3,a3,a0
    1f50:	0001                	nop
    1f52:	000207b7          	lui	a5,0x20
    1f56:	fcd02823          	sw	a3,-48(zero) # ffffffd0 <__ram_end+0xfffeffd0>
    1f5a:	8fd5                	or	a5,a5,a3
    1f5c:	fcf02823          	sw	a5,-48(zero) # ffffffd0 <__ram_end+0xfffeffd0>
    1f60:	00020737          	lui	a4,0x20
    1f64:	fd402783          	lw	a5,-44(zero) # ffffffd4 <__ram_end+0xfffeffd4>
    1f68:	8ff9                	and	a5,a5,a4
    1f6a:	dfed                	beqz	a5,1f64 <_Z12HPS_fpga_spit+0x24>
    1f6c:	fcd02823          	sw	a3,-48(zero) # ffffffd0 <__ram_end+0xfffeffd0>
    1f70:	00020737          	lui	a4,0x20
    1f74:	fd402503          	lw	a0,-44(zero) # ffffffd4 <__ram_end+0xfffeffd4>
    1f78:	00e577b3          	and	a5,a0,a4
    1f7c:	ffe5                	bnez	a5,1f74 <_Z12HPS_fpga_spit+0x34>
    1f7e:	0542                	slli	a0,a0,0x10
    1f80:	8141                	srli	a0,a0,0x10
    1f82:	8082                	ret

00001f84 <_Z13HPS_spi_writePKhmi>:
    1f84:	1141                	addi	sp,sp,-16
    1f86:	c422                	sw	s0,8(sp)
    1f88:	c04a                	sw	s2,0(sp)
    1f8a:	c606                	sw	ra,12(sp)
    1f8c:	c226                	sw	s1,4(sp)
    1f8e:	842a                	mv	s0,a0
    1f90:	892e                	mv	s2,a1
    1f92:	e205                	bnez	a2,1fb2 <_Z13HPS_spi_writePKhmi+0x2e>
    1f94:	00b504b3          	add	s1,a0,a1
    1f98:	c599                	beqz	a1,1fa6 <_Z13HPS_spi_writePKhmi+0x22>
    1f9a:	00044503          	lbu	a0,0(s0)
    1f9e:	0405                	addi	s0,s0,1
    1fa0:	3745                	jal	1f40 <_Z12HPS_fpga_spit>
    1fa2:	fe941ce3          	bne	s0,s1,1f9a <_Z13HPS_spi_writePKhmi+0x16>
    1fa6:	40b2                	lw	ra,12(sp)
    1fa8:	4422                	lw	s0,8(sp)
    1faa:	4492                	lw	s1,4(sp)
    1fac:	4902                	lw	s2,0(sp)
    1fae:	0141                	addi	sp,sp,16
    1fb0:	8082                	ret
    1fb2:	0015d493          	srli	s1,a1,0x1
    1fb6:	c48d                	beqz	s1,1fe0 <_Z13HPS_spi_writePKhmi+0x5c>
    1fb8:	0486                	slli	s1,s1,0x1
    1fba:	94aa                	add	s1,s1,a0
    1fbc:	00045503          	lhu	a0,0(s0)
    1fc0:	0409                	addi	s0,s0,2
    1fc2:	3fbd                	jal	1f40 <_Z12HPS_fpga_spit>
    1fc4:	fe941ce3          	bne	s0,s1,1fbc <_Z13HPS_spi_writePKhmi+0x38>
    1fc8:	00197913          	andi	s2,s2,1
    1fcc:	fc090de3          	beqz	s2,1fa6 <_Z13HPS_spi_writePKhmi+0x22>
    1fd0:	4422                	lw	s0,8(sp)
    1fd2:	0004c503          	lbu	a0,0(s1)
    1fd6:	40b2                	lw	ra,12(sp)
    1fd8:	4492                	lw	s1,4(sp)
    1fda:	4902                	lw	s2,0(sp)
    1fdc:	0141                	addi	sp,sp,16
    1fde:	b78d                	j	1f40 <_Z12HPS_fpga_spit>
    1fe0:	84aa                	mv	s1,a0
    1fe2:	b7dd                	j	1fc8 <_Z13HPS_spi_writePKhmi+0x44>

00001fe4 <_Z20HPS_spi_uio_cmd_contt>:
    1fe4:	fd000713          	li	a4,-48
    1fe8:	431c                	lw	a5,0(a4)
    1fea:	0001                	nop
    1fec:	0001                	nop
    1fee:	0001                	nop
    1ff0:	801006b7          	lui	a3,0x80100
    1ff4:	8fd5                	or	a5,a5,a3
    1ff6:	c31c                	sw	a5,0(a4)
    1ff8:	0001                	nop
    1ffa:	0001                	nop
    1ffc:	b791                	j	1f40 <_Z12HPS_fpga_spit>

00001ffe <_Z21HPS_spi_uio_cmd8_conthh>:
    1ffe:	1141                	addi	sp,sp,-16
    2000:	fd000713          	li	a4,-48
    2004:	c422                	sw	s0,8(sp)
    2006:	c226                	sw	s1,4(sp)
    2008:	c606                	sw	ra,12(sp)
    200a:	431c                	lw	a5,0(a4)
    200c:	84aa                	mv	s1,a0
    200e:	842e                	mv	s0,a1
    2010:	0001                	nop
    2012:	0001                	nop
    2014:	0001                	nop
    2016:	801006b7          	lui	a3,0x80100
    201a:	8fd5                	or	a5,a5,a3
    201c:	c31c                	sw	a5,0(a4)
    201e:	4505                	li	a0,1
    2020:	304010ef          	jal	ra,3324 <_Z10riscusleepi>
    2024:	8526                	mv	a0,s1
    2026:	3f29                	jal	1f40 <_Z12HPS_fpga_spit>
    2028:	4505                	li	a0,1
    202a:	2fa010ef          	jal	ra,3324 <_Z10riscusleepi>
    202e:	8522                	mv	a0,s0
    2030:	3f01                	jal	1f40 <_Z12HPS_fpga_spit>
    2032:	40b2                	lw	ra,12(sp)
    2034:	4422                	lw	s0,8(sp)
    2036:	4492                	lw	s1,4(sp)
    2038:	0ff57513          	zext.b	a0,a0
    203c:	0141                	addi	sp,sp,16
    203e:	8082                	ret

00002040 <_Z16HPS_spi_uio_cmd8hh>:
    2040:	1141                	addi	sp,sp,-16
    2042:	c422                	sw	s0,8(sp)
    2044:	fd000413          	li	s0,-48
    2048:	c226                	sw	s1,4(sp)
    204a:	c04a                	sw	s2,0(sp)
    204c:	c606                	sw	ra,12(sp)
    204e:	401c                	lw	a5,0(s0)
    2050:	892a                	mv	s2,a0
    2052:	84ae                	mv	s1,a1
    2054:	0001                	nop
    2056:	0001                	nop
    2058:	0001                	nop
    205a:	80100737          	lui	a4,0x80100
    205e:	8fd9                	or	a5,a5,a4
    2060:	c01c                	sw	a5,0(s0)
    2062:	4505                	li	a0,1
    2064:	2c0010ef          	jal	ra,3324 <_Z10riscusleepi>
    2068:	854a                	mv	a0,s2
    206a:	3dd9                	jal	1f40 <_Z12HPS_fpga_spit>
    206c:	4505                	li	a0,1
    206e:	2b6010ef          	jal	ra,3324 <_Z10riscusleepi>
    2072:	8526                	mv	a0,s1
    2074:	35f1                	jal	1f40 <_Z12HPS_fpga_spit>
    2076:	84aa                	mv	s1,a0
    2078:	4505                	li	a0,1
    207a:	2aa010ef          	jal	ra,3324 <_Z10riscusleepi>
    207e:	401c                	lw	a5,0(s0)
    2080:	0001                	nop
    2082:	0001                	nop
    2084:	0001                	nop
    2086:	fff00737          	lui	a4,0xfff00
    208a:	177d                	addi	a4,a4,-1 # ffefffff <__ram_end+0xffeeffff>
    208c:	8ff9                	and	a5,a5,a4
    208e:	80000737          	lui	a4,0x80000
    2092:	8fd9                	or	a5,a5,a4
    2094:	40b2                	lw	ra,12(sp)
    2096:	c01c                	sw	a5,0(s0)
    2098:	4422                	lw	s0,8(sp)
    209a:	4902                	lw	s2,0(sp)
    209c:	0ff4f513          	zext.b	a0,s1
    20a0:	4492                	lw	s1,4(sp)
    20a2:	0141                	addi	sp,sp,16
    20a4:	8082                	ret

000020a6 <_Z19HPS_io_file_tx_dataPKhmi>:
    20a6:	1101                	addi	sp,sp,-32
    20a8:	cc22                	sw	s0,24(sp)
    20aa:	fd000413          	li	s0,-48
    20ae:	ca26                	sw	s1,20(sp)
    20b0:	c84a                	sw	s2,16(sp)
    20b2:	c64e                	sw	s3,12(sp)
    20b4:	ce06                	sw	ra,28(sp)
    20b6:	401c                	lw	a5,0(s0)
    20b8:	84aa                	mv	s1,a0
    20ba:	892e                	mv	s2,a1
    20bc:	89b2                	mv	s3,a2
    20be:	0001                	nop
    20c0:	0001                	nop
    20c2:	0001                	nop
    20c4:	80100737          	lui	a4,0x80100
    20c8:	8fd9                	or	a5,a5,a4
    20ca:	c01c                	sw	a5,0(s0)
    20cc:	4505                	li	a0,1
    20ce:	256010ef          	jal	ra,3324 <_Z10riscusleepi>
    20d2:	0ff9f513          	zext.b	a0,s3
    20d6:	35ad                	jal	1f40 <_Z12HPS_fpga_spit>
    20d8:	4605                	li	a2,1
    20da:	85ca                	mv	a1,s2
    20dc:	8526                	mv	a0,s1
    20de:	355d                	jal	1f84 <_Z13HPS_spi_writePKhmi>
    20e0:	401c                	lw	a5,0(s0)
    20e2:	0001                	nop
    20e4:	0001                	nop
    20e6:	0001                	nop
    20e8:	fff00737          	lui	a4,0xfff00
    20ec:	177d                	addi	a4,a4,-1 # ffefffff <__ram_end+0xffeeffff>
    20ee:	8ff9                	and	a5,a5,a4
    20f0:	80000737          	lui	a4,0x80000
    20f4:	8fd9                	or	a5,a5,a4
    20f6:	40f2                	lw	ra,28(sp)
    20f8:	c01c                	sw	a5,0(s0)
    20fa:	4462                	lw	s0,24(sp)
    20fc:	44d2                	lw	s1,20(sp)
    20fe:	4942                	lw	s2,16(sp)
    2100:	49b2                	lw	s3,12(sp)
    2102:	6105                	addi	sp,sp,32
    2104:	8082                	ret

00002106 <_Z14HPS_DisableOsdv>:
    2106:	fd000693          	li	a3,-48
    210a:	429c                	lw	a5,0(a3)
    210c:	0001                	nop
    210e:	0001                	nop
    2110:	0001                	nop
    2112:	ffe40737          	lui	a4,0xffe40
    2116:	177d                	addi	a4,a4,-1 # ffe3ffff <__ram_end+0xffe2ffff>
    2118:	8ff9                	and	a5,a5,a4
    211a:	80000737          	lui	a4,0x80000
    211e:	8fd9                	or	a5,a5,a4
    2120:	c29c                	sw	a5,0(a3)
    2122:	8082                	ret

00002124 <_Z20HPS_spi_osd_cmd_conth>:
    2124:	fd000713          	li	a4,-48
    2128:	431c                	lw	a5,0(a4)
    212a:	0001                	nop
    212c:	0001                	nop
    212e:	0001                	nop
    2130:	801c06b7          	lui	a3,0x801c0
    2134:	8fd5                	or	a5,a5,a3
    2136:	c31c                	sw	a5,0(a4)
    2138:	0001                	nop
    213a:	b519                	j	1f40 <_Z12HPS_fpga_spit>

0000213c <_Z15HPS_spi_osd_cmdh>:
    213c:	1141                	addi	sp,sp,-16
    213e:	c422                	sw	s0,8(sp)
    2140:	fd000413          	li	s0,-48
    2144:	c606                	sw	ra,12(sp)
    2146:	401c                	lw	a5,0(s0)
    2148:	0001                	nop
    214a:	0001                	nop
    214c:	0001                	nop
    214e:	801c0737          	lui	a4,0x801c0
    2152:	8fd9                	or	a5,a5,a4
    2154:	c01c                	sw	a5,0(s0)
    2156:	0001                	nop
    2158:	33e5                	jal	1f40 <_Z12HPS_fpga_spit>
    215a:	0001                	nop
    215c:	0001                	nop
    215e:	0001                	nop
    2160:	401c                	lw	a5,0(s0)
    2162:	0001                	nop
    2164:	0001                	nop
    2166:	0001                	nop
    2168:	ffe40737          	lui	a4,0xffe40
    216c:	177d                	addi	a4,a4,-1 # ffe3ffff <__ram_end+0xffe2ffff>
    216e:	8ff9                	and	a5,a5,a4
    2170:	80000737          	lui	a4,0x80000
    2174:	8fd9                	or	a5,a5,a4
    2176:	40b2                	lw	ra,12(sp)
    2178:	c01c                	sw	a5,0(s0)
    217a:	4422                	lw	s0,8(sp)
    217c:	0141                	addi	sp,sp,16
    217e:	8082                	ret

00002180 <_Z17OSD_HPS_spi_writePKhmi>:
    2180:	1141                	addi	sp,sp,-16
    2182:	c422                	sw	s0,8(sp)
    2184:	c04a                	sw	s2,0(sp)
    2186:	c606                	sw	ra,12(sp)
    2188:	c226                	sw	s1,4(sp)
    218a:	842a                	mv	s0,a0
    218c:	892e                	mv	s2,a1
    218e:	e205                	bnez	a2,21ae <_Z17OSD_HPS_spi_writePKhmi+0x2e>
    2190:	00b504b3          	add	s1,a0,a1
    2194:	c599                	beqz	a1,21a2 <_Z17OSD_HPS_spi_writePKhmi+0x22>
    2196:	00044503          	lbu	a0,0(s0)
    219a:	0405                	addi	s0,s0,1
    219c:	3355                	jal	1f40 <_Z12HPS_fpga_spit>
    219e:	fe849ce3          	bne	s1,s0,2196 <_Z17OSD_HPS_spi_writePKhmi+0x16>
    21a2:	40b2                	lw	ra,12(sp)
    21a4:	4422                	lw	s0,8(sp)
    21a6:	4492                	lw	s1,4(sp)
    21a8:	4902                	lw	s2,0(sp)
    21aa:	0141                	addi	sp,sp,16
    21ac:	8082                	ret
    21ae:	0015d493          	srli	s1,a1,0x1
    21b2:	c48d                	beqz	s1,21dc <_Z17OSD_HPS_spi_writePKhmi+0x5c>
    21b4:	0486                	slli	s1,s1,0x1
    21b6:	94aa                	add	s1,s1,a0
    21b8:	00045503          	lhu	a0,0(s0)
    21bc:	0409                	addi	s0,s0,2
    21be:	3349                	jal	1f40 <_Z12HPS_fpga_spit>
    21c0:	fe849ce3          	bne	s1,s0,21b8 <_Z17OSD_HPS_spi_writePKhmi+0x38>
    21c4:	00197913          	andi	s2,s2,1
    21c8:	fc090de3          	beqz	s2,21a2 <_Z17OSD_HPS_spi_writePKhmi+0x22>
    21cc:	4422                	lw	s0,8(sp)
    21ce:	0004c503          	lbu	a0,0(s1)
    21d2:	40b2                	lw	ra,12(sp)
    21d4:	4492                	lw	s1,4(sp)
    21d6:	4902                	lw	s2,0(sp)
    21d8:	0141                	addi	sp,sp,16
    21da:	b39d                	j	1f40 <_Z12HPS_fpga_spit>
    21dc:	84aa                	mv	s1,a0
    21de:	b7dd                	j	21c4 <_Z17OSD_HPS_spi_writePKhmi+0x44>

000021e0 <_Z14OsdWriteOffsethPKchhcccii>:
    21e0:	715d                	addi	sp,sp,-80
    21e2:	d466                	sw	s9,40(sp)
    21e4:	679d                	lui	a5,0x7
    21e6:	c6a2                	sw	s0,76(sp)
    21e8:	c4a6                	sw	s1,72(sp)
    21ea:	c2ca                	sw	s2,68(sp)
    21ec:	c0ce                	sw	s3,64(sp)
    21ee:	de52                	sw	s4,60(sp)
    21f0:	dc56                	sw	s5,56(sp)
    21f2:	da5a                	sw	s6,52(sp)
    21f4:	d85e                	sw	s7,48(sp)
    21f6:	d662                	sw	s8,44(sp)
    21f8:	d26a                	sw	s10,36(sp)
    21fa:	d06e                	sw	s11,32(sp)
    21fc:	4e46                	lw	t3,80(sp)
    21fe:	b5c7ac83          	lw	s9,-1188(a5) # 6b5c <_ZL5arrow>
    2202:	0ff00f93          	li	t6,255
    2206:	c689                	beqz	a3,2210 <_Z14OsdWriteOffsethPKchhcccii+0x30>
    2208:	05500f93          	li	t6,85
    220c:	0ff00693          	li	a3,255
    2210:	641d                	lui	s0,0x7
    2212:	b5442783          	lw	a5,-1196(s0) # 6b54 <_ZL6osdset>
    2216:	01f57f13          	andi	t5,a0,31
    221a:	4b05                	li	s6,1
    221c:	01eb1b33          	sll	s6,s6,t5
    2220:	00fb6b33          	or	s6,s6,a5
    2224:	0f22                	slli	t5,t5,0x8
    2226:	679d                	lui	a5,0x7
    2228:	b5e7ac23          	sw	t5,-1192(a5) # 6b58 <_ZL9osdbufpos>
    222c:	6795                	lui	a5,0x5
    222e:	6315                	lui	t1,0x5
    2230:	98078793          	addi	a5,a5,-1664 # 4980 <charfont>
    2234:	da032483          	lw	s1,-608(t1) # 4da0 <_ZL8osd_size>
    2238:	cc3e                	sw	a5,24(sp)
    223a:	679d                	lui	a5,0x7
    223c:	8e878c13          	addi	s8,a5,-1816 # 68e8 <_ZL6osdbuf>
    2240:	679d                	lui	a5,0x7
    2242:	4981                	li	s3,0
    2244:	9e878793          	addi	a5,a5,-1560 # 69e8 <framebuffer>
    2248:	6a95                	lui	s5,0x5
    224a:	6a15                	lui	s4,0x5
    224c:	8d42                	mv	s10,a6
    224e:	b5642a23          	sw	s6,-1196(s0)
    2252:	14fd                	addi	s1,s1,-1
    2254:	c602                	sw	zero,12(sp)
    2256:	4281                	li	t0,0
    2258:	4301                	li	t1,0
    225a:	4e81                	li	t4,0
    225c:	492d                	li	s2,11
    225e:	4bb1                	li	s7,12
    2260:	4db5                	li	s11,13
    2262:	ce3e                	sw	a5,28(sp)
    2264:	a08a8a93          	addi	s5,s5,-1528 # 4a08 <charfont+0x88>
    2268:	a28a0a13          	addi	s4,s4,-1496 # 4a28 <charfont+0xa8>
    226c:	884e                	mv	a6,s3
    226e:	ce09                	beqz	a2,2288 <_Z14OsdWriteOffsethPKchhcccii+0xa8>
    2270:	003ed793          	srli	a5,t4,0x3
    2274:	01c7c463          	blt	a5,t3,227c <_Z14OsdWriteOffsethPKchhcccii+0x9c>
    2278:	0ff00313          	li	t1,255
    227c:	0117a7b3          	slt	a5,a5,a7
    2280:	40f007b3          	neg	a5,a5
    2284:	00f37333          	and	t1,t1,a5
    2288:	08950763          	beq	a0,s1,2316 <_Z14OsdWriteOffsethPKchhcccii+0x136>
    228c:	0005c783          	lbu	a5,0(a1)
    2290:	0585                	addi	a1,a1,1
    2292:	16078263          	beqz	a5,23f6 <_Z14OsdWriteOffsethPKchhcccii+0x216>
    2296:	13278563          	beq	a5,s2,23c0 <_Z14OsdWriteOffsethPKchhcccii+0x1e0>
    229a:	15778963          	beq	a5,s7,23ec <_Z14OsdWriteOffsethPKchhcccii+0x20c>
    229e:	13b78863          	beq	a5,s11,23ce <_Z14OsdWriteOffsethPKchhcccii+0x1ee>
    22a2:	4429                	li	s0,10
    22a4:	12878563          	beq	a5,s0,23ce <_Z14OsdWriteOffsethPKchhcccii+0x1ee>
    22a8:	0f700413          	li	s0,247
    22ac:	fdd461e3          	bltu	s0,t4,226e <_Z14OsdWriteOffsethPKchhcccii+0x8e>
    22b0:	4462                	lw	s0,24(sp)
    22b2:	42f2                	lw	t0,28(sp)
    22b4:	078e                	slli	a5,a5,0x3
    22b6:	97a2                	add	a5,a5,s0
    22b8:	feae8413          	addi	s0,t4,-22
    22bc:	010349b3          	xor	s3,t1,a6
    22c0:	9416                	add	s0,s0,t0
    22c2:	00878293          	addi	t0,a5,8
    22c6:	c826                	sw	s1,16(sp)
    22c8:	0ff9f993          	zext.b	s3,s3
    22cc:	01ec03b3          	add	t2,s8,t5
    22d0:	ca76                	sw	t4,20(sp)
    22d2:	8496                	mv	s1,t0
    22d4:	0785                	addi	a5,a5,1
    22d6:	4281                	li	t0,0
    22d8:	000d0463          	beqz	s10,22e0 <_Z14OsdWriteOffsethPKchhcccii+0x100>
    22dc:	00044283          	lbu	t0,0(s0)
    22e0:	fff7ce83          	lbu	t4,-1(a5)
    22e4:	0385                	addi	t2,t2,1
    22e6:	0405                	addi	s0,s0,1
    22e8:	00ee9eb3          	sll	t4,t4,a4
    22ec:	01dffeb3          	and	t4,t6,t4
    22f0:	01d9ceb3          	xor	t4,s3,t4
    22f4:	01d2e2b3          	or	t0,t0,t4
    22f8:	fe538fa3          	sb	t0,-1(t2)
    22fc:	01f6cfb3          	xor	t6,a3,t6
    2300:	fc979ae3          	bne	a5,s1,22d4 <_Z14OsdWriteOffsethPKchhcccii+0xf4>
    2304:	4ed2                	lw	t4,20(sp)
    2306:	44c2                	lw	s1,16(sp)
    2308:	0f21                	addi	t5,t5,8
    230a:	0ea1                	addi	t4,t4,8
    230c:	0ec2                	slli	t4,t4,0x10
    230e:	010ede93          	srli	t4,t4,0x10
    2312:	4285                	li	t0,1
    2314:	bfa9                	j	226e <_Z14OsdWriteOffsethPKchhcccii+0x8e>
    2316:	001cf793          	andi	a5,s9,1
    231a:	dbad                	beqz	a5,228c <_Z14OsdWriteOffsethPKchhcccii+0xac>
    231c:	01ec07b3          	add	a5,s8,t5
    2320:	003f0993          	addi	s3,t5,3
    2324:	00678023          	sb	t1,0(a5)
    2328:	006780a3          	sb	t1,1(a5)
    232c:	00678123          	sb	t1,2(a5)
    2330:	6795                	lui	a5,0x5
    2332:	641d                	lui	s0,0x7
    2334:	83e2                	mv	t2,s8
    2336:	99e2                	add	s3,s3,s8
    2338:	a0078293          	addi	t0,a5,-1536 # 4a00 <charfont+0x80>
    233c:	0002c783          	lbu	a5,0(t0)
    2340:	0985                	addi	s3,s3,1
    2342:	0285                	addi	t0,t0,1
    2344:	00e797b3          	sll	a5,a5,a4
    2348:	00f347b3          	xor	a5,t1,a5
    234c:	fef98fa3          	sb	a5,-1(s3)
    2350:	ff5296e3          	bne	t0,s5,233c <_Z14OsdWriteOffsethPKchhcccii+0x15c>
    2354:	00bf0993          	addi	s3,t5,11
    2358:	6795                	lui	a5,0x5
    235a:	99e2                	add	s3,s3,s8
    235c:	a2078293          	addi	t0,a5,-1504 # 4a20 <charfont+0xa0>
    2360:	0002c783          	lbu	a5,0(t0)
    2364:	0985                	addi	s3,s3,1
    2366:	0285                	addi	t0,t0,1
    2368:	00e797b3          	sll	a5,a5,a4
    236c:	00f347b3          	xor	a5,t1,a5
    2370:	fef98fa3          	sb	a5,-1(s3)
    2374:	ff4296e3          	bne	t0,s4,2360 <_Z14OsdWriteOffsethPKchhcccii+0x180>
    2378:	01ec07b3          	add	a5,s8,t5
    237c:	017f0293          	addi	t0,t5,23
    2380:	006789a3          	sb	t1,19(a5)
    2384:	00678a23          	sb	t1,20(a5)
    2388:	00678aa3          	sb	t1,21(a5)
    238c:	00678b23          	sb	t1,22(a5)
    2390:	005c07b3          	add	a5,s8,t0
    2394:	00678023          	sb	t1,0(a5)
    2398:	0005c783          	lbu	a5,0(a1)
    239c:	0ee1                	addi	t4,t4,24
    239e:	0ec2                	slli	t4,t4,0x10
    23a0:	0f61                	addi	t5,t5,24
    23a2:	010ede93          	srli	t4,t4,0x10
    23a6:	ffecfc93          	andi	s9,s9,-2
    23aa:	0e078b63          	beqz	a5,24a0 <_Z14OsdWriteOffsethPKchhcccii+0x2c0>
    23ae:	0015c783          	lbu	a5,1(a1)
    23b2:	c7fd                	beqz	a5,24a0 <_Z14OsdWriteOffsethPKchhcccii+0x2c0>
    23b4:	0025c783          	lbu	a5,2(a1)
    23b8:	058d                	addi	a1,a1,3
    23ba:	c3fd                	beqz	a5,24a0 <_Z14OsdWriteOffsethPKchhcccii+0x2c0>
    23bc:	4285                	li	t0,1
    23be:	bd45                	j	226e <_Z14OsdWriteOffsethPKchhcccii+0x8e>
    23c0:	fff6c693          	not	a3,a3
    23c4:	0aafcf93          	xori	t6,t6,170
    23c8:	0ff6f693          	zext.b	a3,a3
    23cc:	b54d                	j	226e <_Z14OsdWriteOffsethPKchhcccii+0x8e>
    23ce:	0505                	addi	a0,a0,1
    23d0:	01f57f13          	andi	t5,a0,31
    23d4:	4785                	li	a5,1
    23d6:	01e797b3          	sll	a5,a5,t5
    23da:	00fb6b33          	or	s6,s6,a5
    23de:	4785                	li	a5,1
    23e0:	0ff57513          	zext.b	a0,a0
    23e4:	0f22                	slli	t5,t5,0x8
    23e6:	c63e                	sw	a5,12(sp)
    23e8:	4285                	li	t0,1
    23ea:	b551                	j	226e <_Z14OsdWriteOffsethPKchhcccii+0x8e>
    23ec:	fff84793          	not	a5,a6
    23f0:	0ff7f813          	zext.b	a6,a5
    23f4:	bdad                	j	226e <_Z14OsdWriteOffsethPKchhcccii+0x8e>
    23f6:	47b2                	lw	a5,12(sp)
    23f8:	886a                	mv	a6,s10
    23fa:	c781                	beqz	a5,2402 <_Z14OsdWriteOffsethPKchhcccii+0x222>
    23fc:	679d                	lui	a5,0x7
    23fe:	b567aa23          	sw	s6,-1196(a5) # 6b54 <_ZL6osdset>
    2402:	00028563          	beqz	t0,240c <_Z14OsdWriteOffsethPKchhcccii+0x22c>
    2406:	679d                	lui	a5,0x7
    2408:	b5e7ac23          	sw	t5,-1192(a5) # 6b58 <_ZL9osdbufpos>
    240c:	641d                	lui	s0,0x7
    240e:	0ff00793          	li	a5,255
    2412:	86f6                	mv	a3,t4
    2414:	8e840393          	addi	t2,s0,-1816 # 68e8 <_ZL6osdbuf>
    2418:	07d7e463          	bltu	a5,t4,2480 <_Z14OsdWriteOffsethPKchhcccii+0x2a0>
    241c:	679d                	lui	a5,0x7
    241e:	b587a883          	lw	a7,-1192(a5) # 6b58 <_ZL9osdbufpos>
    2422:	0ff00793          	li	a5,255
    2426:	001e8613          	addi	a2,t4,1
    242a:	41d787b3          	sub	a5,a5,t4
    242e:	00138593          	addi	a1,t2,1
    2432:	8e840413          	addi	s0,s0,-1816
    2436:	01079e93          	slli	t4,a5,0x10
    243a:	0642                	slli	a2,a2,0x10
    243c:	010ede93          	srli	t4,t4,0x10
    2440:	95c6                	add	a1,a1,a7
    2442:	9446                	add	s0,s0,a7
    2444:	8241                	srli	a2,a2,0x10
    2446:	6e1d                	lui	t3,0x7
    2448:	93c6                	add	t2,t2,a7
    244a:	95f6                	add	a1,a1,t4
    244c:	9e8e0e13          	addi	t3,t3,-1560 # 69e8 <framebuffer>
    2450:	8e01                	sub	a2,a2,s0
    2452:	00de0f33          	add	t5,t3,a3
    2456:	879a                	mv	a5,t1
    2458:	007606b3          	add	a3,a2,t2
    245c:	00080863          	beqz	a6,246c <_Z14OsdWriteOffsethPKchhcccii+0x28c>
    2460:	feaf4783          	lbu	a5,-22(t5)
    2464:	00f367b3          	or	a5,t1,a5
    2468:	0ff7f793          	zext.b	a5,a5
    246c:	00f38023          	sb	a5,0(t2)
    2470:	0385                	addi	t2,t2,1
    2472:	fe7590e3          	bne	a1,t2,2452 <_Z14OsdWriteOffsethPKchhcccii+0x272>
    2476:	0885                	addi	a7,a7,1
    2478:	98f6                	add	a7,a7,t4
    247a:	679d                	lui	a5,0x7
    247c:	b517ac23          	sw	a7,-1192(a5) # 6b58 <_ZL9osdbufpos>
    2480:	02950e63          	beq	a0,s1,24bc <_Z14OsdWriteOffsethPKchhcccii+0x2dc>
    2484:	4436                	lw	s0,76(sp)
    2486:	44a6                	lw	s1,72(sp)
    2488:	4916                	lw	s2,68(sp)
    248a:	4986                	lw	s3,64(sp)
    248c:	5a72                	lw	s4,60(sp)
    248e:	5ae2                	lw	s5,56(sp)
    2490:	5b52                	lw	s6,52(sp)
    2492:	5bc2                	lw	s7,48(sp)
    2494:	5c32                	lw	s8,44(sp)
    2496:	5ca2                	lw	s9,40(sp)
    2498:	5d12                	lw	s10,36(sp)
    249a:	5d82                	lw	s11,32(sp)
    249c:	6161                	addi	sp,sp,80
    249e:	8082                	ret
    24a0:	47b2                	lw	a5,12(sp)
    24a2:	886a                	mv	a6,s10
    24a4:	c781                	beqz	a5,24ac <_Z14OsdWriteOffsethPKchhcccii+0x2cc>
    24a6:	679d                	lui	a5,0x7
    24a8:	b567aa23          	sw	s6,-1196(a5) # 6b54 <_ZL6osdset>
    24ac:	679d                	lui	a5,0x7
    24ae:	b5e7ac23          	sw	t5,-1192(a5) # 6b58 <_ZL9osdbufpos>
    24b2:	0ff00793          	li	a5,255
    24b6:	86f6                	mv	a3,t4
    24b8:	f7d7f2e3          	bgeu	a5,t4,241c <_Z14OsdWriteOffsethPKchhcccii+0x23c>
    24bc:	002cfc93          	andi	s9,s9,2
    24c0:	fc0c82e3          	beqz	s9,2484 <_Z14OsdWriteOffsethPKchhcccii+0x2a4>
    24c4:	679d                	lui	a5,0x7
    24c6:	b587a503          	lw	a0,-1192(a5) # 6b58 <_ZL9osdbufpos>
    24ca:	641d                	lui	s0,0x7
    24cc:	8e840393          	addi	t2,s0,-1816 # 68e8 <_ZL6osdbuf>
    24d0:	00a387b3          	add	a5,t2,a0
    24d4:	00350613          	addi	a2,a0,3
    24d8:	6695                	lui	a3,0x5
    24da:	6595                	lui	a1,0x5
    24dc:	00678023          	sb	t1,0(a5)
    24e0:	006780a3          	sb	t1,1(a5)
    24e4:	00678123          	sb	t1,2(a5)
    24e8:	961e                	add	a2,a2,t2
    24ea:	a2868693          	addi	a3,a3,-1496 # 4a28 <charfont+0xa8>
    24ee:	a3058593          	addi	a1,a1,-1488 # 4a30 <charfont+0xb0>
    24f2:	0006c783          	lbu	a5,0(a3)
    24f6:	0605                	addi	a2,a2,1
    24f8:	0685                	addi	a3,a3,1
    24fa:	00e797b3          	sll	a5,a5,a4
    24fe:	00f347b3          	xor	a5,t1,a5
    2502:	fef60fa3          	sb	a5,-1(a2)
    2506:	feb696e3          	bne	a3,a1,24f2 <_Z14OsdWriteOffsethPKchhcccii+0x312>
    250a:	00b50613          	addi	a2,a0,11
    250e:	6695                	lui	a3,0x5
    2510:	6595                	lui	a1,0x5
    2512:	961e                	add	a2,a2,t2
    2514:	a0868693          	addi	a3,a3,-1528 # 4a08 <charfont+0x88>
    2518:	a1058593          	addi	a1,a1,-1520 # 4a10 <charfont+0x90>
    251c:	0006c783          	lbu	a5,0(a3)
    2520:	0605                	addi	a2,a2,1
    2522:	0685                	addi	a3,a3,1
    2524:	00e797b3          	sll	a5,a5,a4
    2528:	00f347b3          	xor	a5,t1,a5
    252c:	fef60fa3          	sb	a5,-1(a2)
    2530:	feb696e3          	bne	a3,a1,251c <_Z14OsdWriteOffsethPKchhcccii+0x33c>
    2534:	93aa                	add	t2,t2,a0
    2536:	679d                	lui	a5,0x7
    2538:	0559                	addi	a0,a0,22
    253a:	006389a3          	sb	t1,19(t2)
    253e:	00638a23          	sb	t1,20(t2)
    2542:	b4a7ac23          	sw	a0,-1192(a5) # 6b58 <_ZL9osdbufpos>
    2546:	00638aa3          	sb	t1,21(t2)
    254a:	bf2d                	j	2484 <_Z14OsdWriteOffsethPKchhcccii+0x2a4>

0000254c <_Z8OsdWritePKchhcii>:
    254c:	1101                	addi	sp,sp,-32
    254e:	c03e                	sw	a5,0(sp)
    2550:	88ba                	mv	a7,a4
    2552:	8836                	mv	a6,a3
    2554:	4781                	li	a5,0
    2556:	86b2                	mv	a3,a2
    2558:	4701                	li	a4,0
    255a:	862e                	mv	a2,a1
    255c:	85aa                	mv	a1,a0
    255e:	4501                	li	a0,0
    2560:	ce06                	sw	ra,28(sp)
    2562:	c7fff0ef          	jal	ra,21e0 <_Z14OsdWriteOffsethPKchhcccii>
    2566:	40f2                	lw	ra,28(sp)
    2568:	6105                	addi	sp,sp,32
    256a:	8082                	ret

0000256c <_Z8OsdClearv>:
    256c:	679d                	lui	a5,0x7
    256e:	8e878793          	addi	a5,a5,-1816 # 68e8 <_ZL6osdbuf>
    2572:	10078713          	addi	a4,a5,256
    2576:	00078023          	sb	zero,0(a5)
    257a:	0001                	nop
    257c:	0785                	addi	a5,a5,1
    257e:	fee79ce3          	bne	a5,a4,2576 <_Z8OsdClearv+0xa>
    2582:	8082                	ret

00002584 <_Z10InfoEnableiiiiii>:
    2584:	1101                	addi	sp,sp,-32
    2586:	c256                	sw	s5,4(sp)
    2588:	8aaa                	mv	s5,a0
    258a:	04500513          	li	a0,69
    258e:	ce06                	sw	ra,28(sp)
    2590:	cc22                	sw	s0,24(sp)
    2592:	ca26                	sw	s1,20(sp)
    2594:	c84a                	sw	s2,16(sp)
    2596:	c64e                	sw	s3,12(sp)
    2598:	c452                	sw	s4,8(sp)
    259a:	89b2                	mv	s3,a2
    259c:	8a2e                	mv	s4,a1
    259e:	8936                	mv	s2,a3
    25a0:	84ba                	mv	s1,a4
    25a2:	843e                	mv	s0,a5
    25a4:	b81ff0ef          	jal	ra,2124 <_Z20HPS_spi_osd_cmd_conth>
    25a8:	010a9513          	slli	a0,s5,0x10
    25ac:	8141                	srli	a0,a0,0x10
    25ae:	993ff0ef          	jal	ra,1f40 <_Z12HPS_fpga_spit>
    25b2:	010a1513          	slli	a0,s4,0x10
    25b6:	8141                	srli	a0,a0,0x10
    25b8:	989ff0ef          	jal	ra,1f40 <_Z12HPS_fpga_spit>
    25bc:	01099513          	slli	a0,s3,0x10
    25c0:	8141                	srli	a0,a0,0x10
    25c2:	97fff0ef          	jal	ra,1f40 <_Z12HPS_fpga_spit>
    25c6:	01091513          	slli	a0,s2,0x10
    25ca:	8141                	srli	a0,a0,0x10
    25cc:	975ff0ef          	jal	ra,1f40 <_Z12HPS_fpga_spit>
    25d0:	01049513          	slli	a0,s1,0x10
    25d4:	8141                	srli	a0,a0,0x10
    25d6:	96bff0ef          	jal	ra,1f40 <_Z12HPS_fpga_spit>
    25da:	01041513          	slli	a0,s0,0x10
    25de:	8141                	srli	a0,a0,0x10
    25e0:	961ff0ef          	jal	ra,1f40 <_Z12HPS_fpga_spit>
    25e4:	4462                	lw	s0,24(sp)
    25e6:	40f2                	lw	ra,28(sp)
    25e8:	44d2                	lw	s1,20(sp)
    25ea:	4942                	lw	s2,16(sp)
    25ec:	49b2                	lw	s3,12(sp)
    25ee:	4a22                	lw	s4,8(sp)
    25f0:	4a92                	lw	s5,4(sp)
    25f2:	6105                	addi	sp,sp,32
    25f4:	b13ff06f          	j	2106 <_Z14HPS_DisableOsdv>

000025f8 <_Z10OsdDisablev>:
    25f8:	04000513          	li	a0,64
    25fc:	b41ff06f          	j	213c <_Z15HPS_spi_osd_cmdh>

00002600 <_Z9OsdUpdatei>:
    2600:	02056513          	ori	a0,a0,32
    2604:	1141                	addi	sp,sp,-16
    2606:	0ff57513          	zext.b	a0,a0
    260a:	c606                	sw	ra,12(sp)
    260c:	b19ff0ef          	jal	ra,2124 <_Z20HPS_spi_osd_cmd_conth>
    2610:	0001                	nop
    2612:	0001                	nop
    2614:	651d                	lui	a0,0x7
    2616:	4601                	li	a2,0
    2618:	10000593          	li	a1,256
    261c:	8e850513          	addi	a0,a0,-1816 # 68e8 <_ZL6osdbuf>
    2620:	b61ff0ef          	jal	ra,2180 <_Z17OSD_HPS_spi_writePKhmi>
    2624:	0001                	nop
    2626:	0001                	nop
    2628:	40b2                	lw	ra,12(sp)
    262a:	0141                	addi	sp,sp,16
    262c:	adbff06f          	j	2106 <_Z14HPS_DisableOsdv>

00002630 <_Z16osd_display_infov>:
    2630:	679d                	lui	a5,0x7
    2632:	b687a783          	lw	a5,-1176(a5) # 6b68 <_ZL12error_system>
    2636:	e791                	bnez	a5,2642 <_Z16osd_display_infov+0x12>
    2638:	f0802703          	lw	a4,-248(zero) # ffffff08 <__ram_end+0xfffeff08>
    263c:	4785                	li	a5,1
    263e:	00f70363          	beq	a4,a5,2644 <_Z16osd_display_infov+0x14>
    2642:	bf5d                	j	25f8 <_Z10OsdDisablev>
    2644:	1141                	addi	sp,sp,-16
    2646:	c226                	sw	s1,4(sp)
    2648:	649d                	lui	s1,0x7
    264a:	b644a603          	lw	a2,-1180(s1) # 6b64 <_ZL16timer_wait_value>
    264e:	c422                	sw	s0,8(sp)
    2650:	6591                	lui	a1,0x4
    2652:	641d                	lui	s0,0x7
    2654:	54c58593          	addi	a1,a1,1356 # 454c <stream_vscanf+0xa84>
    2658:	ae840513          	addi	a0,s0,-1304 # 6ae8 <s>
    265c:	c606                	sw	ra,12(sp)
    265e:	358010ef          	jal	ra,39b6 <sprintf>
    2662:	4781                	li	a5,0
    2664:	02000713          	li	a4,32
    2668:	4681                	li	a3,0
    266a:	4601                	li	a2,0
    266c:	4581                	li	a1,0
    266e:	ae840513          	addi	a0,s0,-1304
    2672:	3de9                	jal	254c <_Z8OsdWritePKchhcii>
    2674:	4505                	li	a0,1
    2676:	3769                	jal	2600 <_Z9OsdUpdatei>
    2678:	3dd5                	jal	256c <_Z8OsdClearv>
    267a:	679d                	lui	a5,0x7
    267c:	b617c703          	lbu	a4,-1183(a5) # 6b61 <nstore3>
    2680:	679d                	lui	a5,0x7
    2682:	b627c683          	lbu	a3,-1182(a5) # 6b62 <nstore2>
    2686:	679d                	lui	a5,0x7
    2688:	b637c603          	lbu	a2,-1181(a5) # 6b63 <nstore1>
    268c:	6591                	lui	a1,0x4
    268e:	55858593          	addi	a1,a1,1368 # 4558 <stream_vscanf+0xa90>
    2692:	ae840513          	addi	a0,s0,-1304
    2696:	320010ef          	jal	ra,39b6 <sprintf>
    269a:	4781                	li	a5,0
    269c:	02000713          	li	a4,32
    26a0:	4681                	li	a3,0
    26a2:	4601                	li	a2,0
    26a4:	4581                	li	a1,0
    26a6:	ae840513          	addi	a0,s0,-1304
    26aa:	354d                	jal	254c <_Z8OsdWritePKchhcii>
    26ac:	4501                	li	a0,0
    26ae:	3f89                	jal	2600 <_Z9OsdUpdatei>
    26b0:	641d                	lui	s0,0x7
    26b2:	3d6d                	jal	256c <_Z8OsdClearv>
    26b4:	b6044783          	lbu	a5,-1184(s0) # 6b60 <frame_counter>
    26b8:	cf95                	beqz	a5,26f4 <_Z16osd_display_infov+0xc4>
    26ba:	67a1                	lui	a5,0x8
    26bc:	c0078793          	addi	a5,a5,-1024 # 7c00 <_end+0xc90>
    26c0:	12300713          	li	a4,291
    26c4:	4689                	li	a3,2
    26c6:	4641                	li	a2,16
    26c8:	45a9                	li	a1,10
    26ca:	4529                	li	a0,10
    26cc:	3d65                	jal	2584 <_Z10InfoEnableiiiiii>
    26ce:	4d5000ef          	jal	ra,33a2 <_Z11ResetTimer2v>
    26d2:	08d9f5b7          	lui	a1,0x8d9f
    26d6:	e2058593          	addi	a1,a1,-480 # 8d9ee20 <__ram_end+0x8d8ee20>
    26da:	4501                	li	a0,0
    26dc:	47f000ef          	jal	ra,335a <_Z13RISCGetTimer2mi>
    26e0:	b6044783          	lbu	a5,-1184(s0)
    26e4:	17fd                	addi	a5,a5,-1
    26e6:	b6f40023          	sb	a5,-1184(s0)
    26ea:	40b2                	lw	ra,12(sp)
    26ec:	4422                	lw	s0,8(sp)
    26ee:	4492                	lw	s1,4(sp)
    26f0:	0141                	addi	sp,sp,16
    26f2:	8082                	ret
    26f4:	67c1                	lui	a5,0x10
    26f6:	17fd                	addi	a5,a5,-1 # ffff <sector_buffer1+0x3fff>
    26f8:	12300713          	li	a4,291
    26fc:	4689                	li	a3,2
    26fe:	4641                	li	a2,16
    2700:	45a9                	li	a1,10
    2702:	4529                	li	a0,10
    2704:	3541                	jal	2584 <_Z10InfoEnableiiiiii>
    2706:	b604a223          	sw	zero,-1180(s1)
    270a:	b7c5                	j	26ea <_Z16osd_display_infov+0xba>

0000270c <_Z23osd_display_info_updatei>:
    270c:	679d                	lui	a5,0x7
    270e:	b687a783          	lw	a5,-1176(a5) # 6b68 <_ZL12error_system>
    2712:	e791                	bnez	a5,271e <_Z23osd_display_info_updatei+0x12>
    2714:	f0802703          	lw	a4,-248(zero) # ffffff08 <__ram_end+0xfffeff08>
    2718:	4785                	li	a5,1
    271a:	00f70363          	beq	a4,a5,2720 <_Z23osd_display_info_updatei+0x14>
    271e:	8082                	ret
    2720:	671d                	lui	a4,0x7
    2722:	b6472783          	lw	a5,-1180(a4) # 6b64 <_ZL16timer_wait_value>
    2726:	97aa                	add	a5,a5,a0
    2728:	b6f72223          	sw	a5,-1180(a4)
    272c:	fea059e3          	blez	a0,271e <_Z23osd_display_info_updatei+0x12>
    2730:	679d                	lui	a5,0x7
    2732:	4709                	li	a4,2
    2734:	b6e78023          	sb	a4,-1184(a5) # 6b60 <frame_counter>
    2738:	8082                	ret

0000273a <_Z18osd_display_timinghhh>:
    273a:	679d                	lui	a5,0x7
    273c:	b687a783          	lw	a5,-1176(a5) # 6b68 <_ZL12error_system>
    2740:	e791                	bnez	a5,274c <_Z18osd_display_timinghhh+0x12>
    2742:	f0802703          	lw	a4,-248(zero) # ffffff08 <__ram_end+0xfffeff08>
    2746:	4785                	li	a5,1
    2748:	00f70363          	beq	a4,a5,274e <_Z18osd_display_timinghhh+0x14>
    274c:	8082                	ret
    274e:	679d                	lui	a5,0x7
    2750:	b6a781a3          	sb	a0,-1181(a5) # 6b63 <nstore1>
    2754:	679d                	lui	a5,0x7
    2756:	b6b78123          	sb	a1,-1182(a5) # 6b62 <nstore2>
    275a:	679d                	lui	a5,0x7
    275c:	b6c780a3          	sb	a2,-1183(a5) # 6b61 <nstore3>
    2760:	8082                	ret

00002762 <_Z26osd_display_error_datasloti>:
    2762:	1141                	addi	sp,sp,-16
    2764:	c422                	sw	s0,8(sp)
    2766:	6591                	lui	a1,0x4
    2768:	641d                	lui	s0,0x7
    276a:	c226                	sw	s1,4(sp)
    276c:	862a                	mv	a2,a0
    276e:	84aa                	mv	s1,a0
    2770:	679d                	lui	a5,0x7
    2772:	4705                	li	a4,1
    2774:	56c58593          	addi	a1,a1,1388 # 456c <stream_vscanf+0xaa4>
    2778:	ae840513          	addi	a0,s0,-1304 # 6ae8 <s>
    277c:	c606                	sw	ra,12(sp)
    277e:	b6e7a423          	sw	a4,-1176(a5) # 6b68 <_ZL12error_system>
    2782:	234010ef          	jal	ra,39b6 <sprintf>
    2786:	4781                	li	a5,0
    2788:	02000713          	li	a4,32
    278c:	4681                	li	a3,0
    278e:	4601                	li	a2,0
    2790:	4581                	li	a1,0
    2792:	ae840513          	addi	a0,s0,-1304
    2796:	3b5d                	jal	254c <_Z8OsdWritePKchhcii>
    2798:	4501                	li	a0,0
    279a:	359d                	jal	2600 <_Z9OsdUpdatei>
    279c:	3bc1                	jal	256c <_Z8OsdClearv>
    279e:	6511                	lui	a0,0x4
    27a0:	4781                	li	a5,0
    27a2:	02000713          	li	a4,32
    27a6:	4681                	li	a3,0
    27a8:	4601                	li	a2,0
    27aa:	4581                	li	a1,0
    27ac:	58850513          	addi	a0,a0,1416 # 4588 <stream_vscanf+0xac0>
    27b0:	3b71                	jal	254c <_Z8OsdWritePKchhcii>
    27b2:	4505                	li	a0,1
    27b4:	35b1                	jal	2600 <_Z9OsdUpdatei>
    27b6:	3b5d                	jal	256c <_Z8OsdClearv>
    27b8:	6511                	lui	a0,0x4
    27ba:	4781                	li	a5,0
    27bc:	02000713          	li	a4,32
    27c0:	4681                	li	a3,0
    27c2:	4601                	li	a2,0
    27c4:	4581                	li	a1,0
    27c6:	5a850513          	addi	a0,a0,1448 # 45a8 <stream_vscanf+0xae0>
    27ca:	3349                	jal	254c <_Z8OsdWritePKchhcii>
    27cc:	4509                	li	a0,2
    27ce:	3d0d                	jal	2600 <_Z9OsdUpdatei>
    27d0:	3b71                	jal	256c <_Z8OsdClearv>
    27d2:	6511                	lui	a0,0x4
    27d4:	4781                	li	a5,0
    27d6:	02000713          	li	a4,32
    27da:	4681                	li	a3,0
    27dc:	4601                	li	a2,0
    27de:	4581                	li	a1,0
    27e0:	47050513          	addi	a0,a0,1136 # 4470 <stream_vscanf+0x9a8>
    27e4:	33a5                	jal	254c <_Z8OsdWritePKchhcii>
    27e6:	450d                	li	a0,3
    27e8:	3d21                	jal	2600 <_Z9OsdUpdatei>
    27ea:	3349                	jal	256c <_Z8OsdClearv>
    27ec:	6511                	lui	a0,0x4
    27ee:	4781                	li	a5,0
    27f0:	02000713          	li	a4,32
    27f4:	4681                	li	a3,0
    27f6:	4601                	li	a2,0
    27f8:	4581                	li	a1,0
    27fa:	49050513          	addi	a0,a0,1168 # 4490 <stream_vscanf+0x9c8>
    27fe:	d4fff0ef          	jal	ra,254c <_Z8OsdWritePKchhcii>
    2802:	4511                	li	a0,4
    2804:	3bf5                	jal	2600 <_Z9OsdUpdatei>
    2806:	339d                	jal	256c <_Z8OsdClearv>
    2808:	6511                	lui	a0,0x4
    280a:	4781                	li	a5,0
    280c:	02000713          	li	a4,32
    2810:	4681                	li	a3,0
    2812:	4601                	li	a2,0
    2814:	4581                	li	a1,0
    2816:	4b050513          	addi	a0,a0,1200 # 44b0 <stream_vscanf+0x9e8>
    281a:	d33ff0ef          	jal	ra,254c <_Z8OsdWritePKchhcii>
    281e:	4515                	li	a0,5
    2820:	33c5                	jal	2600 <_Z9OsdUpdatei>
    2822:	d4bff0ef          	jal	ra,256c <_Z8OsdClearv>
    2826:	6511                	lui	a0,0x4
    2828:	4781                	li	a5,0
    282a:	02000713          	li	a4,32
    282e:	4681                	li	a3,0
    2830:	4601                	li	a2,0
    2832:	4581                	li	a1,0
    2834:	4cc50513          	addi	a0,a0,1228 # 44cc <stream_vscanf+0xa04>
    2838:	d15ff0ef          	jal	ra,254c <_Z8OsdWritePKchhcii>
    283c:	4519                	li	a0,6
    283e:	33c9                	jal	2600 <_Z9OsdUpdatei>
    2840:	d2dff0ef          	jal	ra,256c <_Z8OsdClearv>
    2844:	6511                	lui	a0,0x4
    2846:	4781                	li	a5,0
    2848:	02000713          	li	a4,32
    284c:	4681                	li	a3,0
    284e:	4581                	li	a1,0
    2850:	4601                	li	a2,0
    2852:	4ec50513          	addi	a0,a0,1260 # 44ec <stream_vscanf+0xa24>
    2856:	cf7ff0ef          	jal	ra,254c <_Z8OsdWritePKchhcii>
    285a:	451d                	li	a0,7
    285c:	3355                	jal	2600 <_Z9OsdUpdatei>
    285e:	d0fff0ef          	jal	ra,256c <_Z8OsdClearv>
    2862:	6591                	lui	a1,0x4
    2864:	8626                	mv	a2,s1
    2866:	50c58593          	addi	a1,a1,1292 # 450c <stream_vscanf+0xa44>
    286a:	ae840513          	addi	a0,s0,-1304
    286e:	148010ef          	jal	ra,39b6 <sprintf>
    2872:	4781                	li	a5,0
    2874:	02000713          	li	a4,32
    2878:	4681                	li	a3,0
    287a:	4601                	li	a2,0
    287c:	4581                	li	a1,0
    287e:	ae840513          	addi	a0,s0,-1304
    2882:	ccbff0ef          	jal	ra,254c <_Z8OsdWritePKchhcii>
    2886:	4521                	li	a0,8
    2888:	3ba5                	jal	2600 <_Z9OsdUpdatei>
    288a:	ce3ff0ef          	jal	ra,256c <_Z8OsdClearv>
    288e:	6511                	lui	a0,0x4
    2890:	4781                	li	a5,0
    2892:	02000713          	li	a4,32
    2896:	4681                	li	a3,0
    2898:	4601                	li	a2,0
    289a:	4581                	li	a1,0
    289c:	52c50513          	addi	a0,a0,1324 # 452c <stream_vscanf+0xa64>
    28a0:	cadff0ef          	jal	ra,254c <_Z8OsdWritePKchhcii>
    28a4:	4525                	li	a0,9
    28a6:	3ba9                	jal	2600 <_Z9OsdUpdatei>
    28a8:	cc5ff0ef          	jal	ra,256c <_Z8OsdClearv>
    28ac:	4422                	lw	s0,8(sp)
    28ae:	40b2                	lw	ra,12(sp)
    28b0:	4492                	lw	s1,4(sp)
    28b2:	67c1                	lui	a5,0x10
    28b4:	17fd                	addi	a5,a5,-1 # ffff <sector_buffer1+0x3fff>
    28b6:	0c000713          	li	a4,192
    28ba:	46a9                	li	a3,10
    28bc:	4679                	li	a2,30
    28be:	05000593          	li	a1,80
    28c2:	4515                	li	a0,5
    28c4:	0141                	addi	sp,sp,16
    28c6:	cbfff06f          	j	2584 <_Z10InfoEnableiiiiii>

000028ca <riscputchar>:
    28ca:	fc002783          	lw	a5,-64(zero) # ffffffc0 <__ram_end+0xfffeffc0>
    28ce:	1007f793          	andi	a5,a5,256
    28d2:	ffe5                	bnez	a5,28ca <riscputchar>
    28d4:	fca02023          	sw	a0,-64(zero) # ffffffc0 <__ram_end+0xfffeffc0>
    28d8:	8082                	ret

000028da <SetUART>:
    28da:	0a100793          	li	a5,161
    28de:	f8f02a23          	sw	a5,-108(zero) # ffffff94 <__ram_end+0xfffeff94>
    28e2:	8082                	ret

000028e4 <_handle_trap>:
    28e4:	6511                	lui	a0,0x4
    28e6:	5c850513          	addi	a0,a0,1480 # 45c8 <stream_vscanf+0xb00>
    28ea:	a1a9                	j	2d34 <riscprintf_>

000028ec <_Z17DisableInterruptsv>:
    28ec:	fe002a23          	sw	zero,-12(zero) # fffffff4 <__ram_end+0xfffefff4>
    28f0:	8082                	ret

000028f2 <_ZL9_out_charcPvjj>:
    28f2:	e111                	bnez	a0,28f6 <_ZL9_out_charcPvjj+0x4>
    28f4:	8082                	ret
    28f6:	bfd1                	j	28ca <riscputchar>

000028f8 <_ZL10_ntoa_longPFvcPvjjEPcjjmbmjjj.constprop.0>:
    28f8:	715d                	addi	sp,sp,-80
    28fa:	4346                	lw	t1,80(sp)
    28fc:	c0ca                	sw	s2,64(sp)
    28fe:	de4e                	sw	s3,60(sp)
    2900:	dc52                	sw	s4,56(sp)
    2902:	da56                	sw	s5,52(sp)
    2904:	c686                	sw	ra,76(sp)
    2906:	c4a2                	sw	s0,72(sp)
    2908:	c2a6                	sw	s1,68(sp)
    290a:	d85a                	sw	s6,48(sp)
    290c:	d65e                	sw	s7,44(sp)
    290e:	d462                	sw	s8,40(sp)
    2910:	892a                	mv	s2,a0
    2912:	89ae                	mv	s3,a1
    2914:	8a32                	mv	s4,a2
    2916:	8ac6                	mv	s5,a7
    2918:	40037f13          	andi	t5,t1,1024
    291c:	cac5                	beqz	a3,29cc <_ZL10_ntoa_longPFvcPvjjEPcjjmbmjjj.constprop.0+0xd4>
    291e:	01037f93          	andi	t6,t1,16
    2922:	8e9a                	mv	t4,t1
    2924:	020ef613          	andi	a2,t4,32
    2928:	06100513          	li	a0,97
    292c:	12061263          	bnez	a2,2a50 <_ZL10_ntoa_longPFvcPvjjEPcjjmbmjjj.constprop.0+0x158>
    2930:	4401                	li	s0,0
    2932:	848a                	mv	s1,sp
    2934:	48a5                	li	a7,9
    2936:	1559                	addi	a0,a0,-10
    2938:	02000e13          	li	t3,32
    293c:	a021                	j	2944 <_ZL10_ntoa_longPFvcPvjjEPcjjmbmjjj.constprop.0+0x4c>
    293e:	03c40963          	beq	s0,t3,2970 <_ZL10_ntoa_longPFvcPvjjEPcjjmbmjjj.constprop.0+0x78>
    2942:	86b2                	mv	a3,a2
    2944:	02f6f633          	remu	a2,a3,a5
    2948:	0ff67313          	zext.b	t1,a2
    294c:	03030593          	addi	a1,t1,48
    2950:	932a                	add	t1,t1,a0
    2952:	0ff37313          	zext.b	t1,t1
    2956:	00c8e463          	bltu	a7,a2,295e <_ZL10_ntoa_longPFvcPvjjEPcjjmbmjjj.constprop.0+0x66>
    295a:	0ff5f313          	zext.b	t1,a1
    295e:	0405                	addi	s0,s0,1
    2960:	00848633          	add	a2,s1,s0
    2964:	fe660fa3          	sb	t1,-1(a2)
    2968:	02f6d633          	divu	a2,a3,a5
    296c:	fcf6f9e3          	bgeu	a3,a5,293e <_ZL10_ntoa_longPFvcPvjjEPcjjmbmjjj.constprop.0+0x46>
    2970:	002efb93          	andi	s7,t4,2
    2974:	060b8863          	beqz	s7,29e4 <_ZL10_ntoa_longPFvcPvjjEPcjjmbmjjj.constprop.0+0xec>
    2978:	003ef313          	andi	t1,t4,3
    297c:	100f8d63          	beqz	t6,2a96 <_ZL10_ntoa_longPFvcPvjjEPcjjmbmjjj.constprop.0+0x19e>
    2980:	1e0f1163          	bnez	t5,2b62 <_ZL10_ntoa_longPFvcPvjjEPcjjmbmjjj.constprop.0+0x26a>
    2984:	22041563          	bnez	s0,2bae <_ZL10_ntoa_longPFvcPvjjEPcjjmbmjjj.constprop.0+0x2b6>
    2988:	46c1                	li	a3,16
    298a:	30d78963          	beq	a5,a3,2c9c <_ZL10_ntoa_longPFvcPvjjEPcjjmbmjjj.constprop.0+0x3a4>
    298e:	4689                	li	a3,2
    2990:	32d78763          	beq	a5,a3,2cbe <_ZL10_ntoa_longPFvcPvjjEPcjjmbmjjj.constprop.0+0x3c6>
    2994:	03000793          	li	a5,48
    2998:	00f10023          	sb	a5,0(sp)
    299c:	4685                	li	a3,1
    299e:	003ef313          	andi	t1,t4,3
    29a2:	1e071163          	bnez	a4,2b84 <_ZL10_ntoa_longPFvcPvjjEPcjjmbmjjj.constprop.0+0x28c>
    29a6:	004ef793          	andi	a5,t4,4
    29aa:	28078b63          	beqz	a5,2c40 <_ZL10_ntoa_longPFvcPvjjEPcjjmbmjjj.constprop.0+0x348>
    29ae:	02068793          	addi	a5,a3,32
    29b2:	978a                	add	a5,a5,sp
    29b4:	02b00713          	li	a4,43
    29b8:	00168413          	addi	s0,a3,1
    29bc:	fee78023          	sb	a4,-32(a5)
    29c0:	8b52                	mv	s6,s4
    29c2:	10031d63          	bnez	t1,2adc <_ZL10_ntoa_longPFvcPvjjEPcjjmbmjjj.constprop.0+0x1e4>
    29c6:	0f546063          	bltu	s0,s5,2aa6 <_ZL10_ntoa_longPFvcPvjjEPcjjmbmjjj.constprop.0+0x1ae>
    29ca:	aa09                	j	2adc <_ZL10_ntoa_longPFvcPvjjEPcjjmbmjjj.constprop.0+0x1e4>
    29cc:	fef37e93          	andi	t4,t1,-17
    29d0:	160f0263          	beqz	t5,2b34 <_ZL10_ntoa_longPFvcPvjjEPcjjmbmjjj.constprop.0+0x23c>
    29d4:	00237b93          	andi	s7,t1,2
    29d8:	00337313          	andi	t1,t1,3
    29dc:	fc0b93e3          	bnez	s7,29a2 <_ZL10_ntoa_longPFvcPvjjEPcjjmbmjjj.constprop.0+0xaa>
    29e0:	4f81                	li	t6,0
    29e2:	4401                	li	s0,0
    29e4:	140a9a63          	bnez	s5,2b38 <_ZL10_ntoa_longPFvcPvjjEPcjjmbmjjj.constprop.0+0x240>
    29e8:	05047e63          	bgeu	s0,a6,2a44 <_ZL10_ntoa_longPFvcPvjjEPcjjmbmjjj.constprop.0+0x14c>
    29ec:	02000693          	li	a3,32
    29f0:	001efb93          	andi	s7,t4,1
    29f4:	2cd40f63          	beq	s0,a3,2cd2 <_ZL10_ntoa_longPFvcPvjjEPcjjmbmjjj.constprop.0+0x3da>
    29f8:	848a                	mv	s1,sp
    29fa:	03000613          	li	a2,48
    29fe:	02000593          	li	a1,32
    2a02:	a019                	j	2a08 <_ZL10_ntoa_longPFvcPvjjEPcjjmbmjjj.constprop.0+0x110>
    2a04:	04b40963          	beq	s0,a1,2a56 <_ZL10_ntoa_longPFvcPvjjEPcjjmbmjjj.constprop.0+0x15e>
    2a08:	0405                	addi	s0,s0,1
    2a0a:	008486b3          	add	a3,s1,s0
    2a0e:	fec68fa3          	sb	a2,-1(a3)
    2a12:	ff0469e3          	bltu	s0,a6,2a04 <_ZL10_ntoa_longPFvcPvjjEPcjjmbmjjj.constprop.0+0x10c>
    2a16:	f60b81e3          	beqz	s7,2978 <_ZL10_ntoa_longPFvcPvjjEPcjjmbmjjj.constprop.0+0x80>
    2a1a:	03547563          	bgeu	s0,s5,2a44 <_ZL10_ntoa_longPFvcPvjjEPcjjmbmjjj.constprop.0+0x14c>
    2a1e:	02000693          	li	a3,32
    2a22:	848a                	mv	s1,sp
    2a24:	03000613          	li	a2,48
    2a28:	02000593          	li	a1,32
    2a2c:	00d41563          	bne	s0,a3,2a36 <_ZL10_ntoa_longPFvcPvjjEPcjjmbmjjj.constprop.0+0x13e>
    2a30:	a03d                	j	2a5e <_ZL10_ntoa_longPFvcPvjjEPcjjmbmjjj.constprop.0+0x166>
    2a32:	1cb40f63          	beq	s0,a1,2c10 <_ZL10_ntoa_longPFvcPvjjEPcjjmbmjjj.constprop.0+0x318>
    2a36:	0405                	addi	s0,s0,1
    2a38:	008486b3          	add	a3,s1,s0
    2a3c:	fec68fa3          	sb	a2,-1(a3)
    2a40:	ff5419e3          	bne	s0,s5,2a32 <_ZL10_ntoa_longPFvcPvjjEPcjjmbmjjj.constprop.0+0x13a>
    2a44:	4b81                	li	s7,0
    2a46:	003ef313          	andi	t1,t4,3
    2a4a:	f20f9be3          	bnez	t6,2980 <_ZL10_ntoa_longPFvcPvjjEPcjjmbmjjj.constprop.0+0x88>
    2a4e:	a0a1                	j	2a96 <_ZL10_ntoa_longPFvcPvjjEPcjjmbmjjj.constprop.0+0x19e>
    2a50:	04100513          	li	a0,65
    2a54:	bdf1                	j	2930 <_ZL10_ntoa_longPFvcPvjjEPcjjmbmjjj.constprop.0+0x38>
    2a56:	2c0b8463          	beqz	s7,2d1e <_ZL10_ntoa_longPFvcPvjjEPcjjmbmjjj.constprop.0+0x426>
    2a5a:	1b547b63          	bgeu	s0,s5,2c10 <_ZL10_ntoa_longPFvcPvjjEPcjjmbmjjj.constprop.0+0x318>
    2a5e:	1e0f8c63          	beqz	t6,2c56 <_ZL10_ntoa_longPFvcPvjjEPcjjmbmjjj.constprop.0+0x35e>
    2a62:	1a0f1b63          	bnez	t5,2c18 <_ZL10_ntoa_longPFvcPvjjEPcjjmbmjjj.constprop.0+0x320>
    2a66:	02000693          	li	a3,32
    2a6a:	4b81                	li	s7,0
    2a6c:	02000413          	li	s0,32
    2a70:	14d81163          	bne	a6,a3,2bb2 <_ZL10_ntoa_longPFvcPvjjEPcjjmbmjjj.constprop.0+0x2ba>
    2a74:	46fd                	li	a3,31
    2a76:	4641                	li	a2,16
    2a78:	26c78763          	beq	a5,a2,2ce6 <_ZL10_ntoa_longPFvcPvjjEPcjjmbmjjj.constprop.0+0x3ee>
    2a7c:	4609                	li	a2,2
    2a7e:	003ef313          	andi	t1,t4,3
    2a82:	16c78863          	beq	a5,a2,2bf2 <_ZL10_ntoa_longPFvcPvjjEPcjjmbmjjj.constprop.0+0x2fa>
    2a86:	02068793          	addi	a5,a3,32
    2a8a:	002786b3          	add	a3,a5,sp
    2a8e:	03000793          	li	a5,48
    2a92:	fef68023          	sb	a5,-32(a3)
    2a96:	02000793          	li	a5,32
    2a9a:	16f41563          	bne	s0,a5,2c04 <_ZL10_ntoa_longPFvcPvjjEPcjjmbmjjj.constprop.0+0x30c>
    2a9e:	0e031163          	bnez	t1,2b80 <_ZL10_ntoa_longPFvcPvjjEPcjjmbmjjj.constprop.0+0x288>
    2aa2:	0d547f63          	bgeu	s0,s5,2b80 <_ZL10_ntoa_longPFvcPvjjEPcjjmbmjjj.constprop.0+0x288>
    2aa6:	84d2                	mv	s1,s4
    2aa8:	41440b33          	sub	s6,s0,s4
    2aac:	8626                	mv	a2,s1
    2aae:	56fd                	li	a3,-1
    2ab0:	85ce                	mv	a1,s3
    2ab2:	02000513          	li	a0,32
    2ab6:	0485                	addi	s1,s1,1
    2ab8:	9902                	jalr	s2
    2aba:	009b07b3          	add	a5,s6,s1
    2abe:	ff57e7e3          	bltu	a5,s5,2aac <_ZL10_ntoa_longPFvcPvjjEPcjjmbmjjj.constprop.0+0x1b4>
    2ac2:	00140793          	addi	a5,s0,1
    2ac6:	4b01                	li	s6,0
    2ac8:	00fae663          	bltu	s5,a5,2ad4 <_ZL10_ntoa_longPFvcPvjjEPcjjmbmjjj.constprop.0+0x1dc>
    2acc:	fffa8b13          	addi	s6,s5,-1
    2ad0:	408b0b33          	sub	s6,s6,s0
    2ad4:	001a0793          	addi	a5,s4,1
    2ad8:	9b3e                	add	s6,s6,a5
    2ada:	c005                	beqz	s0,2afa <_ZL10_ntoa_longPFvcPvjjEPcjjmbmjjj.constprop.0+0x202>
    2adc:	848a                	mv	s1,sp
    2ade:	008b0c33          	add	s8,s6,s0
    2ae2:	008487b3          	add	a5,s1,s0
    2ae6:	fff7c503          	lbu	a0,-1(a5)
    2aea:	408c0633          	sub	a2,s8,s0
    2aee:	56fd                	li	a3,-1
    2af0:	147d                	addi	s0,s0,-1
    2af2:	85ce                	mv	a1,s3
    2af4:	8b62                	mv	s6,s8
    2af6:	9902                	jalr	s2
    2af8:	f46d                	bnez	s0,2ae2 <_ZL10_ntoa_longPFvcPvjjEPcjjmbmjjj.constprop.0+0x1ea>
    2afa:	020b8063          	beqz	s7,2b1a <_ZL10_ntoa_longPFvcPvjjEPcjjmbmjjj.constprop.0+0x222>
    2afe:	414b0a33          	sub	s4,s6,s4
    2b02:	015a7c63          	bgeu	s4,s5,2b1a <_ZL10_ntoa_longPFvcPvjjEPcjjmbmjjj.constprop.0+0x222>
    2b06:	865a                	mv	a2,s6
    2b08:	0a05                	addi	s4,s4,1
    2b0a:	56fd                	li	a3,-1
    2b0c:	85ce                	mv	a1,s3
    2b0e:	02000513          	li	a0,32
    2b12:	0b05                	addi	s6,s6,1
    2b14:	9902                	jalr	s2
    2b16:	ff5a68e3          	bltu	s4,s5,2b06 <_ZL10_ntoa_longPFvcPvjjEPcjjmbmjjj.constprop.0+0x20e>
    2b1a:	40b6                	lw	ra,76(sp)
    2b1c:	4426                	lw	s0,72(sp)
    2b1e:	4496                	lw	s1,68(sp)
    2b20:	4906                	lw	s2,64(sp)
    2b22:	59f2                	lw	s3,60(sp)
    2b24:	5a62                	lw	s4,56(sp)
    2b26:	5ad2                	lw	s5,52(sp)
    2b28:	5bb2                	lw	s7,44(sp)
    2b2a:	5c22                	lw	s8,40(sp)
    2b2c:	855a                	mv	a0,s6
    2b2e:	5b42                	lw	s6,48(sp)
    2b30:	6161                	addi	sp,sp,80
    2b32:	8082                	ret
    2b34:	4f81                	li	t6,0
    2b36:	b3fd                	j	2924 <_ZL10_ntoa_longPFvcPvjjEPcjjmbmjjj.constprop.0+0x2c>
    2b38:	001efb93          	andi	s7,t4,1
    2b3c:	040b8e63          	beqz	s7,2b98 <_ZL10_ntoa_longPFvcPvjjEPcjjmbmjjj.constprop.0+0x2a0>
    2b40:	e771                	bnez	a4,2c0c <_ZL10_ntoa_longPFvcPvjjEPcjjmbmjjj.constprop.0+0x314>
    2b42:	00cef693          	andi	a3,t4,12
    2b46:	e2f9                	bnez	a3,2c0c <_ZL10_ntoa_longPFvcPvjjEPcjjmbmjjj.constprop.0+0x314>
    2b48:	ed0479e3          	bgeu	s0,a6,2a1a <_ZL10_ntoa_longPFvcPvjjEPcjjmbmjjj.constprop.0+0x122>
    2b4c:	02000693          	li	a3,32
    2b50:	ead414e3          	bne	s0,a3,29f8 <_ZL10_ntoa_longPFvcPvjjEPcjjmbmjjj.constprop.0+0x100>
    2b54:	f15465e3          	bltu	s0,s5,2a5e <_ZL10_ntoa_longPFvcPvjjEPcjjmbmjjj.constprop.0+0x166>
    2b58:	1c0f8a63          	beqz	t6,2d2c <_ZL10_ntoa_longPFvcPvjjEPcjjmbmjjj.constprop.0+0x434>
    2b5c:	4b81                	li	s7,0
    2b5e:	e20f03e3          	beqz	t5,2984 <_ZL10_ntoa_longPFvcPvjjEPcjjmbmjjj.constprop.0+0x8c>
    2b62:	46c1                	li	a3,16
    2b64:	003ef313          	andi	t1,t4,3
    2b68:	0ad78c63          	beq	a5,a3,2c20 <_ZL10_ntoa_longPFvcPvjjEPcjjmbmjjj.constprop.0+0x328>
    2b6c:	4689                	li	a3,2
    2b6e:	06d78c63          	beq	a5,a3,2be6 <_ZL10_ntoa_longPFvcPvjjEPcjjmbmjjj.constprop.0+0x2ee>
    2b72:	02000793          	li	a5,32
    2b76:	f2f404e3          	beq	s0,a5,2a9e <_ZL10_ntoa_longPFvcPvjjEPcjjmbmjjj.constprop.0+0x1a6>
    2b7a:	86a2                	mv	a3,s0
    2b7c:	0405                	addi	s0,s0,1
    2b7e:	b721                	j	2a86 <_ZL10_ntoa_longPFvcPvjjEPcjjmbmjjj.constprop.0+0x18e>
    2b80:	8b52                	mv	s6,s4
    2b82:	bfa9                	j	2adc <_ZL10_ntoa_longPFvcPvjjEPcjjmbmjjj.constprop.0+0x1e4>
    2b84:	02068793          	addi	a5,a3,32
    2b88:	978a                	add	a5,a5,sp
    2b8a:	02d00713          	li	a4,45
    2b8e:	00168413          	addi	s0,a3,1
    2b92:	fee78023          	sb	a4,-32(a5)
    2b96:	b52d                	j	29c0 <_ZL10_ntoa_longPFvcPvjjEPcjjmbmjjj.constprop.0+0xc8>
    2b98:	df0470e3          	bgeu	s0,a6,2978 <_ZL10_ntoa_longPFvcPvjjEPcjjmbmjjj.constprop.0+0x80>
    2b9c:	02000693          	li	a3,32
    2ba0:	e4d41ce3          	bne	s0,a3,29f8 <_ZL10_ntoa_longPFvcPvjjEPcjjmbmjjj.constprop.0+0x100>
    2ba4:	180f8463          	beqz	t6,2d2c <_ZL10_ntoa_longPFvcPvjjEPcjjmbmjjj.constprop.0+0x434>
    2ba8:	4b81                	li	s7,0
    2baa:	fa0f1ce3          	bnez	t5,2b62 <_ZL10_ntoa_longPFvcPvjjEPcjjmbmjjj.constprop.0+0x26a>
    2bae:	00880463          	beq	a6,s0,2bb6 <_ZL10_ntoa_longPFvcPvjjEPcjjmbmjjj.constprop.0+0x2be>
    2bb2:	fa8a98e3          	bne	s5,s0,2b62 <_ZL10_ntoa_longPFvcPvjjEPcjjmbmjjj.constprop.0+0x26a>
    2bb6:	fff40693          	addi	a3,s0,-1
    2bba:	ea069ee3          	bnez	a3,2a76 <_ZL10_ntoa_longPFvcPvjjEPcjjmbmjjj.constprop.0+0x17e>
    2bbe:	46c1                	li	a3,16
    2bc0:	10d78c63          	beq	a5,a3,2cd8 <_ZL10_ntoa_longPFvcPvjjEPcjjmbmjjj.constprop.0+0x3e0>
    2bc4:	4689                	li	a3,2
    2bc6:	dcd797e3          	bne	a5,a3,2994 <_ZL10_ntoa_longPFvcPvjjEPcjjmbmjjj.constprop.0+0x9c>
    2bca:	06200793          	li	a5,98
    2bce:	00f10023          	sb	a5,0(sp)
    2bd2:	03000793          	li	a5,48
    2bd6:	00f100a3          	sb	a5,1(sp)
    2bda:	4689                	li	a3,2
    2bdc:	003ef313          	andi	t1,t4,3
    2be0:	dc0703e3          	beqz	a4,29a6 <_ZL10_ntoa_longPFvcPvjjEPcjjmbmjjj.constprop.0+0xae>
    2be4:	b745                	j	2b84 <_ZL10_ntoa_longPFvcPvjjEPcjjmbmjjj.constprop.0+0x28c>
    2be6:	02000793          	li	a5,32
    2bea:	eaf40ae3          	beq	s0,a5,2a9e <_ZL10_ntoa_longPFvcPvjjEPcjjmbmjjj.constprop.0+0x1a6>
    2bee:	86a2                	mv	a3,s0
    2bf0:	0405                	addi	s0,s0,1
    2bf2:	02068793          	addi	a5,a3,32
    2bf6:	002786b3          	add	a3,a5,sp
    2bfa:	06200793          	li	a5,98
    2bfe:	fef68023          	sb	a5,-32(a3)
    2c02:	bf85                	j	2b72 <_ZL10_ntoa_longPFvcPvjjEPcjjmbmjjj.constprop.0+0x27a>
    2c04:	86a2                	mv	a3,s0
    2c06:	da0700e3          	beqz	a4,29a6 <_ZL10_ntoa_longPFvcPvjjEPcjjmbmjjj.constprop.0+0xae>
    2c0a:	bfad                	j	2b84 <_ZL10_ntoa_longPFvcPvjjEPcjjmbmjjj.constprop.0+0x28c>
    2c0c:	1afd                	addi	s5,s5,-1
    2c0e:	bf2d                	j	2b48 <_ZL10_ntoa_longPFvcPvjjEPcjjmbmjjj.constprop.0+0x250>
    2c10:	040f8363          	beqz	t6,2c56 <_ZL10_ntoa_longPFvcPvjjEPcjjmbmjjj.constprop.0+0x35e>
    2c14:	060f0e63          	beqz	t5,2c90 <_ZL10_ntoa_longPFvcPvjjEPcjjmbmjjj.constprop.0+0x398>
    2c18:	4b81                	li	s7,0
    2c1a:	02000413          	li	s0,32
    2c1e:	b791                	j	2b62 <_ZL10_ntoa_longPFvcPvjjEPcjjmbmjjj.constprop.0+0x26a>
    2c20:	020ef793          	andi	a5,t4,32
    2c24:	cf9d                	beqz	a5,2c62 <_ZL10_ntoa_longPFvcPvjjEPcjjmbmjjj.constprop.0+0x36a>
    2c26:	02000793          	li	a5,32
    2c2a:	e6f40ae3          	beq	s0,a5,2a9e <_ZL10_ntoa_longPFvcPvjjEPcjjmbmjjj.constprop.0+0x1a6>
    2c2e:	02040793          	addi	a5,s0,32
    2c32:	978a                	add	a5,a5,sp
    2c34:	05800693          	li	a3,88
    2c38:	fed78023          	sb	a3,-32(a5)
    2c3c:	0405                	addi	s0,s0,1
    2c3e:	bf15                	j	2b72 <_ZL10_ntoa_longPFvcPvjjEPcjjmbmjjj.constprop.0+0x27a>
    2c40:	008efe93          	andi	t4,t4,8
    2c44:	020e9c63          	bnez	t4,2c7c <_ZL10_ntoa_longPFvcPvjjEPcjjmbmjjj.constprop.0+0x384>
    2c48:	8436                	mv	s0,a3
    2c4a:	00031463          	bnez	t1,2c52 <_ZL10_ntoa_longPFvcPvjjEPcjjmbmjjj.constprop.0+0x35a>
    2c4e:	e556ece3          	bltu	a3,s5,2aa6 <_ZL10_ntoa_longPFvcPvjjEPcjjmbmjjj.constprop.0+0x1ae>
    2c52:	8b52                	mv	s6,s4
    2c54:	b559                	j	2ada <_ZL10_ntoa_longPFvcPvjjEPcjjmbmjjj.constprop.0+0x1e2>
    2c56:	4b81                	li	s7,0
    2c58:	02000413          	li	s0,32
    2c5c:	003ef313          	andi	t1,t4,3
    2c60:	bd3d                	j	2a9e <_ZL10_ntoa_longPFvcPvjjEPcjjmbmjjj.constprop.0+0x1a6>
    2c62:	02000793          	li	a5,32
    2c66:	e2f40ce3          	beq	s0,a5,2a9e <_ZL10_ntoa_longPFvcPvjjEPcjjmbmjjj.constprop.0+0x1a6>
    2c6a:	02040793          	addi	a5,s0,32
    2c6e:	978a                	add	a5,a5,sp
    2c70:	07800693          	li	a3,120
    2c74:	fed78023          	sb	a3,-32(a5)
    2c78:	0405                	addi	s0,s0,1
    2c7a:	bde5                	j	2b72 <_ZL10_ntoa_longPFvcPvjjEPcjjmbmjjj.constprop.0+0x27a>
    2c7c:	02068793          	addi	a5,a3,32
    2c80:	978a                	add	a5,a5,sp
    2c82:	02000713          	li	a4,32
    2c86:	00168413          	addi	s0,a3,1
    2c8a:	fee78023          	sb	a4,-32(a5)
    2c8e:	bb0d                	j	29c0 <_ZL10_ntoa_longPFvcPvjjEPcjjmbmjjj.constprop.0+0xc8>
    2c90:	02000413          	li	s0,32
    2c94:	4b81                	li	s7,0
    2c96:	f0881ee3          	bne	a6,s0,2bb2 <_ZL10_ntoa_longPFvcPvjjEPcjjmbmjjj.constprop.0+0x2ba>
    2c9a:	bf31                	j	2bb6 <_ZL10_ntoa_longPFvcPvjjEPcjjmbmjjj.constprop.0+0x2be>
    2c9c:	020ef793          	andi	a5,t4,32
    2ca0:	c785                	beqz	a5,2cc8 <_ZL10_ntoa_longPFvcPvjjEPcjjmbmjjj.constprop.0+0x3d0>
    2ca2:	05800793          	li	a5,88
    2ca6:	00f10023          	sb	a5,0(sp)
    2caa:	03000793          	li	a5,48
    2cae:	00f100a3          	sb	a5,1(sp)
    2cb2:	4689                	li	a3,2
    2cb4:	003ef313          	andi	t1,t4,3
    2cb8:	ce0707e3          	beqz	a4,29a6 <_ZL10_ntoa_longPFvcPvjjEPcjjmbmjjj.constprop.0+0xae>
    2cbc:	b5e1                	j	2b84 <_ZL10_ntoa_longPFvcPvjjEPcjjmbmjjj.constprop.0+0x28c>
    2cbe:	06200793          	li	a5,98
    2cc2:	00f10023          	sb	a5,0(sp)
    2cc6:	b7d5                	j	2caa <_ZL10_ntoa_longPFvcPvjjEPcjjmbmjjj.constprop.0+0x3b2>
    2cc8:	07800793          	li	a5,120
    2ccc:	00f10023          	sb	a5,0(sp)
    2cd0:	bfe9                	j	2caa <_ZL10_ntoa_longPFvcPvjjEPcjjmbmjjj.constprop.0+0x3b2>
    2cd2:	e80b93e3          	bnez	s7,2b58 <_ZL10_ntoa_longPFvcPvjjEPcjjmbmjjj.constprop.0+0x260>
    2cd6:	b5f9                	j	2ba4 <_ZL10_ntoa_longPFvcPvjjEPcjjmbmjjj.constprop.0+0x2ac>
    2cd8:	fffec793          	not	a5,t4
    2cdc:	0207f793          	andi	a5,a5,32
    2ce0:	05878793          	addi	a5,a5,88
    2ce4:	b5ed                	j	2bce <_ZL10_ntoa_longPFvcPvjjEPcjjmbmjjj.constprop.0+0x2d6>
    2ce6:	020ef793          	andi	a5,t4,32
    2cea:	1479                	addi	s0,s0,-2
    2cec:	ef89                	bnez	a5,2d06 <_ZL10_ntoa_longPFvcPvjjEPcjjmbmjjj.constprop.0+0x40e>
    2cee:	02040793          	addi	a5,s0,32
    2cf2:	00278433          	add	s0,a5,sp
    2cf6:	07800793          	li	a5,120
    2cfa:	fef40023          	sb	a5,-32(s0)
    2cfe:	003ef313          	andi	t1,t4,3
    2d02:	8436                	mv	s0,a3
    2d04:	bd9d                	j	2b7a <_ZL10_ntoa_longPFvcPvjjEPcjjmbmjjj.constprop.0+0x282>
    2d06:	02040793          	addi	a5,s0,32
    2d0a:	00278433          	add	s0,a5,sp
    2d0e:	05800793          	li	a5,88
    2d12:	fef40023          	sb	a5,-32(s0)
    2d16:	003ef313          	andi	t1,t4,3
    2d1a:	8436                	mv	s0,a3
    2d1c:	bdb9                	j	2b7a <_ZL10_ntoa_longPFvcPvjjEPcjjmbmjjj.constprop.0+0x282>
    2d1e:	f20f8fe3          	beqz	t6,2c5c <_ZL10_ntoa_longPFvcPvjjEPcjjmbmjjj.constprop.0+0x364>
    2d22:	e40f10e3          	bnez	t5,2b62 <_ZL10_ntoa_longPFvcPvjjEPcjjmbmjjj.constprop.0+0x26a>
    2d26:	e28a9ee3          	bne	s5,s0,2b62 <_ZL10_ntoa_longPFvcPvjjEPcjjmbmjjj.constprop.0+0x26a>
    2d2a:	b571                	j	2bb6 <_ZL10_ntoa_longPFvcPvjjEPcjjmbmjjj.constprop.0+0x2be>
    2d2c:	4b81                	li	s7,0
    2d2e:	003ef313          	andi	t1,t4,3
    2d32:	b3b5                	j	2a9e <_ZL10_ntoa_longPFvcPvjjEPcjjmbmjjj.constprop.0+0x1a6>

00002d34 <riscprintf_>:
    2d34:	7175                	addi	sp,sp,-144
    2d36:	cece                	sw	s3,92(sp)
    2d38:	c6de                	sw	s7,76(sp)
    2d3a:	d686                	sw	ra,108(sp)
    2d3c:	d4a2                	sw	s0,104(sp)
    2d3e:	d2a6                	sw	s1,100(sp)
    2d40:	d0ca                	sw	s2,96(sp)
    2d42:	ccd2                	sw	s4,88(sp)
    2d44:	cad6                	sw	s5,84(sp)
    2d46:	c8da                	sw	s6,80(sp)
    2d48:	c4e2                	sw	s8,72(sp)
    2d4a:	c2e6                	sw	s9,68(sp)
    2d4c:	c0ea                	sw	s10,64(sp)
    2d4e:	de6e                	sw	s11,60(sp)
    2d50:	daae                	sw	a1,116(sp)
    2d52:	dcb2                	sw	a2,120(sp)
    2d54:	deb6                	sw	a3,124(sp)
    2d56:	c13a                	sw	a4,128(sp)
    2d58:	c33e                	sw	a5,132(sp)
    2d5a:	c542                	sw	a6,136(sp)
    2d5c:	c746                	sw	a7,140(sp)
    2d5e:	8baa                	mv	s7,a0
    2d60:	00054503          	lbu	a0,0(a0)
    2d64:	07410993          	addi	s3,sp,116
    2d68:	d64e                	sw	s3,44(sp)
    2d6a:	42050163          	beqz	a0,318c <riscprintf_+0x458>
    2d6e:	001217b7          	lui	a5,0x121
    2d72:	6911                	lui	s2,0x4
    2d74:	82178793          	addi	a5,a5,-2015 # 120821 <__ram_end+0x110821>
    2d78:	4b01                	li	s6,0
    2d7a:	1024                	addi	s1,sp,40
    2d7c:	02500a13          	li	s4,37
    2d80:	4441                	li	s0,16
    2d82:	5dc90913          	addi	s2,s2,1500 # 45dc <stream_vscanf+0xb14>
    2d86:	4aa5                	li	s5,9
    2d88:	ca3e                	sw	a5,20(sp)
    2d8a:	a811                	j	2d9e <riscprintf_+0x6a>
    2d8c:	865a                	mv	a2,s6
    2d8e:	56fd                	li	a3,-1
    2d90:	85a6                	mv	a1,s1
    2d92:	0b05                	addi	s6,s6,1
    2d94:	b5fff0ef          	jal	ra,28f2 <_ZL9_out_charcPvjj>
    2d98:	000bc503          	lbu	a0,0(s7)
    2d9c:	c579                	beqz	a0,2e6a <riscprintf_+0x136>
    2d9e:	0b85                	addi	s7,s7,1
    2da0:	ff4516e3          	bne	a0,s4,2d8c <riscprintf_+0x58>
    2da4:	4c01                	li	s8,0
    2da6:	000bc503          	lbu	a0,0(s7)
    2daa:	001b8713          	addi	a4,s7,1
    2dae:	fe050793          	addi	a5,a0,-32
    2db2:	0ff7f793          	zext.b	a5,a5
    2db6:	00f46663          	bltu	s0,a5,2dc2 <riscprintf_+0x8e>
    2dba:	078a                	slli	a5,a5,0x2
    2dbc:	97ca                	add	a5,a5,s2
    2dbe:	439c                	lw	a5,0(a5)
    2dc0:	8782                	jr	a5
    2dc2:	fd050793          	addi	a5,a0,-48
    2dc6:	0ff7f793          	zext.b	a5,a5
    2dca:	1cfaf263          	bgeu	s5,a5,2f8e <riscprintf_+0x25a>
    2dce:	02a00793          	li	a5,42
    2dd2:	4d81                	li	s11,0
    2dd4:	22f50b63          	beq	a0,a5,300a <riscprintf_+0x2d6>
    2dd8:	02e00793          	li	a5,46
    2ddc:	4d01                	li	s10,0
    2dde:	1cf50f63          	beq	a0,a5,2fbc <riscprintf_+0x288>
    2de2:	06c00793          	li	a5,108
    2de6:	86ba                	mv	a3,a4
    2de8:	20f50163          	beq	a0,a5,2fea <riscprintf_+0x2b6>
    2dec:	20a7e663          	bltu	a5,a0,2ff8 <riscprintf_+0x2c4>
    2df0:	06800793          	li	a5,104
    2df4:	24f50063          	beq	a0,a5,3034 <riscprintf_+0x300>
    2df8:	06a00793          	li	a5,106
    2dfc:	4ef51663          	bne	a0,a5,32e8 <riscprintf_+0x5b4>
    2e00:	001bc503          	lbu	a0,1(s7)
    2e04:	200c6c13          	ori	s8,s8,512
    2e08:	07800793          	li	a5,120
    2e0c:	00168b93          	addi	s7,a3,1
    2e10:	f6a7eee3          	bltu	a5,a0,2d8c <riscprintf_+0x58>
    2e14:	06300793          	li	a5,99
    2e18:	0aa7ec63          	bltu	a5,a0,2ed0 <riscprintf_+0x19c>
    2e1c:	06200713          	li	a4,98
    2e20:	3ce50c63          	beq	a0,a4,31f8 <riscprintf_+0x4c4>
    2e24:	0ef51b63          	bne	a0,a5,2f1a <riscprintf_+0x1e6>
    2e28:	002c7c13          	andi	s8,s8,2
    2e2c:	00498d13          	addi	s10,s3,4
    2e30:	001b0c93          	addi	s9,s6,1
    2e34:	2e0c0363          	beqz	s8,311a <riscprintf_+0x3e6>
    2e38:	0009c503          	lbu	a0,0(s3)
    2e3c:	865a                	mv	a2,s6
    2e3e:	56fd                	li	a3,-1
    2e40:	85a6                	mv	a1,s1
    2e42:	ab1ff0ef          	jal	ra,28f2 <_ZL9_out_charcPvjj>
    2e46:	4785                	li	a5,1
    2e48:	9b6e                	add	s6,s6,s11
    2e4a:	3bb7f463          	bgeu	a5,s11,31f2 <riscprintf_+0x4be>
    2e4e:	8666                	mv	a2,s9
    2e50:	56fd                	li	a3,-1
    2e52:	0c85                	addi	s9,s9,1
    2e54:	85a6                	mv	a1,s1
    2e56:	02000513          	li	a0,32
    2e5a:	a99ff0ef          	jal	ra,28f2 <_ZL9_out_charcPvjj>
    2e5e:	ff9b18e3          	bne	s6,s9,2e4e <riscprintf_+0x11a>
    2e62:	89ea                	mv	s3,s10
    2e64:	000bc503          	lbu	a0,0(s7)
    2e68:	f91d                	bnez	a0,2d9e <riscprintf_+0x6a>
    2e6a:	57f9                	li	a5,-2
    2e6c:	845a                	mv	s0,s6
    2e6e:	865a                	mv	a2,s6
    2e70:	1b67e763          	bltu	a5,s6,301e <riscprintf_+0x2ea>
    2e74:	85a6                	mv	a1,s1
    2e76:	4501                	li	a0,0
    2e78:	56fd                	li	a3,-1
    2e7a:	a79ff0ef          	jal	ra,28f2 <_ZL9_out_charcPvjj>
    2e7e:	50b6                	lw	ra,108(sp)
    2e80:	8522                	mv	a0,s0
    2e82:	5426                	lw	s0,104(sp)
    2e84:	5496                	lw	s1,100(sp)
    2e86:	5906                	lw	s2,96(sp)
    2e88:	49f6                	lw	s3,92(sp)
    2e8a:	4a66                	lw	s4,88(sp)
    2e8c:	4ad6                	lw	s5,84(sp)
    2e8e:	4b46                	lw	s6,80(sp)
    2e90:	4bb6                	lw	s7,76(sp)
    2e92:	4c26                	lw	s8,72(sp)
    2e94:	4c96                	lw	s9,68(sp)
    2e96:	4d06                	lw	s10,64(sp)
    2e98:	5df2                	lw	s11,60(sp)
    2e9a:	6149                	addi	sp,sp,144
    2e9c:	8082                	ret
    2e9e:	001c6c13          	ori	s8,s8,1
    2ea2:	8bba                	mv	s7,a4
    2ea4:	b709                	j	2da6 <riscprintf_+0x72>
    2ea6:	002c6c13          	ori	s8,s8,2
    2eaa:	8bba                	mv	s7,a4
    2eac:	bded                	j	2da6 <riscprintf_+0x72>
    2eae:	004c6c13          	ori	s8,s8,4
    2eb2:	8bba                	mv	s7,a4
    2eb4:	bdcd                	j	2da6 <riscprintf_+0x72>
    2eb6:	010c6c13          	ori	s8,s8,16
    2eba:	8bba                	mv	s7,a4
    2ebc:	b5ed                	j	2da6 <riscprintf_+0x72>
    2ebe:	008c6c13          	ori	s8,s8,8
    2ec2:	8bba                	mv	s7,a4
    2ec4:	b5cd                	j	2da6 <riscprintf_+0x72>
    2ec6:	07800793          	li	a5,120
    2eca:	8bba                	mv	s7,a4
    2ecc:	eca7e0e3          	bltu	a5,a0,2d8c <riscprintf_+0x58>
    2ed0:	f9c50793          	addi	a5,a0,-100
    2ed4:	4c85                	li	s9,1
    2ed6:	00fc9cb3          	sll	s9,s9,a5
    2eda:	47d2                	lw	a5,20(sp)
    2edc:	00fcfcb3          	and	s9,s9,a5
    2ee0:	320c9663          	bnez	s9,320c <riscprintf_+0x4d8>
    2ee4:	07300793          	li	a5,115
    2ee8:	14f50d63          	beq	a0,a5,3042 <riscprintf_+0x30e>
    2eec:	07000793          	li	a5,112
    2ef0:	e8f51ee3          	bne	a0,a5,2d8c <riscprintf_+0x58>
    2ef4:	0009a683          	lw	a3,0(s3)
    2ef8:	021c6c13          	ori	s8,s8,33
    2efc:	650d                	lui	a0,0x3
    2efe:	865a                	mv	a2,s6
    2f00:	c062                	sw	s8,0(sp)
    2f02:	48a1                	li	a7,8
    2f04:	886a                	mv	a6,s10
    2f06:	47c1                	li	a5,16
    2f08:	4701                	li	a4,0
    2f0a:	85a6                	mv	a1,s1
    2f0c:	8f250513          	addi	a0,a0,-1806 # 28f2 <_ZL9_out_charcPvjj>
    2f10:	9e9ff0ef          	jal	ra,28f8 <_ZL10_ntoa_longPFvcPvjjEPcjjmbmjjj.constprop.0>
    2f14:	0991                	addi	s3,s3,4
    2f16:	8b2a                	mv	s6,a0
    2f18:	b541                	j	2d98 <riscprintf_+0x64>
    2f1a:	01451b63          	bne	a0,s4,2f30 <riscprintf_+0x1fc>
    2f1e:	865a                	mv	a2,s6
    2f20:	56fd                	li	a3,-1
    2f22:	85a6                	mv	a1,s1
    2f24:	02500513          	li	a0,37
    2f28:	0b05                	addi	s6,s6,1
    2f2a:	9c9ff0ef          	jal	ra,28f2 <_ZL9_out_charcPvjj>
    2f2e:	b5ad                	j	2d98 <riscprintf_+0x64>
    2f30:	05800793          	li	a5,88
    2f34:	e4f51ce3          	bne	a0,a5,2d8c <riscprintf_+0x58>
    2f38:	400c7793          	andi	a5,s8,1024
    2f3c:	28078963          	beqz	a5,31ce <riscprintf_+0x49a>
    2f40:	ff2c7713          	andi	a4,s8,-14
    2f44:	02076713          	ori	a4,a4,32
    2f48:	47c1                	li	a5,16
    2f4a:	20077693          	andi	a3,a4,512
    2f4e:	e40695e3          	bnez	a3,2d98 <riscprintf_+0x64>
    2f52:	10077693          	andi	a3,a4,256
    2f56:	00498c13          	addi	s8,s3,4
    2f5a:	28069063          	bnez	a3,31da <riscprintf_+0x4a6>
    2f5e:	04077693          	andi	a3,a4,64
    2f62:	26069363          	bnez	a3,31c8 <riscprintf_+0x494>
    2f66:	08077693          	andi	a3,a4,128
    2f6a:	26068863          	beqz	a3,31da <riscprintf_+0x4a6>
    2f6e:	0009d683          	lhu	a3,0(s3)
    2f72:	c03a                	sw	a4,0(sp)
    2f74:	865a                	mv	a2,s6
    2f76:	88ee                	mv	a7,s11
    2f78:	886a                	mv	a6,s10
    2f7a:	4701                	li	a4,0
    2f7c:	650d                	lui	a0,0x3
    2f7e:	85a6                	mv	a1,s1
    2f80:	8f250513          	addi	a0,a0,-1806 # 28f2 <_ZL9_out_charcPvjj>
    2f84:	975ff0ef          	jal	ra,28f8 <_ZL10_ntoa_longPFvcPvjjEPcjjmbmjjj.constprop.0>
    2f88:	8b2a                	mv	s6,a0
    2f8a:	89e2                	mv	s3,s8
    2f8c:	b531                	j	2d98 <riscprintf_+0x64>
    2f8e:	4d81                	li	s11,0
    2f90:	002d9793          	slli	a5,s11,0x2
    2f94:	97ee                	add	a5,a5,s11
    2f96:	0786                	slli	a5,a5,0x1
    2f98:	97aa                	add	a5,a5,a0
    2f9a:	00074503          	lbu	a0,0(a4)
    2f9e:	fd078d93          	addi	s11,a5,-48
    2fa2:	8bba                	mv	s7,a4
    2fa4:	fd050793          	addi	a5,a0,-48
    2fa8:	0ff7f793          	zext.b	a5,a5
    2fac:	0705                	addi	a4,a4,1
    2fae:	fefaf1e3          	bgeu	s5,a5,2f90 <riscprintf_+0x25c>
    2fb2:	02e00793          	li	a5,46
    2fb6:	4d01                	li	s10,0
    2fb8:	e2f515e3          	bne	a0,a5,2de2 <riscprintf_+0xae>
    2fbc:	001bc503          	lbu	a0,1(s7)
    2fc0:	4625                	li	a2,9
    2fc2:	86ba                	mv	a3,a4
    2fc4:	fd050793          	addi	a5,a0,-48
    2fc8:	0ff7f793          	zext.b	a5,a5
    2fcc:	400c6c13          	ori	s8,s8,1024
    2fd0:	0ef67763          	bgeu	a2,a5,30be <riscprintf_+0x38a>
    2fd4:	02a00793          	li	a5,42
    2fd8:	10f50c63          	beq	a0,a5,30f0 <riscprintf_+0x3bc>
    2fdc:	8bba                	mv	s7,a4
    2fde:	06c00793          	li	a5,108
    2fe2:	0705                	addi	a4,a4,1
    2fe4:	86ba                	mv	a3,a4
    2fe6:	e0f513e3          	bne	a0,a5,2dec <riscprintf_+0xb8>
    2fea:	001bc503          	lbu	a0,1(s7)
    2fee:	10f50f63          	beq	a0,a5,310c <riscprintf_+0x3d8>
    2ff2:	100c6c13          	ori	s8,s8,256
    2ff6:	bd09                	j	2e08 <riscprintf_+0xd4>
    2ff8:	07a00793          	li	a5,122
    2ffc:	ecf515e3          	bne	a0,a5,2ec6 <riscprintf_+0x192>
    3000:	001bc503          	lbu	a0,1(s7)
    3004:	100c6c13          	ori	s8,s8,256
    3008:	b501                	j	2e08 <riscprintf_+0xd4>
    300a:	0009ad83          	lw	s11,0(s3)
    300e:	0991                	addi	s3,s3,4
    3010:	000dc963          	bltz	s11,3022 <riscprintf_+0x2ee>
    3014:	001bc503          	lbu	a0,1(s7)
    3018:	8bba                	mv	s7,a4
    301a:	0705                	addi	a4,a4,1
    301c:	bb75                	j	2dd8 <riscprintf_+0xa4>
    301e:	5679                	li	a2,-2
    3020:	bd91                	j	2e74 <riscprintf_+0x140>
    3022:	001bc503          	lbu	a0,1(s7)
    3026:	002c6c13          	ori	s8,s8,2
    302a:	8bba                	mv	s7,a4
    302c:	41b00db3          	neg	s11,s11
    3030:	0705                	addi	a4,a4,1
    3032:	b35d                	j	2dd8 <riscprintf_+0xa4>
    3034:	001bc503          	lbu	a0,1(s7)
    3038:	14f50363          	beq	a0,a5,317e <riscprintf_+0x44a>
    303c:	080c6c13          	ori	s8,s8,128
    3040:	b3e1                	j	2e08 <riscprintf_+0xd4>
    3042:	0009a783          	lw	a5,0(s3)
    3046:	00498713          	addi	a4,s3,4
    304a:	cc3a                	sw	a4,24(sp)
    304c:	0007c683          	lbu	a3,0(a5)
    3050:	c83e                	sw	a5,16(sp)
    3052:	8536                	mv	a0,a3
    3054:	080d1a63          	bnez	s10,30e8 <riscprintf_+0x3b4>
    3058:	5779                	li	a4,-2
    305a:	ce91                	beqz	a3,3076 <riscprintf_+0x342>
    305c:	4cc2                	lw	s9,16(sp)
    305e:	0705                	addi	a4,a4,1
    3060:	9766                	add	a4,a4,s9
    3062:	a019                	j	3068 <riscprintf_+0x334>
    3064:	00ec8663          	beq	s9,a4,3070 <riscprintf_+0x33c>
    3068:	001cc783          	lbu	a5,1(s9)
    306c:	0c85                	addi	s9,s9,1
    306e:	fbfd                	bnez	a5,3064 <riscprintf_+0x330>
    3070:	47c2                	lw	a5,16(sp)
    3072:	40fc8cb3          	sub	s9,s9,a5
    3076:	400c7993          	andi	s3,s8,1024
    307a:	00098563          	beqz	s3,3084 <riscprintf_+0x350>
    307e:	019d7363          	bgeu	s10,s9,3084 <riscprintf_+0x350>
    3082:	8cea                	mv	s9,s10
    3084:	002c7793          	andi	a5,s8,2
    3088:	ce3e                	sw	a5,28(sp)
    308a:	10078563          	beqz	a5,3194 <riscprintf_+0x460>
    308e:	c6e9                	beqz	a3,3158 <riscprintf_+0x424>
    3090:	865a                	mv	a2,s6
    3092:	00098763          	beqz	s3,30a0 <riscprintf_+0x36c>
    3096:	fffd0793          	addi	a5,s10,-1
    309a:	0a0d0b63          	beqz	s10,3150 <riscprintf_+0x41c>
    309e:	8d3e                	mv	s10,a5
    30a0:	56fd                	li	a3,-1
    30a2:	85a6                	mv	a1,s1
    30a4:	00160c13          	addi	s8,a2,1
    30a8:	84bff0ef          	jal	ra,28f2 <_ZL9_out_charcPvjj>
    30ac:	4742                	lw	a4,16(sp)
    30ae:	416c07b3          	sub	a5,s8,s6
    30b2:	97ba                	add	a5,a5,a4
    30b4:	0007c503          	lbu	a0,0(a5)
    30b8:	cd49                	beqz	a0,3152 <riscprintf_+0x41e>
    30ba:	8662                	mv	a2,s8
    30bc:	bfd9                	j	3092 <riscprintf_+0x35e>
    30be:	4725                	li	a4,9
    30c0:	002d1793          	slli	a5,s10,0x2
    30c4:	97ea                	add	a5,a5,s10
    30c6:	0685                	addi	a3,a3,1
    30c8:	0786                	slli	a5,a5,0x1
    30ca:	97aa                	add	a5,a5,a0
    30cc:	0006c503          	lbu	a0,0(a3)
    30d0:	fd078d13          	addi	s10,a5,-48
    30d4:	fd050793          	addi	a5,a0,-48
    30d8:	0ff7f793          	zext.b	a5,a5
    30dc:	fef772e3          	bgeu	a4,a5,30c0 <riscprintf_+0x38c>
    30e0:	8bb6                	mv	s7,a3
    30e2:	00168713          	addi	a4,a3,1
    30e6:	b9f5                	j	2de2 <riscprintf_+0xae>
    30e8:	d6d9                	beqz	a3,3076 <riscprintf_+0x342>
    30ea:	fffd0713          	addi	a4,s10,-1
    30ee:	b7bd                	j	305c <riscprintf_+0x328>
    30f0:	0009ad03          	lw	s10,0(s3)
    30f4:	002bc503          	lbu	a0,2(s7)
    30f8:	0b89                	addi	s7,s7,2
    30fa:	fffd4793          	not	a5,s10
    30fe:	87fd                	srai	a5,a5,0x1f
    3100:	00fd7d33          	and	s10,s10,a5
    3104:	0991                	addi	s3,s3,4
    3106:	001b8713          	addi	a4,s7,1
    310a:	b9e1                	j	2de2 <riscprintf_+0xae>
    310c:	002bc503          	lbu	a0,2(s7)
    3110:	300c6c13          	ori	s8,s8,768
    3114:	002b8693          	addi	a3,s7,2
    3118:	b9c5                	j	2e08 <riscprintf_+0xd4>
    311a:	4785                	li	a5,1
    311c:	0db7f463          	bgeu	a5,s11,31e4 <riscprintf_+0x4b0>
    3120:	fffb0c13          	addi	s8,s6,-1
    3124:	9c6e                	add	s8,s8,s11
    3126:	8cda                	mv	s9,s6
    3128:	8666                	mv	a2,s9
    312a:	56fd                	li	a3,-1
    312c:	0c85                	addi	s9,s9,1
    312e:	85a6                	mv	a1,s1
    3130:	02000513          	li	a0,32
    3134:	fbeff0ef          	jal	ra,28f2 <_ZL9_out_charcPvjj>
    3138:	ff9c18e3          	bne	s8,s9,3128 <riscprintf_+0x3f4>
    313c:	0009c503          	lbu	a0,0(s3)
    3140:	56fd                	li	a3,-1
    3142:	8662                	mv	a2,s8
    3144:	85a6                	mv	a1,s1
    3146:	9b6e                	add	s6,s6,s11
    3148:	faaff0ef          	jal	ra,28f2 <_ZL9_out_charcPvjj>
    314c:	89ea                	mv	s3,s10
    314e:	bb19                	j	2e64 <riscprintf_+0x130>
    3150:	8c32                	mv	s8,a2
    3152:	47f2                	lw	a5,28(sp)
    3154:	c395                	beqz	a5,3178 <riscprintf_+0x444>
    3156:	8b62                	mv	s6,s8
    3158:	07bcf663          	bgeu	s9,s11,31c4 <riscprintf_+0x490>
    315c:	016d8733          	add	a4,s11,s6
    3160:	41970c33          	sub	s8,a4,s9
    3164:	865a                	mv	a2,s6
    3166:	56fd                	li	a3,-1
    3168:	0b05                	addi	s6,s6,1
    316a:	85a6                	mv	a1,s1
    316c:	02000513          	li	a0,32
    3170:	f82ff0ef          	jal	ra,28f2 <_ZL9_out_charcPvjj>
    3174:	ff8b18e3          	bne	s6,s8,3164 <riscprintf_+0x430>
    3178:	49e2                	lw	s3,24(sp)
    317a:	8b62                	mv	s6,s8
    317c:	b931                	j	2d98 <riscprintf_+0x64>
    317e:	002bc503          	lbu	a0,2(s7)
    3182:	0c0c6c13          	ori	s8,s8,192
    3186:	002b8693          	addi	a3,s7,2
    318a:	b9bd                	j	2e08 <riscprintf_+0xd4>
    318c:	4601                	li	a2,0
    318e:	4401                	li	s0,0
    3190:	1024                	addi	s1,sp,40
    3192:	b1cd                	j	2e74 <riscprintf_+0x140>
    3194:	05bcf663          	bgeu	s9,s11,31e0 <riscprintf_+0x4ac>
    3198:	016d87b3          	add	a5,s11,s6
    319c:	41978cb3          	sub	s9,a5,s9
    31a0:	865a                	mv	a2,s6
    31a2:	56fd                	li	a3,-1
    31a4:	0b05                	addi	s6,s6,1
    31a6:	85a6                	mv	a1,s1
    31a8:	02000513          	li	a0,32
    31ac:	f46ff0ef          	jal	ra,28f2 <_ZL9_out_charcPvjj>
    31b0:	ff6c98e3          	bne	s9,s6,31a0 <riscprintf_+0x46c>
    31b4:	47c2                	lw	a5,16(sp)
    31b6:	001d8c93          	addi	s9,s11,1
    31ba:	0007c683          	lbu	a3,0(a5)
    31be:	8536                	mv	a0,a3
    31c0:	ec0698e3          	bnez	a3,3090 <riscprintf_+0x35c>
    31c4:	8c5a                	mv	s8,s6
    31c6:	bf4d                	j	3178 <riscprintf_+0x444>
    31c8:	0009c683          	lbu	a3,0(s3)
    31cc:	b35d                	j	2f72 <riscprintf_+0x23e>
    31ce:	020c6c13          	ori	s8,s8,32
    31d2:	ff3c7713          	andi	a4,s8,-13
    31d6:	47c1                	li	a5,16
    31d8:	bb8d                	j	2f4a <riscprintf_+0x216>
    31da:	0009a683          	lw	a3,0(s3)
    31de:	bb51                	j	2f72 <riscprintf_+0x23e>
    31e0:	0c85                	addi	s9,s9,1
    31e2:	bff1                	j	31be <riscprintf_+0x48a>
    31e4:	0009c503          	lbu	a0,0(s3)
    31e8:	56fd                	li	a3,-1
    31ea:	865a                	mv	a2,s6
    31ec:	85a6                	mv	a1,s1
    31ee:	f04ff0ef          	jal	ra,28f2 <_ZL9_out_charcPvjj>
    31f2:	8b66                	mv	s6,s9
    31f4:	89ea                	mv	s3,s10
    31f6:	b1bd                	j	2e64 <riscprintf_+0x130>
    31f8:	400c7713          	andi	a4,s8,1024
    31fc:	4789                	li	a5,2
    31fe:	c701                	beqz	a4,3206 <riscprintf_+0x4d2>
    3200:	ff2c7713          	andi	a4,s8,-14
    3204:	b399                	j	2f4a <riscprintf_+0x216>
    3206:	ff3c7713          	andi	a4,s8,-13
    320a:	b381                	j	2f4a <riscprintf_+0x216>
    320c:	07800793          	li	a5,120
    3210:	0af50663          	beq	a0,a5,32bc <riscprintf_+0x588>
    3214:	06f00793          	li	a5,111
    3218:	04f50363          	beq	a0,a5,325e <riscprintf_+0x52a>
    321c:	06900793          	li	a5,105
    3220:	fefc7593          	andi	a1,s8,-17
    3224:	0af51363          	bne	a0,a5,32ca <riscprintf_+0x596>
    3228:	400c7793          	andi	a5,s8,1024
    322c:	c399                	beqz	a5,3232 <riscprintf_+0x4fe>
    322e:	feec7593          	andi	a1,s8,-18
    3232:	2005f793          	andi	a5,a1,512
    3236:	b60791e3          	bnez	a5,2d98 <riscprintf_+0x64>
    323a:	1005f793          	andi	a5,a1,256
    323e:	00498c13          	addi	s8,s3,4
    3242:	e3b1                	bnez	a5,3286 <riscprintf_+0x552>
    3244:	0405f793          	andi	a5,a1,64
    3248:	c395                	beqz	a5,326c <riscprintf_+0x538>
    324a:	0009c703          	lbu	a4,0(s3)
    324e:	86ba                	mv	a3,a4
    3250:	865a                	mv	a2,s6
    3252:	c02e                	sw	a1,0(sp)
    3254:	88ee                	mv	a7,s11
    3256:	886a                	mv	a6,s10
    3258:	47a9                	li	a5,10
    325a:	837d                	srli	a4,a4,0x1f
    325c:	b305                	j	2f7c <riscprintf_+0x248>
    325e:	400c7793          	andi	a5,s8,1024
    3262:	c3a9                	beqz	a5,32a4 <riscprintf_+0x570>
    3264:	ff2c7713          	andi	a4,s8,-14
    3268:	47a1                	li	a5,8
    326a:	b1c5                	j	2f4a <riscprintf_+0x216>
    326c:	0805f793          	andi	a5,a1,128
    3270:	cf95                	beqz	a5,32ac <riscprintf_+0x578>
    3272:	00099703          	lh	a4,0(s3)
    3276:	40f75793          	srai	a5,a4,0xf
    327a:	00f746b3          	xor	a3,a4,a5
    327e:	8e9d                	sub	a3,a3,a5
    3280:	06c2                	slli	a3,a3,0x10
    3282:	82c1                	srli	a3,a3,0x10
    3284:	b7f1                	j	3250 <riscprintf_+0x51c>
    3286:	0009a703          	lw	a4,0(s3)
    328a:	865a                	mv	a2,s6
    328c:	c02e                	sw	a1,0(sp)
    328e:	41f75693          	srai	a3,a4,0x1f
    3292:	00e6c533          	xor	a0,a3,a4
    3296:	88ee                	mv	a7,s11
    3298:	886a                	mv	a6,s10
    329a:	47a9                	li	a5,10
    329c:	837d                	srli	a4,a4,0x1f
    329e:	40d506b3          	sub	a3,a0,a3
    32a2:	b9e9                	j	2f7c <riscprintf_+0x248>
    32a4:	ff3c7713          	andi	a4,s8,-13
    32a8:	47a1                	li	a5,8
    32aa:	b145                	j	2f4a <riscprintf_+0x216>
    32ac:	0009a703          	lw	a4,0(s3)
    32b0:	41f75793          	srai	a5,a4,0x1f
    32b4:	00e7c6b3          	xor	a3,a5,a4
    32b8:	8e9d                	sub	a3,a3,a5
    32ba:	bf59                	j	3250 <riscprintf_+0x51c>
    32bc:	400c7793          	andi	a5,s8,1024
    32c0:	db89                	beqz	a5,31d2 <riscprintf_+0x49e>
    32c2:	ff2c7713          	andi	a4,s8,-14
    32c6:	47c1                	li	a5,16
    32c8:	b149                	j	2f4a <riscprintf_+0x216>
    32ca:	06400793          	li	a5,100
    32ce:	f4f50de3          	beq	a0,a5,3228 <riscprintf_+0x4f4>
    32d2:	400c7693          	andi	a3,s8,1024
    32d6:	fe3c7713          	andi	a4,s8,-29
    32da:	47a9                	li	a5,10
    32dc:	8c2e                	mv	s8,a1
    32de:	c60686e3          	beqz	a3,2f4a <riscprintf_+0x216>
    32e2:	ff2c7713          	andi	a4,s8,-14
    32e6:	b195                	j	2f4a <riscprintf_+0x216>
    32e8:	8bba                	mv	s7,a4
    32ea:	b62d                	j	2e14 <riscprintf_+0xe0>

000032ec <riscprintff_>:
    32ec:	1101                	addi	sp,sp,-32
    32ee:	c22e                	sw	a1,4(sp)
    32f0:	c432                	sw	a2,8(sp)
    32f2:	c636                	sw	a3,12(sp)
    32f4:	c83a                	sw	a4,16(sp)
    32f6:	ca3e                	sw	a5,20(sp)
    32f8:	cc42                	sw	a6,24(sp)
    32fa:	ce46                	sw	a7,28(sp)
    32fc:	4501                	li	a0,0
    32fe:	6105                	addi	sp,sp,32
    3300:	8082                	ret

00003302 <_Z10ResetTimerv>:
    3302:	4785                	li	a5,1
    3304:	fcf02223          	sw	a5,-60(zero) # ffffffc4 <__ram_end+0xfffeffc4>
    3308:	06500793          	li	a5,101
    330c:	17fd                	addi	a5,a5,-1
    330e:	fffd                	bnez	a5,330c <_Z10ResetTimerv+0xa>
    3310:	fc002223          	sw	zero,-60(zero) # ffffffc4 <__ram_end+0xfffeffc4>
    3314:	8082                	ret

00003316 <_Z8SetTimerv>:
    3316:	000b57b7          	lui	a5,0xb5
    331a:	46478793          	addi	a5,a5,1124 # b5464 <__ram_end+0xa5464>
    331e:	f8f02c23          	sw	a5,-104(zero) # ffffff98 <__ram_end+0xfffeff98>
    3322:	8082                	ret

00003324 <_Z10riscusleepi>:
    3324:	00a05663          	blez	a0,3330 <_Z10riscusleepi+0xc>
    3328:	4781                	li	a5,0
    332a:	0785                	addi	a5,a5,1
    332c:	fef51fe3          	bne	a0,a5,332a <_Z10riscusleepi+0x6>
    3330:	8082                	ret

00003332 <_Z13RISCGetTimer1mi>:
    3332:	67c9                	lui	a5,0x12
    3334:	20a78793          	addi	a5,a5,522 # 1220a <__ram_end+0x220a>
    3338:	02f50533          	mul	a0,a0,a5
    333c:	ff802783          	lw	a5,-8(zero) # fffffff8 <__ram_end+0xfffefff8>
    3340:	95be                	add	a1,a1,a5
    3342:	952e                	add	a0,a0,a1
    3344:	8082                	ret

00003346 <_Z15RISCCheckTimer1m>:
    3346:	c901                	beqz	a0,3356 <_Z15RISCCheckTimer1m+0x10>
    3348:	ff802783          	lw	a5,-8(zero) # fffffff8 <__ram_end+0xfffefff8>
    334c:	00a7b533          	sltu	a0,a5,a0
    3350:	00154513          	xori	a0,a0,1
    3354:	8082                	ret
    3356:	4505                	li	a0,1
    3358:	8082                	ret

0000335a <_Z13RISCGetTimer2mi>:
    335a:	67c9                	lui	a5,0x12
    335c:	20a78793          	addi	a5,a5,522 # 1220a <__ram_end+0x220a>
    3360:	02f50533          	mul	a0,a0,a5
    3364:	ffc02783          	lw	a5,-4(zero) # fffffffc <__ram_end+0xfffefffc>
    3368:	95be                	add	a1,a1,a5
    336a:	952e                	add	a0,a0,a1
    336c:	8082                	ret

0000336e <_Z15RISCCheckTimer2m>:
    336e:	ffc02583          	lw	a1,-4(zero) # fffffffc <__ram_end+0xfffefffc>
    3372:	00a5f463          	bgeu	a1,a0,337a <_Z15RISCCheckTimer2m+0xc>
    3376:	4501                	li	a0,0
    3378:	8082                	ret
    337a:	6511                	lui	a0,0x4
    337c:	1141                	addi	sp,sp,-16
    337e:	34850513          	addi	a0,a0,840 # 4348 <stream_vscanf+0x880>
    3382:	c606                	sw	ra,12(sp)
    3384:	9b1ff0ef          	jal	ra,2d34 <riscprintf_>
    3388:	40b2                	lw	ra,12(sp)
    338a:	4505                	li	a0,1
    338c:	0141                	addi	sp,sp,16
    338e:	8082                	ret

00003390 <_Z11ResetTimer1v>:
    3390:	4785                	li	a5,1
    3392:	fcf02223          	sw	a5,-60(zero) # ffffffc4 <__ram_end+0xfffeffc4>
    3396:	47ad                	li	a5,11
    3398:	17fd                	addi	a5,a5,-1
    339a:	fffd                	bnez	a5,3398 <_Z11ResetTimer1v+0x8>
    339c:	fc002223          	sw	zero,-60(zero) # ffffffc4 <__ram_end+0xfffeffc4>
    33a0:	8082                	ret

000033a2 <_Z11ResetTimer2v>:
    33a2:	4785                	li	a5,1
    33a4:	fcf02623          	sw	a5,-52(zero) # ffffffcc <__ram_end+0xfffeffcc>
    33a8:	47ad                	li	a5,11
    33aa:	17fd                	addi	a5,a5,-1
    33ac:	fffd                	bnez	a5,33aa <_Z11ResetTimer2v+0x8>
    33ae:	fc002623          	sw	zero,-52(zero) # ffffffcc <__ram_end+0xfffeffcc>
    33b2:	8082                	ret

000033b4 <memcpy>:
    33b4:	4791                	li	a5,4
    33b6:	02c7f163          	bgeu	a5,a2,33d8 <memcpy+0x24>
    33ba:	00b567b3          	or	a5,a0,a1
    33be:	8b8d                	andi	a5,a5,3
    33c0:	cf99                	beqz	a5,33de <memcpy+0x2a>
    33c2:	87aa                	mv	a5,a0
    33c4:	963e                	add	a2,a2,a5
    33c6:	0005c703          	lbu	a4,0(a1)
    33ca:	0785                	addi	a5,a5,1
    33cc:	0585                	addi	a1,a1,1
    33ce:	fee78fa3          	sb	a4,-1(a5)
    33d2:	fef61ae3          	bne	a2,a5,33c6 <memcpy+0x12>
    33d6:	8082                	ret
    33d8:	87aa                	mv	a5,a0
    33da:	f66d                	bnez	a2,33c4 <memcpy+0x10>
    33dc:	8082                	ret
    33de:	ffc60893          	addi	a7,a2,-4
    33e2:	ffc8f893          	andi	a7,a7,-4
    33e6:	0891                	addi	a7,a7,4
    33e8:	011507b3          	add	a5,a0,a7
    33ec:	86ae                	mv	a3,a1
    33ee:	872a                	mv	a4,a0
    33f0:	0006a803          	lw	a6,0(a3)
    33f4:	0711                	addi	a4,a4,4
    33f6:	0691                	addi	a3,a3,4
    33f8:	ff072e23          	sw	a6,-4(a4)
    33fc:	fee79ae3          	bne	a5,a4,33f0 <memcpy+0x3c>
    3400:	8a0d                	andi	a2,a2,3
    3402:	95c6                	add	a1,a1,a7
    3404:	f261                	bnez	a2,33c4 <memcpy+0x10>
    3406:	bfd9                	j	33dc <memcpy+0x28>

00003408 <outnum>:
    3408:	6711                	lui	a4,0x4
    340a:	6791                	lui	a5,0x4
    340c:	62070713          	addi	a4,a4,1568 # 4620 <stream_vscanf+0xb58>
    3410:	63478793          	addi	a5,a5,1588 # 4634 <stream_vscanf+0xb6c>
    3414:	0047a883          	lw	a7,4(a5)
    3418:	00072283          	lw	t0,0(a4)
    341c:	00472f83          	lw	t6,4(a4)
    3420:	00872f03          	lw	t5,8(a4)
    3424:	00c72e83          	lw	t4,12(a4)
    3428:	01074e03          	lbu	t3,16(a4)
    342c:	0007a303          	lw	t1,0(a5)
    3430:	0087a803          	lw	a6,8(a5)
    3434:	47d8                	lw	a4,12(a5)
    3436:	0107c783          	lbu	a5,16(a5)
    343a:	7159                	addi	sp,sp,-112
    343c:	d0ca                	sw	s2,96(sp)
    343e:	cece                	sw	s3,92(sp)
    3440:	d046                	sw	a7,32(sp)
    3442:	02f10623          	sb	a5,44(sp)
    3446:	d686                	sw	ra,108(sp)
    3448:	d4a2                	sw	s0,104(sp)
    344a:	d2a6                	sw	s1,100(sp)
    344c:	ccd2                	sw	s4,88(sp)
    344e:	c416                	sw	t0,8(sp)
    3450:	c67e                	sw	t6,12(sp)
    3452:	c87a                	sw	t5,16(sp)
    3454:	ca76                	sw	t4,20(sp)
    3456:	01c10c23          	sb	t3,24(sp)
    345a:	ce1a                	sw	t1,28(sp)
    345c:	d242                	sw	a6,36(sp)
    345e:	d43a                	sw	a4,40(sp)
    3460:	47a9                	li	a5,10
    3462:	01c6a883          	lw	a7,28(a3)
    3466:	89b6                	mv	s3,a3
    3468:	892a                	mv	s2,a0
    346a:	14f60763          	beq	a2,a5,35b8 <outnum+0x1b0>
    346e:	0030                	addi	a2,sp,8
    3470:	0e088c63          	beqz	a7,3568 <outnum+0x160>
    3474:	03010a13          	addi	s4,sp,48
    3478:	87d2                	mv	a5,s4
    347a:	453d                	li	a0,15
    347c:	00f5f713          	andi	a4,a1,15
    3480:	9732                	add	a4,a4,a2
    3482:	00074683          	lbu	a3,0(a4)
    3486:	872e                	mv	a4,a1
    3488:	0785                	addi	a5,a5,1
    348a:	fed78fa3          	sb	a3,-1(a5)
    348e:	8191                	srli	a1,a1,0x4
    3490:	fee566e3          	bltu	a0,a4,347c <outnum+0x74>
    3494:	fff78493          	addi	s1,a5,-1
    3498:	00078023          	sb	zero,0(a5)
    349c:	8552                	mv	a0,s4
    349e:	2341                	jal	3a1e <strlen>
    34a0:	0109a783          	lw	a5,16(s3)
    34a4:	00a9a023          	sw	a0,0(s3)
    34a8:	0189a703          	lw	a4,24(s3)
    34ac:	842a                	mv	s0,a0
    34ae:	c791                	beqz	a5,34ba <outnum+0xb2>
    34b0:	ef55                	bnez	a4,356c <outnum+0x164>
    34b2:	0049a783          	lw	a5,4(s3)
    34b6:	0cf54463          	blt	a0,a5,357e <outnum+0x176>
    34ba:	0344ee63          	bltu	s1,s4,34f6 <outnum+0xee>
    34be:	8426                	mv	s0,s1
    34c0:	0209a703          	lw	a4,32(s3)
    34c4:	408487b3          	sub	a5,s1,s0
    34c8:	147d                	addi	s0,s0,-1
    34ca:	00e7da63          	bge	a5,a4,34de <outnum+0xd6>
    34ce:	00092783          	lw	a5,0(s2)
    34d2:	00144503          	lbu	a0,1(s0)
    34d6:	cb85                	beqz	a5,3506 <outnum+0xfe>
    34d8:	9782                	jalr	a5
    34da:	ff4473e3          	bgeu	s0,s4,34c0 <outnum+0xb8>
    34de:	0109a783          	lw	a5,16(s3)
    34e2:	cb91                	beqz	a5,34f6 <outnum+0xee>
    34e4:	0189a783          	lw	a5,24(s3)
    34e8:	c799                	beqz	a5,34f6 <outnum+0xee>
    34ea:	0009a403          	lw	s0,0(s3)
    34ee:	0049a783          	lw	a5,4(s3)
    34f2:	04f44363          	blt	s0,a5,3538 <outnum+0x130>
    34f6:	50b6                	lw	ra,108(sp)
    34f8:	5426                	lw	s0,104(sp)
    34fa:	5496                	lw	s1,100(sp)
    34fc:	5906                	lw	s2,96(sp)
    34fe:	49f6                	lw	s3,92(sp)
    3500:	4a66                	lw	s4,88(sp)
    3502:	6165                	addi	sp,sp,112
    3504:	8082                	ret
    3506:	00492783          	lw	a5,4(s2)
    350a:	dbe1                	beqz	a5,34da <outnum+0xd2>
    350c:	00892703          	lw	a4,8(s2)
    3510:	00c92683          	lw	a3,12(s2)
    3514:	00170613          	addi	a2,a4,1
    3518:	97ba                	add	a5,a5,a4
    351a:	fcd750e3          	bge	a4,a3,34da <outnum+0xd2>
    351e:	00c92423          	sw	a2,8(s2)
    3522:	00a78023          	sb	a0,0(a5)
    3526:	f9447de3          	bgeu	s0,s4,34c0 <outnum+0xb8>
    352a:	bf55                	j	34de <outnum+0xd6>
    352c:	9702                	jalr	a4
    352e:	0049a783          	lw	a5,4(s3)
    3532:	0405                	addi	s0,s0,1
    3534:	fcf451e3          	bge	s0,a5,34f6 <outnum+0xee>
    3538:	00092703          	lw	a4,0(s2)
    353c:	00c9c503          	lbu	a0,12(s3)
    3540:	f775                	bnez	a4,352c <outnum+0x124>
    3542:	00492703          	lw	a4,4(s2)
    3546:	d775                	beqz	a4,3532 <outnum+0x12a>
    3548:	00892683          	lw	a3,8(s2)
    354c:	00c92603          	lw	a2,12(s2)
    3550:	00168593          	addi	a1,a3,1
    3554:	9736                	add	a4,a4,a3
    3556:	fcc6dee3          	bge	a3,a2,3532 <outnum+0x12a>
    355a:	00b92423          	sw	a1,8(s2)
    355e:	00a70023          	sb	a0,0(a4)
    3562:	0049a783          	lw	a5,4(s3)
    3566:	b7f1                	j	3532 <outnum+0x12a>
    3568:	0870                	addi	a2,sp,28
    356a:	b729                	j	3474 <outnum+0x6c>
    356c:	f544f9e3          	bgeu	s1,s4,34be <outnum+0xb6>
    3570:	bfbd                	j	34ee <outnum+0xe6>
    3572:	9702                	jalr	a4
    3574:	0049a783          	lw	a5,4(s3)
    3578:	0405                	addi	s0,s0,1
    357a:	02f45c63          	bge	s0,a5,35b2 <outnum+0x1aa>
    357e:	00092703          	lw	a4,0(s2)
    3582:	00c9c503          	lbu	a0,12(s3)
    3586:	f775                	bnez	a4,3572 <outnum+0x16a>
    3588:	00492703          	lw	a4,4(s2)
    358c:	d775                	beqz	a4,3578 <outnum+0x170>
    358e:	00892683          	lw	a3,8(s2)
    3592:	00c92603          	lw	a2,12(s2)
    3596:	00168593          	addi	a1,a3,1
    359a:	9736                	add	a4,a4,a3
    359c:	fcc6dee3          	bge	a3,a2,3578 <outnum+0x170>
    35a0:	00b92423          	sw	a1,8(s2)
    35a4:	00a70023          	sb	a0,0(a4)
    35a8:	0049a783          	lw	a5,4(s3)
    35ac:	0405                	addi	s0,s0,1
    35ae:	fcf448e3          	blt	s0,a5,357e <outnum+0x176>
    35b2:	f144f6e3          	bgeu	s1,s4,34be <outnum+0xb6>
    35b6:	b725                	j	34de <outnum+0xd6>
    35b8:	0405c363          	bltz	a1,35fe <outnum+0x1f6>
    35bc:	0868                	addi	a0,sp,28
    35be:	02089d63          	bnez	a7,35f8 <outnum+0x1f0>
    35c2:	03010a13          	addi	s4,sp,48
    35c6:	84d2                	mv	s1,s4
    35c8:	46a9                	li	a3,10
    35ca:	4825                	li	a6,9
    35cc:	02d5f733          	remu	a4,a1,a3
    35d0:	87a6                	mv	a5,s1
    35d2:	0485                	addi	s1,s1,1
    35d4:	862e                	mv	a2,a1
    35d6:	972a                	add	a4,a4,a0
    35d8:	00074703          	lbu	a4,0(a4)
    35dc:	02d5d5b3          	divu	a1,a1,a3
    35e0:	fee48fa3          	sb	a4,-1(s1)
    35e4:	fec864e3          	bltu	a6,a2,35cc <outnum+0x1c4>
    35e8:	02088763          	beqz	a7,3616 <outnum+0x20e>
    35ec:	02d00713          	li	a4,45
    35f0:	0789                	addi	a5,a5,2
    35f2:	00e48023          	sb	a4,0(s1)
    35f6:	b54d                	j	3498 <outnum+0x90>
    35f8:	0028                	addi	a0,sp,8
    35fa:	4881                	li	a7,0
    35fc:	b7d9                	j	35c2 <outnum+0x1ba>
    35fe:	4adc                	lw	a5,20(a3)
    3600:	ffd5                	bnez	a5,35bc <outnum+0x1b4>
    3602:	40b005b3          	neg	a1,a1
    3606:	00088563          	beqz	a7,3610 <outnum+0x208>
    360a:	0028                	addi	a0,sp,8
    360c:	4885                	li	a7,1
    360e:	bf55                	j	35c2 <outnum+0x1ba>
    3610:	0868                	addi	a0,sp,28
    3612:	4885                	li	a7,1
    3614:	b77d                	j	35c2 <outnum+0x1ba>
    3616:	87a6                	mv	a5,s1
    3618:	bdb5                	j	3494 <outnum+0x8c>

0000361a <vbuf_printf>:
    361a:	0005c783          	lbu	a5,0(a1)
    361e:	34078c63          	beqz	a5,3976 <vbuf_printf+0x35c>
    3622:	7119                	addi	sp,sp,-128
    3624:	d4d2                	sw	s4,104(sp)
    3626:	d2d6                	sw	s5,100(sp)
    3628:	d0da                	sw	s6,96(sp)
    362a:	6a21                	lui	s4,0x8
    362c:	6a91                	lui	s5,0x4
    362e:	6b11                	lui	s6,0x4
    3630:	dca2                	sw	s0,120(sp)
    3632:	d8ca                	sw	s2,112(sp)
    3634:	d6ce                	sw	s3,108(sp)
    3636:	cede                	sw	s7,92(sp)
    3638:	de86                	sw	ra,124(sp)
    363a:	daa6                	sw	s1,116(sp)
    363c:	cce2                	sw	s8,88(sp)
    363e:	cae6                	sw	s9,84(sp)
    3640:	c8ea                	sw	s10,80(sp)
    3642:	c6ee                	sw	s11,76(sp)
    3644:	842e                	mv	s0,a1
    3646:	8baa                	mv	s7,a0
    3648:	8932                	mv	s2,a2
    364a:	1a7d                	addi	s4,s4,-1 # 7fff <_end+0x108f>
    364c:	49e5                	li	s3,25
    364e:	6a0a8a93          	addi	s5,s5,1696 # 46a0 <stream_vscanf+0xbd8>
    3652:	648b0b13          	addi	s6,s6,1608 # 4648 <stream_vscanf+0xb80>
    3656:	02500713          	li	a4,37
    365a:	02e78e63          	beq	a5,a4,3696 <vbuf_printf+0x7c>
    365e:	000ba703          	lw	a4,0(s7)
    3662:	1e070e63          	beqz	a4,385e <vbuf_printf+0x244>
    3666:	853e                	mv	a0,a5
    3668:	9702                	jalr	a4
    366a:	84a2                	mv	s1,s0
    366c:	0014c783          	lbu	a5,1(s1)
    3670:	00148413          	addi	s0,s1,1
    3674:	f3ed                	bnez	a5,3656 <vbuf_printf+0x3c>
    3676:	50f6                	lw	ra,124(sp)
    3678:	5466                	lw	s0,120(sp)
    367a:	54d6                	lw	s1,116(sp)
    367c:	5946                	lw	s2,112(sp)
    367e:	59b6                	lw	s3,108(sp)
    3680:	5a26                	lw	s4,104(sp)
    3682:	5a96                	lw	s5,100(sp)
    3684:	5b06                	lw	s6,96(sp)
    3686:	4bf6                	lw	s7,92(sp)
    3688:	4c66                	lw	s8,88(sp)
    368a:	4cd6                	lw	s9,84(sp)
    368c:	4d46                	lw	s10,80(sp)
    368e:	4db6                	lw	s11,76(sp)
    3690:	4501                	li	a0,0
    3692:	6109                	addi	sp,sp,128
    3694:	8082                	ret
    3696:	02000793          	li	a5,32
    369a:	02f10423          	sb	a5,40(sp)
    369e:	47a9                	li	a5,10
    36a0:	d602                	sw	zero,44(sp)
    36a2:	da02                	sw	zero,52(sp)
    36a4:	d802                	sw	zero,48(sp)
    36a6:	d252                	sw	s4,36(sp)
    36a8:	de3e                	sw	a5,60(sp)
    36aa:	4c81                	li	s9,0
    36ac:	4c25                	li	s8,9
    36ae:	00144783          	lbu	a5,1(s0)
    36b2:	00140493          	addi	s1,s0,1
    36b6:	fd078713          	addi	a4,a5,-48
    36ba:	0ff77693          	zext.b	a3,a4
    36be:	10dc7163          	bgeu	s8,a3,37c0 <vbuf_printf+0x1a6>
    36c2:	fbf78713          	addi	a4,a5,-65
    36c6:	0ff77713          	zext.b	a4,a4
    36ca:	01a73693          	sltiu	a3,a4,26
    36ce:	dc36                	sw	a3,56(sp)
    36d0:	10e9ee63          	bltu	s3,a4,37ec <vbuf_printf+0x1d2>
    36d4:	fbd78793          	addi	a5,a5,-67
    36d8:	0ff7f793          	zext.b	a5,a5
    36dc:	4755                	li	a4,21
    36de:	f8f767e3          	bltu	a4,a5,366c <vbuf_printf+0x52>
    36e2:	078a                	slli	a5,a5,0x2
    36e4:	97da                	add	a5,a5,s6
    36e6:	439c                	lw	a5,0(a5)
    36e8:	8782                	jr	a5
    36ea:	000ba783          	lw	a5,0(s7)
    36ee:	00094503          	lbu	a0,0(s2)
    36f2:	20078063          	beqz	a5,38f2 <vbuf_printf+0x2d8>
    36f6:	9782                	jalr	a5
    36f8:	0911                	addi	s2,s2,4
    36fa:	0014c783          	lbu	a5,1(s1)
    36fe:	00148413          	addi	s0,s1,1
    3702:	fbb1                	bnez	a5,3656 <vbuf_printf+0x3c>
    3704:	bf8d                	j	3676 <vbuf_printf+0x5c>
    3706:	00092c03          	lw	s8,0(s2)
    370a:	8562                	mv	a0,s8
    370c:	2e09                	jal	3a1e <strlen>
    370e:	5d32                	lw	s10,44(sp)
    3710:	ce2a                	sw	a0,28(sp)
    3712:	5dd2                	lw	s11,52(sp)
    3714:	842a                	mv	s0,a0
    3716:	87aa                	mv	a5,a0
    3718:	160d1663          	bnez	s10,3884 <vbuf_printf+0x26a>
    371c:	000c4503          	lbu	a0,0(s8)
    3720:	dd61                	beqz	a0,36f8 <vbuf_printf+0xde>
    3722:	5792                	lw	a5,36(sp)
    3724:	8462                	mv	s0,s8
    3726:	fff78c93          	addi	s9,a5,-1
    372a:	9c3e                	add	s8,s8,a5
    372c:	9ca2                	add	s9,s9,s0
    372e:	a029                	j	3738 <vbuf_printf+0x11e>
    3730:	9782                	jalr	a5
    3732:	00044503          	lbu	a0,0(s0)
    3736:	cd0d                	beqz	a0,3770 <vbuf_printf+0x156>
    3738:	408c87b3          	sub	a5,s9,s0
    373c:	d23e                	sw	a5,36(sp)
    373e:	03840a63          	beq	s0,s8,3772 <vbuf_printf+0x158>
    3742:	000ba783          	lw	a5,0(s7)
    3746:	0405                	addi	s0,s0,1
    3748:	f7e5                	bnez	a5,3730 <vbuf_printf+0x116>
    374a:	004ba783          	lw	a5,4(s7)
    374e:	d3f5                	beqz	a5,3732 <vbuf_printf+0x118>
    3750:	008ba703          	lw	a4,8(s7)
    3754:	00cba683          	lw	a3,12(s7)
    3758:	fcd75de3          	bge	a4,a3,3732 <vbuf_printf+0x118>
    375c:	00170693          	addi	a3,a4,1
    3760:	00dba423          	sw	a3,8(s7)
    3764:	97ba                	add	a5,a5,a4
    3766:	00a78023          	sb	a0,0(a5)
    376a:	00044503          	lbu	a0,0(s0)
    376e:	f569                	bnez	a0,3738 <vbuf_printf+0x11e>
    3770:	8c22                	mv	s8,s0
    3772:	8562                	mv	a0,s8
    3774:	246d                	jal	3a1e <strlen>
    3776:	ce2a                	sw	a0,28(sp)
    3778:	842a                	mv	s0,a0
    377a:	f60d0fe3          	beqz	s10,36f8 <vbuf_printf+0xde>
    377e:	f60d8de3          	beqz	s11,36f8 <vbuf_printf+0xde>
    3782:	5c02                	lw	s8,32(sp)
    3784:	f7845ae3          	bge	s0,s8,36f8 <vbuf_printf+0xde>
    3788:	02814c83          	lbu	s9,40(sp)
    378c:	a031                	j	3798 <vbuf_printf+0x17e>
    378e:	8566                	mv	a0,s9
    3790:	9782                	jalr	a5
    3792:	0405                	addi	s0,s0,1
    3794:	f68c02e3          	beq	s8,s0,36f8 <vbuf_printf+0xde>
    3798:	000ba783          	lw	a5,0(s7)
    379c:	fbed                	bnez	a5,378e <vbuf_printf+0x174>
    379e:	004ba783          	lw	a5,4(s7)
    37a2:	dbe5                	beqz	a5,3792 <vbuf_printf+0x178>
    37a4:	008ba703          	lw	a4,8(s7)
    37a8:	00cba683          	lw	a3,12(s7)
    37ac:	fed753e3          	bge	a4,a3,3792 <vbuf_printf+0x178>
    37b0:	00170693          	addi	a3,a4,1
    37b4:	00dba423          	sw	a3,8(s7)
    37b8:	97ba                	add	a5,a5,a4
    37ba:	01978023          	sb	s9,0(a5)
    37be:	bfd1                	j	3792 <vbuf_printf+0x178>
    37c0:	060c8363          	beqz	s9,3826 <vbuf_printf+0x20c>
    37c4:	4601                	li	a2,0
    37c6:	45a5                	li	a1,9
    37c8:	0014c783          	lbu	a5,1(s1)
    37cc:	00261693          	slli	a3,a2,0x2
    37d0:	96b2                	add	a3,a3,a2
    37d2:	0686                	slli	a3,a3,0x1
    37d4:	00d70633          	add	a2,a4,a3
    37d8:	fd078713          	addi	a4,a5,-48
    37dc:	0ff77793          	zext.b	a5,a4
    37e0:	8426                	mv	s0,s1
    37e2:	0485                	addi	s1,s1,1
    37e4:	fef5f2e3          	bgeu	a1,a5,37c8 <vbuf_printf+0x1ae>
    37e8:	d232                	sw	a2,36(sp)
    37ea:	b5d1                	j	36ae <vbuf_printf+0x94>
    37ec:	fdb78713          	addi	a4,a5,-37
    37f0:	0ff77713          	zext.b	a4,a4
    37f4:	05300693          	li	a3,83
    37f8:	e6e6eae3          	bltu	a3,a4,366c <vbuf_printf+0x52>
    37fc:	070a                	slli	a4,a4,0x2
    37fe:	9756                	add	a4,a4,s5
    3800:	4318                	lw	a4,0(a4)
    3802:	8702                	jr	a4
    3804:	4785                	li	a5,1
    3806:	da3e                	sw	a5,52(sp)
    3808:	8426                	mv	s0,s1
    380a:	b555                	j	36ae <vbuf_printf+0x94>
    380c:	000ba783          	lw	a5,0(s7)
    3810:	cfcd                	beqz	a5,38ca <vbuf_printf+0x2b0>
    3812:	02500513          	li	a0,37
    3816:	9782                	jalr	a5
    3818:	0014c783          	lbu	a5,1(s1)
    381c:	00148413          	addi	s0,s1,1
    3820:	e2079be3          	bnez	a5,3656 <vbuf_printf+0x3c>
    3824:	bd89                	j	3676 <vbuf_printf+0x5c>
    3826:	03000693          	li	a3,48
    382a:	00d79463          	bne	a5,a3,3832 <vbuf_printf+0x218>
    382e:	02f10423          	sb	a5,40(sp)
    3832:	4601                	li	a2,0
    3834:	45a5                	li	a1,9
    3836:	0014c783          	lbu	a5,1(s1)
    383a:	00261693          	slli	a3,a2,0x2
    383e:	96b2                	add	a3,a3,a2
    3840:	0686                	slli	a3,a3,0x1
    3842:	00d70633          	add	a2,a4,a3
    3846:	fd078713          	addi	a4,a5,-48
    384a:	0ff77793          	zext.b	a5,a4
    384e:	8426                	mv	s0,s1
    3850:	0485                	addi	s1,s1,1
    3852:	fef5f2e3          	bgeu	a1,a5,3836 <vbuf_printf+0x21c>
    3856:	4785                	li	a5,1
    3858:	d032                	sw	a2,32(sp)
    385a:	d63e                	sw	a5,44(sp)
    385c:	bd89                	j	36ae <vbuf_printf+0x94>
    385e:	004ba703          	lw	a4,4(s7)
    3862:	e00704e3          	beqz	a4,366a <vbuf_printf+0x50>
    3866:	008ba683          	lw	a3,8(s7)
    386a:	00cba603          	lw	a2,12(s7)
    386e:	dec6dee3          	bge	a3,a2,366a <vbuf_printf+0x50>
    3872:	00168613          	addi	a2,a3,1
    3876:	00cba423          	sw	a2,8(s7)
    387a:	9736                	add	a4,a4,a3
    387c:	00f70023          	sb	a5,0(a4)
    3880:	84a2                	mv	s1,s0
    3882:	b3ed                	j	366c <vbuf_printf+0x52>
    3884:	080d9a63          	bnez	s11,3918 <vbuf_printf+0x2fe>
    3888:	5c82                	lw	s9,32(sp)
    388a:	e99559e3          	bge	a0,s9,371c <vbuf_printf+0x102>
    388e:	02814783          	lbu	a5,40(sp)
    3892:	c63e                	sw	a5,12(sp)
    3894:	a031                	j	38a0 <vbuf_printf+0x286>
    3896:	4532                	lw	a0,12(sp)
    3898:	9782                	jalr	a5
    389a:	0405                	addi	s0,s0,1
    389c:	0c8c8f63          	beq	s9,s0,397a <vbuf_printf+0x360>
    38a0:	000ba783          	lw	a5,0(s7)
    38a4:	fbed                	bnez	a5,3896 <vbuf_printf+0x27c>
    38a6:	004ba783          	lw	a5,4(s7)
    38aa:	dbe5                	beqz	a5,389a <vbuf_printf+0x280>
    38ac:	008ba683          	lw	a3,8(s7)
    38b0:	00cba603          	lw	a2,12(s7)
    38b4:	fec6d3e3          	bge	a3,a2,389a <vbuf_printf+0x280>
    38b8:	4732                	lw	a4,12(sp)
    38ba:	00168613          	addi	a2,a3,1
    38be:	00cba423          	sw	a2,8(s7)
    38c2:	97b6                	add	a5,a5,a3
    38c4:	00e78023          	sb	a4,0(a5)
    38c8:	bfc9                	j	389a <vbuf_printf+0x280>
    38ca:	004ba783          	lw	a5,4(s7)
    38ce:	d8078fe3          	beqz	a5,366c <vbuf_printf+0x52>
    38d2:	008ba703          	lw	a4,8(s7)
    38d6:	00cba683          	lw	a3,12(s7)
    38da:	d8d759e3          	bge	a4,a3,366c <vbuf_printf+0x52>
    38de:	00170693          	addi	a3,a4,1
    38e2:	97ba                	add	a5,a5,a4
    38e4:	00dba423          	sw	a3,8(s7)
    38e8:	02500713          	li	a4,37
    38ec:	00e78023          	sb	a4,0(a5)
    38f0:	bbb5                	j	366c <vbuf_printf+0x52>
    38f2:	004ba783          	lw	a5,4(s7)
    38f6:	e00781e3          	beqz	a5,36f8 <vbuf_printf+0xde>
    38fa:	008ba703          	lw	a4,8(s7)
    38fe:	00cba683          	lw	a3,12(s7)
    3902:	ded75be3          	bge	a4,a3,36f8 <vbuf_printf+0xde>
    3906:	00170693          	addi	a3,a4,1
    390a:	00dba423          	sw	a3,8(s7)
    390e:	97ba                	add	a5,a5,a4
    3910:	00a78023          	sb	a0,0(a5)
    3914:	0911                	addi	s2,s2,4
    3916:	b3d5                	j	36fa <vbuf_printf+0xe0>
    3918:	000c4503          	lbu	a0,0(s8)
    391c:	e00513e3          	bnez	a0,3722 <vbuf_printf+0x108>
    3920:	843e                	mv	s0,a5
    3922:	b585                	j	3782 <vbuf_printf+0x168>
    3924:	00092583          	lw	a1,0(s2)
    3928:	47a1                	li	a5,8
    392a:	00490413          	addi	s0,s2,4
    392e:	0874                	addi	a3,sp,28
    3930:	4641                	li	a2,16
    3932:	855e                	mv	a0,s7
    3934:	de3e                	sw	a5,60(sp)
    3936:	8922                	mv	s2,s0
    3938:	ad1ff0ef          	jal	ra,3408 <outnum>
    393c:	0014c783          	lbu	a5,1(s1)
    3940:	00148413          	addi	s0,s1,1
    3944:	d00799e3          	bnez	a5,3656 <vbuf_printf+0x3c>
    3948:	b33d                	j	3676 <vbuf_printf+0x5c>
    394a:	4785                	li	a5,1
    394c:	d83e                	sw	a5,48(sp)
    394e:	00092583          	lw	a1,0(s2)
    3952:	00490413          	addi	s0,s2,4
    3956:	0874                	addi	a3,sp,28
    3958:	4629                	li	a2,10
    395a:	855e                	mv	a0,s7
    395c:	aadff0ef          	jal	ra,3408 <outnum>
    3960:	8922                	mv	s2,s0
    3962:	bfe9                	j	393c <vbuf_printf+0x322>
    3964:	8426                	mv	s0,s1
    3966:	b3a1                	j	36ae <vbuf_printf+0x94>
    3968:	000ba703          	lw	a4,0(s7)
    396c:	c31d                	beqz	a4,3992 <vbuf_printf+0x378>
    396e:	853e                	mv	a0,a5
    3970:	9702                	jalr	a4
    3972:	0409                	addi	s0,s0,2
    3974:	bb2d                	j	36ae <vbuf_printf+0x94>
    3976:	4501                	li	a0,0
    3978:	8082                	ret
    397a:	000c4503          	lbu	a0,0(s8)
    397e:	da0512e3          	bnez	a0,3722 <vbuf_printf+0x108>
    3982:	8562                	mv	a0,s8
    3984:	2869                	jal	3a1e <strlen>
    3986:	ce2a                	sw	a0,28(sp)
    3988:	0911                	addi	s2,s2,4
    398a:	bb85                	j	36fa <vbuf_printf+0xe0>
    398c:	8426                	mv	s0,s1
    398e:	4c85                	li	s9,1
    3990:	bb39                	j	36ae <vbuf_printf+0x94>
    3992:	004ba703          	lw	a4,4(s7)
    3996:	df71                	beqz	a4,3972 <vbuf_printf+0x358>
    3998:	008ba683          	lw	a3,8(s7)
    399c:	00cba603          	lw	a2,12(s7)
    39a0:	fcc6d9e3          	bge	a3,a2,3972 <vbuf_printf+0x358>
    39a4:	00168613          	addi	a2,a3,1
    39a8:	00cba423          	sw	a2,8(s7)
    39ac:	9736                	add	a4,a4,a3
    39ae:	00f70023          	sb	a5,0(a4)
    39b2:	0409                	addi	s0,s0,2
    39b4:	b9ed                	j	36ae <vbuf_printf+0x94>

000039b6 <sprintf>:
    39b6:	715d                	addi	sp,sp,-80
    39b8:	03810313          	addi	t1,sp,56
    39bc:	8e2a                	mv	t3,a0
    39be:	dc32                	sw	a2,56(sp)
    39c0:	c2be                	sw	a5,68(sp)
    39c2:	0808                	addi	a0,sp,16
    39c4:	67a1                	lui	a5,0x8
    39c6:	861a                	mv	a2,t1
    39c8:	d606                	sw	ra,44(sp)
    39ca:	ce3e                	sw	a5,28(sp)
    39cc:	de36                	sw	a3,60(sp)
    39ce:	c0ba                	sw	a4,64(sp)
    39d0:	c4c2                	sw	a6,72(sp)
    39d2:	c6c6                	sw	a7,76(sp)
    39d4:	c61a                	sw	t1,12(sp)
    39d6:	c802                	sw	zero,16(sp)
    39d8:	ca72                	sw	t3,20(sp)
    39da:	cc02                	sw	zero,24(sp)
    39dc:	c3fff0ef          	jal	ra,361a <vbuf_printf>
    39e0:	4562                	lw	a0,24(sp)
    39e2:	47d2                	lw	a5,20(sp)
    39e4:	97aa                	add	a5,a5,a0
    39e6:	00078023          	sb	zero,0(a5) # 8000 <sector_buffer0>
    39ea:	50b2                	lw	ra,44(sp)
    39ec:	6161                	addi	sp,sp,80
    39ee:	8082                	ret

000039f0 <sscanf>:
    39f0:	7139                	addi	sp,sp,-64
    39f2:	cc22                	sw	s0,24(sp)
    39f4:	d432                	sw	a2,40(sp)
    39f6:	842e                	mv	s0,a1
    39f8:	4601                	li	a2,0
    39fa:	85aa                	mv	a1,a0
    39fc:	0048                	addi	a0,sp,4
    39fe:	ce06                	sw	ra,28(sp)
    3a00:	d636                	sw	a3,44(sp)
    3a02:	d83a                	sw	a4,48(sp)
    3a04:	da3e                	sw	a5,52(sp)
    3a06:	dc42                	sw	a6,56(sp)
    3a08:	de46                	sw	a7,60(sp)
    3a0a:	28a5                	jal	3a82 <stropen>
    3a0c:	1030                	addi	a2,sp,40
    3a0e:	85a2                	mv	a1,s0
    3a10:	0048                	addi	a0,sp,4
    3a12:	c032                	sw	a2,0(sp)
    3a14:	2855                	jal	3ac8 <stream_vscanf>
    3a16:	40f2                	lw	ra,28(sp)
    3a18:	4462                	lw	s0,24(sp)
    3a1a:	6121                	addi	sp,sp,64
    3a1c:	8082                	ret

00003a1e <strlen>:
    3a1e:	00054783          	lbu	a5,0(a0)
    3a22:	cb89                	beqz	a5,3a34 <strlen+0x16>
    3a24:	87aa                	mv	a5,a0
    3a26:	0017c703          	lbu	a4,1(a5)
    3a2a:	0785                	addi	a5,a5,1
    3a2c:	ff6d                	bnez	a4,3a26 <strlen+0x8>
    3a2e:	40a78533          	sub	a0,a5,a0
    3a32:	8082                	ret
    3a34:	4501                	li	a0,0
    3a36:	8082                	ret

00003a38 <buf_getchar>:
    3a38:	4158                	lw	a4,4(a0)
    3a3a:	00074783          	lbu	a5,0(a4)
    3a3e:	c789                	beqz	a5,3a48 <buf_getchar+0x10>
    3a40:	0705                	addi	a4,a4,1
    3a42:	c158                	sw	a4,4(a0)
    3a44:	853e                	mv	a0,a5
    3a46:	8082                	ret
    3a48:	4501                	li	a0,0
    3a4a:	8082                	ret

00003a4c <buf_peekchar>:
    3a4c:	415c                	lw	a5,4(a0)
    3a4e:	0007c503          	lbu	a0,0(a5)
    3a52:	c111                	beqz	a0,3a56 <buf_peekchar+0xa>
    3a54:	8082                	ret
    3a56:	557d                	li	a0,-1
    3a58:	8082                	ret

00003a5a <buf_feof>:
    3a5a:	415c                	lw	a5,4(a0)
    3a5c:	0007c503          	lbu	a0,0(a5)
    3a60:	00153513          	seqz	a0,a0
    3a64:	8082                	ret

00003a66 <buf_putchar>:
    3a66:	4518                	lw	a4,8(a0)
    3a68:	4785                	li	a5,1
    3a6a:	00e7db63          	bge	a5,a4,3a80 <buf_putchar+0x1a>
    3a6e:	415c                	lw	a5,4(a0)
    3a70:	00178713          	addi	a4,a5,1
    3a74:	c158                	sw	a4,4(a0)
    3a76:	00b78023          	sb	a1,0(a5)
    3a7a:	451c                	lw	a5,8(a0)
    3a7c:	17fd                	addi	a5,a5,-1
    3a7e:	c51c                	sw	a5,8(a0)
    3a80:	8082                	ret

00003a82 <stropen>:
    3a82:	6715                	lui	a4,0x5
    3a84:	d8070713          	addi	a4,a4,-640 # 4d80 <buf_interface>
    3a88:	c118                	sw	a4,0(a0)
    3a8a:	c14c                	sw	a1,4(a0)
    3a8c:	c510                	sw	a2,8(a0)
    3a8e:	8082                	ret

00003a90 <strstr>:
    3a90:	0005c803          	lbu	a6,0(a1)
    3a94:	00080c63          	beqz	a6,3aac <strstr+0x1c>
    3a98:	00054783          	lbu	a5,0(a0)
    3a9c:	c799                	beqz	a5,3aaa <strstr+0x1a>
    3a9e:	00f80863          	beq	a6,a5,3aae <strstr+0x1e>
    3aa2:	00154783          	lbu	a5,1(a0)
    3aa6:	0505                	addi	a0,a0,1
    3aa8:	fbfd                	bnez	a5,3a9e <strstr+0xe>
    3aaa:	4501                	li	a0,0
    3aac:	8082                	ret
    3aae:	87ae                	mv	a5,a1
    3ab0:	872a                	mv	a4,a0
    3ab2:	a029                	j	3abc <strstr+0x2c>
    3ab4:	fff74603          	lbu	a2,-1(a4)
    3ab8:	fed615e3          	bne	a2,a3,3aa2 <strstr+0x12>
    3abc:	0007c683          	lbu	a3,0(a5)
    3ac0:	0705                	addi	a4,a4,1
    3ac2:	0785                	addi	a5,a5,1
    3ac4:	fae5                	bnez	a3,3ab4 <strstr+0x24>
    3ac6:	8082                	ret

00003ac8 <stream_vscanf>:
    3ac8:	711d                	addi	sp,sp,-96
    3aca:	caa6                	sw	s1,84(sp)
    3acc:	c8ca                	sw	s2,80(sp)
    3ace:	c6ce                	sw	s3,76(sp)
    3ad0:	c2d6                	sw	s5,68(sp)
    3ad2:	d66e                	sw	s11,44(sp)
    3ad4:	ce86                	sw	ra,92(sp)
    3ad6:	cca2                	sw	s0,88(sp)
    3ad8:	c4d2                	sw	s4,72(sp)
    3ada:	c0da                	sw	s6,64(sp)
    3adc:	de5e                	sw	s7,60(sp)
    3ade:	dc62                	sw	s8,56(sp)
    3ae0:	da66                	sw	s9,52(sp)
    3ae2:	d86a                	sw	s10,48(sp)
    3ae4:	8daa                	mv	s11,a0
    3ae6:	89b2                	mv	s3,a2
    3ae8:	c802                	sw	zero,16(sp)
    3aea:	c602                	sw	zero,12(sp)
    3aec:	02000493          	li	s1,32
    3af0:	4905                	li	s2,1
    3af2:	02500a93          	li	s5,37
    3af6:	0005cd03          	lbu	s10,0(a1)
    3afa:	00158413          	addi	s0,a1,1
    3afe:	029d0b63          	beq	s10,s1,3b34 <stream_vscanf+0x6c>
    3b02:	09a4e363          	bltu	s1,s10,3b88 <stream_vscanf+0xc0>
    3b06:	040d1963          	bnez	s10,3b58 <stream_vscanf+0x90>
    3b0a:	40f6                	lw	ra,92(sp)
    3b0c:	4466                	lw	s0,88(sp)
    3b0e:	4532                	lw	a0,12(sp)
    3b10:	44d6                	lw	s1,84(sp)
    3b12:	4946                	lw	s2,80(sp)
    3b14:	49b6                	lw	s3,76(sp)
    3b16:	4a26                	lw	s4,72(sp)
    3b18:	4a96                	lw	s5,68(sp)
    3b1a:	4b06                	lw	s6,64(sp)
    3b1c:	5bf2                	lw	s7,60(sp)
    3b1e:	5c62                	lw	s8,56(sp)
    3b20:	5cd2                	lw	s9,52(sp)
    3b22:	5d42                	lw	s10,48(sp)
    3b24:	5db2                	lw	s11,44(sp)
    3b26:	6125                	addi	sp,sp,96
    3b28:	8082                	ret
    3b2a:	000da703          	lw	a4,0(s11)
    3b2e:	856e                	mv	a0,s11
    3b30:	4358                	lw	a4,4(a4)
    3b32:	9702                	jalr	a4
    3b34:	000da703          	lw	a4,0(s11)
    3b38:	856e                	mv	a0,s11
    3b3a:	4718                	lw	a4,8(a4)
    3b3c:	9702                	jalr	a4
    3b3e:	00054b63          	bltz	a0,3b54 <stream_vscanf+0x8c>
    3b42:	0ff57513          	zext.b	a0,a0
    3b46:	fe9502e3          	beq	a0,s1,3b2a <stream_vscanf+0x62>
    3b4a:	155d                	addi	a0,a0,-9
    3b4c:	0ff57513          	zext.b	a0,a0
    3b50:	fca97de3          	bgeu	s2,a0,3b2a <stream_vscanf+0x62>
    3b54:	85a2                	mv	a1,s0
    3b56:	b745                	j	3af6 <stream_vscanf+0x2e>
    3b58:	ff7d0693          	addi	a3,s10,-9
    3b5c:	0ff6f693          	zext.b	a3,a3
    3b60:	fcd97ae3          	bgeu	s2,a3,3b34 <stream_vscanf+0x6c>
    3b64:	000da683          	lw	a3,0(s11)
    3b68:	856e                	mv	a0,s11
    3b6a:	4694                	lw	a3,8(a3)
    3b6c:	9682                	jalr	a3
    3b6e:	3c054763          	bltz	a0,3f3c <stream_vscanf+0x474>
    3b72:	0ff57513          	zext.b	a0,a0
    3b76:	f9a51ae3          	bne	a0,s10,3b0a <stream_vscanf+0x42>
    3b7a:	000da703          	lw	a4,0(s11)
    3b7e:	856e                	mv	a0,s11
    3b80:	4358                	lw	a4,4(a4)
    3b82:	9702                	jalr	a4
    3b84:	85a2                	mv	a1,s0
    3b86:	bf85                	j	3af6 <stream_vscanf+0x2e>
    3b88:	fd5d1ee3          	bne	s10,s5,3b64 <stream_vscanf+0x9c>
    3b8c:	0015cd03          	lbu	s10,1(a1)
    3b90:	00258413          	addi	s0,a1,2
    3b94:	fd5d08e3          	beq	s10,s5,3b64 <stream_vscanf+0x9c>
    3b98:	02a00693          	li	a3,42
    3b9c:	0add0e63          	beq	s10,a3,3c58 <stream_vscanf+0x190>
    3ba0:	0009a783          	lw	a5,0(s3)
    3ba4:	ca3e                	sw	a5,20(sp)
    3ba6:	00498793          	addi	a5,s3,4
    3baa:	cc3e                	sw	a5,24(sp)
    3bac:	fd0d0693          	addi	a3,s10,-48
    3bb0:	0ff6f693          	zext.b	a3,a3
    3bb4:	4625                	li	a2,9
    3bb6:	08d66563          	bltu	a2,a3,3c40 <stream_vscanf+0x178>
    3bba:	4c01                	li	s8,0
    3bbc:	45a5                	li	a1,9
    3bbe:	002c1693          	slli	a3,s8,0x2
    3bc2:	96e2                	add	a3,a3,s8
    3bc4:	0686                	slli	a3,a3,0x1
    3bc6:	0405                	addi	s0,s0,1
    3bc8:	96ea                	add	a3,a3,s10
    3bca:	fff44d03          	lbu	s10,-1(s0)
    3bce:	fd068693          	addi	a3,a3,-48
    3bd2:	01069c13          	slli	s8,a3,0x10
    3bd6:	fd0d0693          	addi	a3,s10,-48
    3bda:	0ff6f693          	zext.b	a3,a3
    3bde:	010c5c13          	srli	s8,s8,0x10
    3be2:	fcd5fee3          	bgeu	a1,a3,3bbe <stream_vscanf+0xf6>
    3be6:	040c0d63          	beqz	s8,3c40 <stream_vscanf+0x178>
    3bea:	06800693          	li	a3,104
    3bee:	06dd0063          	beq	s10,a3,3c4e <stream_vscanf+0x186>
    3bf2:	05b00693          	li	a3,91
    3bf6:	4b05                	li	s6,1
    3bf8:	06dd0763          	beq	s10,a3,3c66 <stream_vscanf+0x19e>
    3bfc:	340d0063          	beqz	s10,3f3c <stream_vscanf+0x474>
    3c00:	fa5d0693          	addi	a3,s10,-91
    3c04:	0ff6f693          	zext.b	a3,a3
    3c08:	45f5                	li	a1,29
    3c0a:	02d5e063          	bltu	a1,a3,3c2a <stream_vscanf+0x162>
    3c0e:	6591                	lui	a1,0x4
    3c10:	068a                	slli	a3,a3,0x2
    3c12:	7f058593          	addi	a1,a1,2032 # 47f0 <stream_vscanf+0xd28>
    3c16:	96ae                	add	a3,a3,a1
    3c18:	4294                	lw	a3,0(a3)
    3c1a:	8682                	jr	a3
    3c1c:	02000593          	li	a1,32
    3c20:	0cbc9c63          	bne	s9,a1,3cf8 <stream_vscanf+0x230>
    3c24:	47d2                	lw	a5,20(sp)
    3c26:	29379b63          	bne	a5,s3,3ebc <stream_vscanf+0x3f4>
    3c2a:	000da703          	lw	a4,0(s11)
    3c2e:	4b18                	lw	a4,16(a4)
    3c30:	c709                	beqz	a4,3c3a <stream_vscanf+0x172>
    3c32:	856e                	mv	a0,s11
    3c34:	9702                	jalr	a4
    3c36:	30051063          	bnez	a0,3f36 <stream_vscanf+0x46e>
    3c3a:	49e2                	lw	s3,24(sp)
    3c3c:	85a2                	mv	a1,s0
    3c3e:	bd65                	j	3af6 <stream_vscanf+0x2e>
    3c40:	661d                	lui	a2,0x7
    3c42:	06800693          	li	a3,104
    3c46:	53060c13          	addi	s8,a2,1328 # 7530 <_end+0x5c0>
    3c4a:	fadd14e3          	bne	s10,a3,3bf2 <stream_vscanf+0x12a>
    3c4e:	00044d03          	lbu	s10,0(s0)
    3c52:	4b01                	li	s6,0
    3c54:	0405                	addi	s0,s0,1
    3c56:	b75d                	j	3bfc <stream_vscanf+0x134>
    3c58:	0025cd03          	lbu	s10,2(a1)
    3c5c:	00358413          	addi	s0,a1,3
    3c60:	cc4e                	sw	s3,24(sp)
    3c62:	ca02                	sw	zero,20(sp)
    3c64:	b7a1                	j	3bac <stream_vscanf+0xe4>
    3c66:	00044583          	lbu	a1,0(s0)
    3c6a:	05e00513          	li	a0,94
    3c6e:	86a2                	mv	a3,s0
    3c70:	2aa58e63          	beq	a1,a0,3f2c <stream_vscanf+0x464>
    3c74:	c989                	beqz	a1,3c86 <stream_vscanf+0x1be>
    3c76:	05d00513          	li	a0,93
    3c7a:	2ea58c63          	beq	a1,a0,3f72 <stream_vscanf+0x4aa>
    3c7e:	0016c583          	lbu	a1,1(a3)
    3c82:	0685                	addi	a3,a3,1
    3c84:	f9fd                	bnez	a1,3c7a <stream_vscanf+0x1b2>
    3c86:	c822                	sw	s0,16(sp)
    3c88:	8436                	mv	s0,a3
    3c8a:	4c81                	li	s9,0
    3c8c:	07300993          	li	s3,115
    3c90:	4ba9                	li	s7,10
    3c92:	02000b13          	li	s6,32
    3c96:	4a25                	li	s4,9
    3c98:	000da583          	lw	a1,0(s11)
    3c9c:	0105a803          	lw	a6,16(a1)
    3ca0:	00080763          	beqz	a6,3cae <stream_vscanf+0x1e6>
    3ca4:	856e                	mv	a0,s11
    3ca6:	9802                	jalr	a6
    3ca8:	e105                	bnez	a0,3cc8 <stream_vscanf+0x200>
    3caa:	000da583          	lw	a1,0(s11)
    3cae:	41d4                	lw	a3,4(a1)
    3cb0:	856e                	mv	a0,s11
    3cb2:	9682                	jalr	a3
    3cb4:	0ff57c93          	zext.b	s9,a0
    3cb8:	013d1863          	bne	s10,s3,3cc8 <stream_vscanf+0x200>
    3cbc:	fd7c8ee3          	beq	s9,s7,3c98 <stream_vscanf+0x1d0>
    3cc0:	fd6c8ce3          	beq	s9,s6,3c98 <stream_vscanf+0x1d0>
    3cc4:	fd4c8ae3          	beq	s9,s4,3c98 <stream_vscanf+0x1d0>
    3cc8:	47c2                	lw	a5,16(sp)
    3cca:	49d2                	lw	s3,20(sp)
    3ccc:	07300b93          	li	s7,115
    3cd0:	0785                	addi	a5,a5,1
    3cd2:	02d00b13          	li	s6,45
    3cd6:	05d00a13          	li	s4,93
    3cda:	ce3e                	sw	a5,28(sp)
    3cdc:	000da583          	lw	a1,0(s11)
    3ce0:	498c                	lw	a1,16(a1)
    3ce2:	c589                	beqz	a1,3cec <stream_vscanf+0x224>
    3ce4:	856e                	mv	a0,s11
    3ce6:	9582                	jalr	a1
    3ce8:	1c051363          	bnez	a0,3eae <stream_vscanf+0x3e6>
    3cec:	1b7d0a63          	beq	s10,s7,3ea0 <stream_vscanf+0x3d8>
    3cf0:	05b00793          	li	a5,91
    3cf4:	02fd0763          	beq	s10,a5,3d22 <stream_vscanf+0x25a>
    3cf8:	00098563          	beqz	s3,3d02 <stream_vscanf+0x23a>
    3cfc:	01998023          	sb	s9,0(s3)
    3d00:	0985                	addi	s3,s3,1
    3d02:	fffc0613          	addi	a2,s8,-1
    3d06:	01061c13          	slli	s8,a2,0x10
    3d0a:	010c5c13          	srli	s8,s8,0x10
    3d0e:	1a0c0063          	beqz	s8,3eae <stream_vscanf+0x3e6>
    3d12:	000da683          	lw	a3,0(s11)
    3d16:	856e                	mv	a0,s11
    3d18:	42d4                	lw	a3,4(a3)
    3d1a:	9682                	jalr	a3
    3d1c:	0ff57c93          	zext.b	s9,a0
    3d20:	bf75                	j	3cdc <stream_vscanf+0x214>
    3d22:	47c2                	lw	a5,16(sp)
    3d24:	0007c803          	lbu	a6,0(a5)
    3d28:	05e00793          	li	a5,94
    3d2c:	1af80163          	beq	a6,a5,3ece <stream_vscanf+0x406>
    3d30:	ef480ae3          	beq	a6,s4,3c24 <stream_vscanf+0x15c>
    3d34:	4572                	lw	a0,28(sp)
    3d36:	4e81                	li	t4,0
    3d38:	ee0806e3          	beqz	a6,3c24 <stream_vscanf+0x15c>
    3d3c:	00054583          	lbu	a1,0(a0)
    3d40:	00150893          	addi	a7,a0,1
    3d44:	8342                	mv	t1,a6
    3d46:	03658163          	beq	a1,s6,3d68 <stream_vscanf+0x2a0>
    3d4a:	046cfc63          	bgeu	s9,t1,3da2 <stream_vscanf+0x2da>
    3d4e:	05458e63          	beq	a1,s4,3daa <stream_vscanf+0x2e2>
    3d52:	ec0589e3          	beqz	a1,3c24 <stream_vscanf+0x15c>
    3d56:	8546                	mv	a0,a7
    3d58:	882e                	mv	a6,a1
    3d5a:	00054583          	lbu	a1,0(a0)
    3d5e:	00150893          	addi	a7,a0,1
    3d62:	8342                	mv	t1,a6
    3d64:	ff6593e3          	bne	a1,s6,3d4a <stream_vscanf+0x282>
    3d68:	00154e03          	lbu	t3,1(a0)
    3d6c:	014e0d63          	beq	t3,s4,3d86 <stream_vscanf+0x2be>
    3d70:	ea0e0ae3          	beqz	t3,3c24 <stream_vscanf+0x15c>
    3d74:	8342                	mv	t1,a6
    3d76:	00254583          	lbu	a1,2(a0)
    3d7a:	00350893          	addi	a7,a0,3
    3d7e:	8872                	mv	a6,t3
    3d80:	fc6ce7e3          	bltu	s9,t1,3d4e <stream_vscanf+0x286>
    3d84:	a839                	j	3da2 <stream_vscanf+0x2da>
    3d86:	fd0ce8e3          	bltu	s9,a6,3d56 <stream_vscanf+0x28e>
    3d8a:	019a7e63          	bgeu	s4,s9,3da6 <stream_vscanf+0x2de>
    3d8e:	0008c803          	lbu	a6,0(a7)
    3d92:	00188313          	addi	t1,a7,1
    3d96:	15680763          	beq	a6,s6,3ee4 <stream_vscanf+0x41c>
    3d9a:	8542                	mv	a0,a6
    3d9c:	889a                	mv	a7,t1
    3d9e:	882e                	mv	a6,a1
    3da0:	85aa                	mv	a1,a0
    3da2:	fb9866e3          	bltu	a6,s9,3d4e <stream_vscanf+0x286>
    3da6:	001ece93          	xori	t4,t4,1
    3daa:	f40e97e3          	bnez	t4,3cf8 <stream_vscanf+0x230>
    3dae:	bd9d                	j	3c24 <stream_vscanf+0x15c>
    3db0:	4a41                	li	s4,16
    3db2:	02000993          	li	s3,32
    3db6:	4b85                	li	s7,1
    3db8:	000da703          	lw	a4,0(s11)
    3dbc:	856e                	mv	a0,s11
    3dbe:	4718                	lw	a4,8(a4)
    3dc0:	9702                	jalr	a4
    3dc2:	e60544e3          	bltz	a0,3c2a <stream_vscanf+0x162>
    3dc6:	0ff57713          	zext.b	a4,a0
    3dca:	0d370563          	beq	a4,s3,3e94 <stream_vscanf+0x3cc>
    3dce:	175d                	addi	a4,a4,-9
    3dd0:	0ff77713          	zext.b	a4,a4
    3dd4:	0cebf063          	bgeu	s7,a4,3e94 <stream_vscanf+0x3cc>
    3dd8:	02d00713          	li	a4,45
    3ddc:	10e50b63          	beq	a0,a4,3ef2 <stream_vscanf+0x42a>
    3de0:	02b00713          	li	a4,43
    3de4:	ce02                	sw	zero,28(sp)
    3de6:	10e50863          	beq	a0,a4,3ef6 <stream_vscanf+0x42e>
    3dea:	fd050713          	addi	a4,a0,-48
    3dee:	46a5                	li	a3,9
    3df0:	00e6fc63          	bgeu	a3,a4,3e08 <stream_vscanf+0x340>
    3df4:	46c1                	li	a3,16
    3df6:	e2da1ae3          	bne	s4,a3,3c2a <stream_vscanf+0x162>
    3dfa:	fdf57693          	andi	a3,a0,-33
    3dfe:	fbf68693          	addi	a3,a3,-65
    3e02:	4595                	li	a1,5
    3e04:	e2d5e3e3          	bltu	a1,a3,3c2a <stream_vscanf+0x162>
    3e08:	4ba5                	li	s7,9
    3e0a:	4981                	li	s3,0
    3e0c:	4d41                	li	s10,16
    3e0e:	4c95                	li	s9,5
    3e10:	04ebfc63          	bgeu	s7,a4,3e68 <stream_vscanf+0x3a0>
    3e14:	13aa1f63          	bne	s4,s10,3f52 <stream_vscanf+0x48a>
    3e18:	f9f50713          	addi	a4,a0,-97
    3e1c:	12ecf363          	bgeu	s9,a4,3f42 <stream_vscanf+0x47a>
    3e20:	fbf50713          	addi	a4,a0,-65
    3e24:	12ece763          	bltu	s9,a4,3f52 <stream_vscanf+0x48a>
    3e28:	47d2                	lw	a5,20(sp)
    3e2a:	c799                	beqz	a5,3e38 <stream_vscanf+0x370>
    3e2c:	00499693          	slli	a3,s3,0x4
    3e30:	fc950713          	addi	a4,a0,-55
    3e34:	00d709b3          	add	s3,a4,a3
    3e38:	000da703          	lw	a4,0(s11)
    3e3c:	856e                	mv	a0,s11
    3e3e:	4358                	lw	a4,4(a4)
    3e40:	9702                	jalr	a4
    3e42:	000da703          	lw	a4,0(s11)
    3e46:	856e                	mv	a0,s11
    3e48:	4718                	lw	a4,8(a4)
    3e4a:	9702                	jalr	a4
    3e4c:	fffc0613          	addi	a2,s8,-1
    3e50:	01061c13          	slli	s8,a2,0x10
    3e54:	010c5c13          	srli	s8,s8,0x10
    3e58:	0e054d63          	bltz	a0,3f52 <stream_vscanf+0x48a>
    3e5c:	0e0c0b63          	beqz	s8,3f52 <stream_vscanf+0x48a>
    3e60:	fd050713          	addi	a4,a0,-48
    3e64:	faebe8e3          	bltu	s7,a4,3e14 <stream_vscanf+0x34c>
    3e68:	47d2                	lw	a5,20(sp)
    3e6a:	d7f9                	beqz	a5,3e38 <stream_vscanf+0x370>
    3e6c:	47a1                	li	a5,8
    3e6e:	00399693          	slli	a3,s3,0x3
    3e72:	fcfa01e3          	beq	s4,a5,3e34 <stream_vscanf+0x36c>
    3e76:	47a9                	li	a5,10
    3e78:	10fa1463          	bne	s4,a5,3f80 <stream_vscanf+0x4b8>
    3e7c:	00299693          	slli	a3,s3,0x2
    3e80:	96ce                	add	a3,a3,s3
    3e82:	0686                	slli	a3,a3,0x1
    3e84:	bf45                	j	3e34 <stream_vscanf+0x36c>
    3e86:	669d                	lui	a3,0x7
    3e88:	53068693          	addi	a3,a3,1328 # 7530 <_end+0x5c0>
    3e8c:	dedc1fe3          	bne	s8,a3,3c8a <stream_vscanf+0x1c2>
    3e90:	4c05                	li	s8,1
    3e92:	bbe5                	j	3c8a <stream_vscanf+0x1c2>
    3e94:	000da703          	lw	a4,0(s11)
    3e98:	856e                	mv	a0,s11
    3e9a:	4358                	lw	a4,4(a4)
    3e9c:	9702                	jalr	a4
    3e9e:	bf29                	j	3db8 <stream_vscanf+0x2f0>
    3ea0:	45a9                	li	a1,10
    3ea2:	d795ede3          	bltu	a1,s9,3c1c <stream_vscanf+0x154>
    3ea6:	45a1                	li	a1,8
    3ea8:	e595f8e3          	bgeu	a1,s9,3cf8 <stream_vscanf+0x230>
    3eac:	bba5                	j	3c24 <stream_vscanf+0x15c>
    3eae:	47d2                	lw	a5,20(sp)
    3eb0:	d7378de3          	beq	a5,s3,3c2a <stream_vscanf+0x162>
    3eb4:	06300693          	li	a3,99
    3eb8:	00dd0463          	beq	s10,a3,3ec0 <stream_vscanf+0x3f8>
    3ebc:	00098023          	sb	zero,0(s3)
    3ec0:	47d2                	lw	a5,20(sp)
    3ec2:	4732                	lw	a4,12(sp)
    3ec4:	00f037b3          	snez	a5,a5
    3ec8:	97ba                	add	a5,a5,a4
    3eca:	c63e                	sw	a5,12(sp)
    3ecc:	bbb9                	j	3c2a <stream_vscanf+0x162>
    3ece:	47c2                	lw	a5,16(sp)
    3ed0:	05d00593          	li	a1,93
    3ed4:	4e85                	li	t4,1
    3ed6:	0017c803          	lbu	a6,1(a5)
    3eda:	00278513          	addi	a0,a5,2
    3ede:	e4b81de3          	bne	a6,a1,3d38 <stream_vscanf+0x270>
    3ee2:	bd19                	j	3cf8 <stream_vscanf+0x230>
    3ee4:	8546                	mv	a0,a7
    3ee6:	889a                	mv	a7,t1
    3ee8:	b541                	j	3d68 <stream_vscanf+0x2a0>
    3eea:	4a21                	li	s4,8
    3eec:	b5d9                	j	3db2 <stream_vscanf+0x2ea>
    3eee:	4a29                	li	s4,10
    3ef0:	b5c9                	j	3db2 <stream_vscanf+0x2ea>
    3ef2:	4785                	li	a5,1
    3ef4:	ce3e                	sw	a5,28(sp)
    3ef6:	000da703          	lw	a4,0(s11)
    3efa:	856e                	mv	a0,s11
    3efc:	4358                	lw	a4,4(a4)
    3efe:	9702                	jalr	a4
    3f00:	fffc0613          	addi	a2,s8,-1
    3f04:	01061c13          	slli	s8,a2,0x10
    3f08:	010c5c13          	srli	s8,s8,0x10
    3f0c:	d00c0fe3          	beqz	s8,3c2a <stream_vscanf+0x162>
    3f10:	000da703          	lw	a4,0(s11)
    3f14:	4b14                	lw	a3,16(a4)
    3f16:	c699                	beqz	a3,3f24 <stream_vscanf+0x45c>
    3f18:	856e                	mv	a0,s11
    3f1a:	9682                	jalr	a3
    3f1c:	d00517e3          	bnez	a0,3c2a <stream_vscanf+0x162>
    3f20:	000da703          	lw	a4,0(s11)
    3f24:	4718                	lw	a4,8(a4)
    3f26:	856e                	mv	a0,s11
    3f28:	9702                	jalr	a4
    3f2a:	b5c1                	j	3dea <stream_vscanf+0x322>
    3f2c:	00144583          	lbu	a1,1(s0)
    3f30:	00140693          	addi	a3,s0,1
    3f34:	b381                	j	3c74 <stream_vscanf+0x1ac>
    3f36:	47b2                	lw	a5,12(sp)
    3f38:	bc0799e3          	bnez	a5,3b0a <stream_vscanf+0x42>
    3f3c:	57fd                	li	a5,-1
    3f3e:	c63e                	sw	a5,12(sp)
    3f40:	b6e9                	j	3b0a <stream_vscanf+0x42>
    3f42:	47d2                	lw	a5,20(sp)
    3f44:	ee078ae3          	beqz	a5,3e38 <stream_vscanf+0x370>
    3f48:	00499693          	slli	a3,s3,0x4
    3f4c:	fa950713          	addi	a4,a0,-87
    3f50:	b5d5                	j	3e34 <stream_vscanf+0x36c>
    3f52:	47d2                	lw	a5,20(sp)
    3f54:	cc078be3          	beqz	a5,3c2a <stream_vscanf+0x162>
    3f58:	47f2                	lw	a5,28(sp)
    3f5a:	c399                	beqz	a5,3f60 <stream_vscanf+0x498>
    3f5c:	413009b3          	neg	s3,s3
    3f60:	47d2                	lw	a5,20(sp)
    3f62:	000b1c63          	bnez	s6,3f7a <stream_vscanf+0x4b2>
    3f66:	01379023          	sh	s3,0(a5)
    3f6a:	47b2                	lw	a5,12(sp)
    3f6c:	0785                	addi	a5,a5,1
    3f6e:	c63e                	sw	a5,12(sp)
    3f70:	b96d                	j	3c2a <stream_vscanf+0x162>
    3f72:	c822                	sw	s0,16(sp)
    3f74:	00168413          	addi	s0,a3,1
    3f78:	bb09                	j	3c8a <stream_vscanf+0x1c2>
    3f7a:	0137a023          	sw	s3,0(a5)
    3f7e:	b7f5                	j	3f6a <stream_vscanf+0x4a2>
    3f80:	00499693          	slli	a3,s3,0x4
    3f84:	bd45                	j	3e34 <stream_vscanf+0x36c>
    3f86:	0000                	unimp
    3f88:	6572                	.2byte	0x6572
    3f8a:	20746573          	csrrsi	a0,0x207,8
    3f8e:	6425                	lui	s0,0x9
    3f90:	0a0d                	addi	s4,s4,3
    3f92:	0000                	unimp
    3f94:	72617473          	csrrci	s0,mhpmevent6h,2
    3f98:	6974                	.2byte	0x6974
    3f9a:	676e                	.2byte	0x676e
    3f9c:	7420                	.2byte	0x7420
    3f9e:	6568                	.2byte	0x6568
    3fa0:	7220                	.2byte	0x7220
    3fa2:	7365                	lui	t1,0xffff9
    3fa4:	7465                	lui	s0,0xffff9
    3fa6:	0a0d                	addi	s4,s4,3
    3fa8:	0000                	unimp
    3faa:	0000                	unimp
    3fac:	5055                	c.li	zero,-11
    3fae:	4f4c                	lw	a1,28(a4)
    3fb0:	4441                	li	s0,16
    3fb2:	000a0d53          	.4byte	0xa0d53
    3fb6:	0000                	unimp
    3fb8:	706d6f43          	.4byte	0x706d6f43
    3fbc:	656c                	.2byte	0x656c
    3fbe:	6574                	.2byte	0x6574
    3fc0:	2064                	.2byte	0x2064
    3fc2:	6874                	.2byte	0x6874
    3fc4:	2065                	jal	406c <stream_vscanf+0x5a4>
    3fc6:	6572                	.2byte	0x6572
    3fc8:	0d746573          	csrrsi	a0,0xd7,8
    3fcc:	000a                	c.slli	zero,0x2
    3fce:	0000                	unimp
    3fd0:	6d305b1b          	.4byte	0x6d305b1b
    3fd4:	0000                	unimp
    3fd6:	0000                	unimp
    3fd8:	4952                	lw	s2,20(sp)
    3fda:	4d204353          	.4byte	0x4d204353
    3fde:	5550                	lw	a2,44(a0)
    3fe0:	5320                	lw	s0,96(a4)
    3fe2:	6174                	.2byte	0x6174
    3fe4:	7472                	.2byte	0x7472
    3fe6:	7075                	c.lui	zero,0xffffd
    3fe8:	6320                	.2byte	0x6320
    3fea:	0d65726f          	jal	tp,5b0c0 <__ram_end+0x4b0c0>
    3fee:	000a                	c.slli	zero,0x2
    3ff0:	61657243          	.4byte	0x61657243
    3ff4:	6574                	.2byte	0x6574
    3ff6:	2064                	.2byte	0x2064
    3ff8:	7942                	.2byte	0x7942
    3ffa:	4d20                	lw	s0,88(a0)
    3ffc:	7a61                	lui	s4,0xffff8
    3ffe:	6d61                	lui	s10,0x18
    4000:	7261                	lui	tp,0xffff8
    4002:	32313373          	csrrc	t1,mhpmevent3,sp
    4006:	0a0d                	addi	s4,s4,3 # ffff8003 <__ram_end+0xfffe8003>
    4008:	0000                	unimp
    400a:	0000                	unimp
    400c:	614d                	addi	sp,sp,176
    400e:	6920656b          	.4byte	0x6920656b
    4012:	206e                	.2byte	0x206e
    4014:	3032                	.2byte	0x3032
    4016:	3232                	.2byte	0x3232
    4018:	0a0d                	addi	s4,s4,3
    401a:	0000                	unimp
    401c:	2049                	jal	409e <stream_vscanf+0x5d6>
    401e:	6168                	.2byte	0x6168
    4020:	6574                	.2byte	0x6574
    4022:	7420                	.2byte	0x7420
    4024:	6968                	.2byte	0x6968
    4026:	65642073          	csrs	0x656,s0
    402a:	7562                	.2byte	0x7562
    402c:	72656767          	.4byte	0x72656767
    4030:	4c20                	lw	s0,88(s0)
    4032:	0a0d4c4f          	.4byte	0xa0d4c4f
    4036:	0000                	unimp
    4038:	6261                	lui	tp,0x18
    403a:	2074756f          	jal	a0,4ba40 <__ram_end+0x3ba40>
    403e:	6f74                	.2byte	0x6f74
    4040:	6720                	.2byte	0x6720
    4042:	6e69206f          	j	96728 <__ram_end+0x86728>
    4046:	6220                	.2byte	0x6220
    4048:	6261                	lui	tp,0x18
    404a:	0d79                	addi	s10,s10,30 # 1801e <__ram_end+0x801e>
    404c:	000a                	c.slli	zero,0x2
    404e:	0000                	unimp
    4050:	6144                	.2byte	0x6144
    4052:	6174                	.2byte	0x6174
    4054:	5320                	lw	s0,96(a4)
    4056:	6f6c                	.2byte	0x6f6c
    4058:	2074                	.2byte	0x2074
    405a:	7055                	c.lui	zero,0xffff5
    405c:	6164                	.2byte	0x6164
    405e:	6574                	.2byte	0x6574
    4060:	0a0d                	addi	s4,s4,3
    4062:	0000                	unimp
    4064:	6144                	.2byte	0x6144
    4066:	6174                	.2byte	0x6174
    4068:	5320                	lw	s0,96(a4)
    406a:	6f6c                	.2byte	0x6f6c
    406c:	2074                	.2byte	0x2074
    406e:	6f64                	.2byte	0x6f64
    4070:	656e                	.2byte	0x656e
    4072:	0a0d                	addi	s4,s4,3
    4074:	0000                	unimp
    4076:	0000                	unimp
    4078:	38335b1b          	.4byte	0x38335b1b
    407c:	353b313b          	.4byte	0x353b313b
    4080:	63656843          	.4byte	0x63656843
    4084:	6f63206b          	.4byte	0x6f63206b
    4088:	6564                	.2byte	0x6564
    408a:	30252073          	csrs	medeleg,a0
    408e:	342e                	.2byte	0x342e
    4090:	1b58                	addi	a4,sp,436
    4092:	0d6d305b          	.4byte	0xd6d305b
    4096:	000a                	c.slli	zero,0x2
    4098:	5041                	c.li	zero,-16
    409a:	2046                	.2byte	0x2046
    409c:	6572                	.2byte	0x6572
    409e:	6461                	lui	s0,0x18
    40a0:	203a                	.2byte	0x203a
    40a2:	6425                	lui	s0,0x9
    40a4:	202c                	.2byte	0x202c
    40a6:	3025                	jal	38ce <vbuf_printf+0x2b4>
    40a8:	342e                	.2byte	0x342e
    40aa:	2c78                	.2byte	0x2c78
    40ac:	2520                	.2byte	0x2520
    40ae:	2e30                	.2byte	0x2e30
    40b0:	7834                	.2byte	0x7834
    40b2:	202c                	.2byte	0x202c
    40b4:	6425                	lui	s0,0x9
    40b6:	0a0d                	addi	s4,s4,3
    40b8:	0000                	unimp
    40ba:	0000                	unimp
    40bc:	36335b1b          	.4byte	0x36335b1b
    40c0:	343b353b          	.4byte	0x343b353b
    40c4:	416d                	li	sp,27
    40c6:	4650                	lw	a2,12(a2)
    40c8:	4620                	lw	s0,72(a2)
    40ca:	4941                	li	s2,16
    40cc:	444c                	lw	a1,12(s0)
    40ce:	6420                	.2byte	0x6420
    40d0:	7461                	lui	s0,0xffff8
    40d2:	7361                	lui	t1,0xffff8
    40d4:	6f6c                	.2byte	0x6f6c
    40d6:	5f74                	lw	a3,124(a4)
    40d8:	6572                	.2byte	0x6572
    40da:	6461                	lui	s0,0x18
    40dc:	6320                	.2byte	0x6320
    40de:	6568                	.2byte	0x6568
    40e0:	203f6b63          	bltu	t5,gp,42f6 <stream_vscanf+0x82e>
    40e4:	6164                	.2byte	0x6164
    40e6:	6174                	.2byte	0x6174
    40e8:	746f6c73          	csrrsi	s8,0x746,30
    40ec:	2520                	.2byte	0x2520
    40ee:	2c64                	.2byte	0x2c64
    40f0:	6120                	.2byte	0x6120
    40f2:	6464                	.2byte	0x6464
    40f4:	6572                	.2byte	0x6572
    40f6:	25207373          	csrrci	t1,0x252,0
    40fa:	2e30                	.2byte	0x2e30
    40fc:	5834                	lw	a3,112(s0)
    40fe:	202c                	.2byte	0x202c
    4100:	7366666f          	jal	a2,6a836 <__ram_end+0x5a836>
    4104:	7465                	lui	s0,0xffff9
    4106:	3025                	jal	392e <vbuf_printf+0x314>
    4108:	342e                	.2byte	0x342e
    410a:	2c58                	.2byte	0x2c58
    410c:	6c20                	.2byte	0x6c20
    410e:	6e65                	lui	t3,0x19
    4110:	25687467          	.4byte	0x25687467
    4114:	2e30                	.2byte	0x2e30
    4116:	5834                	lw	a3,112(s0)
    4118:	6d305b1b          	.4byte	0x6d305b1b
    411c:	0a0d                	addi	s4,s4,3
    411e:	0000                	unimp
    4120:	36335b1b          	.4byte	0x36335b1b
    4124:	343b353b          	.4byte	0x343b353b
    4128:	416d                	li	sp,27
    412a:	4650                	lw	a2,12(a2)
    412c:	4620                	lw	s0,72(a2)
    412e:	4941                	li	s2,16
    4130:	444c                	lw	a1,12(s0)
    4132:	6420                	.2byte	0x6420
    4134:	7461                	lui	s0,0xffff8
    4136:	7361                	lui	t1,0xffff8
    4138:	6f6c                	.2byte	0x6f6c
    413a:	5f74                	lw	a3,124(a4)
    413c:	6572                	.2byte	0x6572
    413e:	6461                	lui	s0,0x18
    4140:	6420                	.2byte	0x6420
    4142:	3f656e6f          	jal	t3,5a538 <__ram_end+0x4a538>
    4146:	6420                	.2byte	0x6420
    4148:	7461                	lui	s0,0xffff8
    414a:	7361                	lui	t1,0xffff8
    414c:	6f6c                	.2byte	0x6f6c
    414e:	2074                	.2byte	0x2074
    4150:	6425                	lui	s0,0x9
    4152:	202c                	.2byte	0x202c
    4154:	6461                	lui	s0,0x18
    4156:	7264                	.2byte	0x7264
    4158:	7365                	lui	t1,0xffff9
    415a:	30252073          	csrs	medeleg,a0
    415e:	342e                	.2byte	0x342e
    4160:	2c58                	.2byte	0x2c58
    4162:	6f20                	.2byte	0x6f20
    4164:	6666                	.2byte	0x6666
    4166:	20746573          	csrrsi	a0,0x207,8
    416a:	3025                	jal	3992 <vbuf_printf+0x378>
    416c:	342e                	.2byte	0x342e
    416e:	2c58                	.2byte	0x2c58
    4170:	6c20                	.2byte	0x6c20
    4172:	6e65                	lui	t3,0x19
    4174:	20687467          	.4byte	0x20687467
    4178:	3025                	jal	39a0 <vbuf_printf+0x386>
    417a:	342e                	.2byte	0x342e
    417c:	2058                	.2byte	0x2058
    417e:	7265                	lui	tp,0xffff9
    4180:	6f72                	.2byte	0x6f72
    4182:	2072                	.2byte	0x2072
    4184:	3025                	jal	39ac <vbuf_printf+0x392>
    4186:	342e                	.2byte	0x342e
    4188:	1b58                	addi	a4,sp,436
    418a:	0d6d305b          	.4byte	0xd6d305b
    418e:	000a                	c.slli	zero,0x2
    4190:	38335b1b          	.4byte	0x38335b1b
    4194:	353b313b          	.4byte	0x353b313b
    4198:	646d                	lui	s0,0x1b
    419a:	1b656e6f          	jal	t3,5a350 <__ram_end+0x4a350>
    419e:	0d6d305b          	.4byte	0xd6d305b
    41a2:	000a                	c.slli	zero,0x2
    41a4:	36335b1b          	.4byte	0x36335b1b
    41a8:	343b353b          	.4byte	0x343b353b
    41ac:	416d                	li	sp,27
    41ae:	4650                	lw	a2,12(a2)
    41b0:	4620                	lw	s0,72(a2)
    41b2:	4941                	li	s2,16
    41b4:	444c                	lw	a1,12(s0)
    41b6:	7220                	.2byte	0x7220
    41b8:	6165                	addi	sp,sp,112
    41ba:	5f64                	lw	s1,124(a4)
    41bc:	626c                	.2byte	0x626c
    41be:	3f61                	jal	4156 <stream_vscanf+0x68e>
    41c0:	6c20                	.2byte	0x6c20
    41c2:	6e65                	lui	t3,0x19
    41c4:	20687467          	.4byte	0x20687467
    41c8:	3025                	jal	39f0 <sscanf>
    41ca:	342e                	.2byte	0x342e
    41cc:	1b58                	addi	a4,sp,436
    41ce:	0d6d305b          	.4byte	0xd6d305b
    41d2:	000a                	c.slli	zero,0x2
    41d4:	7325                	lui	t1,0xfffe9
    41d6:	0a0d                	addi	s4,s4,3
    41d8:	0000                	unimp
    41da:	0000                	unimp
    41dc:	4946                	lw	s2,80(sp)
    41de:	454c                	lw	a1,12(a0)
    41e0:	0000                	unimp
    41e2:	0000                	unimp
    41e4:	772e                	.2byte	0x772e
    41e6:	7661                	lui	a2,0xffff8
    41e8:	0000                	unimp
    41ea:	0000                	unimp
    41ec:	4942                	lw	s2,16(sp)
    41ee:	414e                	lw	sp,208(sp)
    41f0:	5952                	lw	s2,52(sp)
    41f2:	0000                	unimp
    41f4:	4f4d                	li	t5,19
    41f6:	4f54                	lw	a3,28(a4)
    41f8:	4f52                	lw	t5,20(sp)
    41fa:	414c                	lw	a1,4(a0)
    41fc:	0000                	unimp
    41fe:	0000                	unimp
    4200:	45564157          	.4byte	0x45564157
    4204:	0000                	unimp
    4206:	0000                	unimp
    4208:	5254                	lw	a3,36(a2)
    420a:	4341                	li	t1,16
    420c:	6425204b          	.4byte	0x6425204b
    4210:	2520                	.2byte	0x2520
    4212:	732a                	.2byte	0x732a
    4214:	0000                	unimp
    4216:	0000                	unimp
    4218:	5250                	lw	a2,36(a2)
    421a:	4745                	li	a4,17
    421c:	5041                	c.li	zero,-16
    421e:	2520                	.2byte	0x2520
    4220:	3230                	.2byte	0x3230
    4222:	3a64                	.2byte	0x3a64
    4224:	3025                	jal	3a4c <buf_peekchar>
    4226:	6432                	.2byte	0x6432
    4228:	253a                	.2byte	0x253a
    422a:	3230                	.2byte	0x3230
    422c:	0064                	addi	s1,sp,12
    422e:	0000                	unimp
    4230:	4f4d                	li	t5,19
    4232:	4544                	lw	s1,12(a0)
    4234:	2f31                	jal	4950 <sector_list+0xe8>
    4236:	3032                	.2byte	0x3032
    4238:	3834                	.2byte	0x3834
    423a:	0000                	unimp
    423c:	4f4d                	li	t5,19
    423e:	4544                	lw	s1,12(a0)
    4240:	2f31                	jal	495c <sector_list+0xf4>
    4242:	3332                	.2byte	0x3332
    4244:	3235                	jal	3b70 <stream_vscanf+0xa8>
    4246:	0000                	unimp
    4248:	5541                	li	a0,-16
    424a:	4944                	lw	s1,20(a0)
    424c:	0000004f          	.4byte	0x4f
    4250:	4e49                	li	t3,18
    4252:	4544                	lw	s1,12(a0)
    4254:	2058                	.2byte	0x2058
    4256:	3030                	.2byte	0x3030
    4258:	2520                	.2byte	0x2520
    425a:	3230                	.2byte	0x3230
    425c:	3a64                	.2byte	0x3a64
    425e:	3025                	jal	3a86 <stropen+0x4>
    4260:	6432                	.2byte	0x6432
    4262:	253a                	.2byte	0x253a
    4264:	3230                	.2byte	0x3230
    4266:	0064                	addi	s1,sp,12
    4268:	4e49                	li	t3,18
    426a:	4544                	lw	s1,12(a0)
    426c:	2058                	.2byte	0x2058
    426e:	2030                	.2byte	0x2030
    4270:	3025                	jal	3a98 <strstr+0x8>
    4272:	6432                	.2byte	0x6432
    4274:	253a                	.2byte	0x253a
    4276:	3230                	.2byte	0x3230
    4278:	3a64                	.2byte	0x3a64
    427a:	3025                	jal	3aa2 <strstr+0x12>
    427c:	6432                	.2byte	0x6432
    427e:	0000                	unimp
    4280:	4e49                	li	t3,18
    4282:	4544                	lw	s1,12(a0)
    4284:	2058                	.2byte	0x2058
    4286:	3130                	.2byte	0x3130
    4288:	2520                	.2byte	0x2520
    428a:	3230                	.2byte	0x3230
    428c:	3a64                	.2byte	0x3a64
    428e:	3025                	jal	3ab6 <strstr+0x26>
    4290:	6432                	.2byte	0x6432
    4292:	253a                	.2byte	0x253a
    4294:	3230                	.2byte	0x3230
    4296:	0064                	addi	s1,sp,12
    4298:	4e49                	li	t3,18
    429a:	4544                	lw	s1,12(a0)
    429c:	2058                	.2byte	0x2058
    429e:	2031                	jal	42aa <stream_vscanf+0x7e2>
    42a0:	3025                	jal	3ac8 <stream_vscanf>
    42a2:	6432                	.2byte	0x6432
    42a4:	253a                	.2byte	0x253a
    42a6:	3230                	.2byte	0x3230
    42a8:	3a64                	.2byte	0x3a64
    42aa:	3025                	jal	3ad2 <stream_vscanf+0xa>
    42ac:	6432                	.2byte	0x6432
    42ae:	0000                	unimp
    42b0:	6f66                	.2byte	0x6f66
    42b2:	3025206f          	j	565b4 <__ram_end+0x465b4>
    42b6:	342e                	.2byte	0x342e
    42b8:	2078                	.2byte	0x2078
    42ba:	20746e63          	bltu	s0,t2,44d6 <stream_vscanf+0xa0e>
    42be:	3025                	jal	3ae6 <stream_vscanf+0x1e>
    42c0:	342e                	.2byte	0x342e
    42c2:	2c78                	.2byte	0x2c78
    42c4:	2520                	.2byte	0x2520
    42c6:	2e30                	.2byte	0x2e30
    42c8:	7834                	.2byte	0x7834
    42ca:	0d20                	addi	s0,sp,664
    42cc:	000a                	c.slli	zero,0x2
    42ce:	0000                	unimp
    42d0:	6144                	.2byte	0x6144
    42d2:	6174                	.2byte	0x6174
    42d4:	746f6c73          	csrrsi	s8,0x746,30
    42d8:	3020                	.2byte	0x3020
    42da:	2520                	.2byte	0x2520
    42dc:	2064                	.2byte	0x2064
    42de:	6425                	lui	s0,0x9
    42e0:	0d20                	addi	s0,sp,664
    42e2:	000a                	c.slli	zero,0x2
    42e4:	6144                	.2byte	0x6144
    42e6:	6174                	.2byte	0x6174
    42e8:	746f6c73          	csrrsi	s8,0x746,30
    42ec:	3120                	.2byte	0x3120
    42ee:	2520                	.2byte	0x2520
    42f0:	2064                	.2byte	0x2064
    42f2:	6425                	lui	s0,0x9
    42f4:	0d20                	addi	s0,sp,664
    42f6:	000a                	c.slli	zero,0x2
    42f8:	6144                	.2byte	0x6144
    42fa:	6174                	.2byte	0x6174
    42fc:	746f6c73          	csrrsi	s8,0x746,30
    4300:	3220                	.2byte	0x3220
    4302:	2520                	.2byte	0x2520
    4304:	2064                	.2byte	0x2064
    4306:	6425                	lui	s0,0x9
    4308:	0d20                	addi	s0,sp,664
    430a:	000a                	c.slli	zero,0x2
    430c:	6144                	.2byte	0x6144
    430e:	6174                	.2byte	0x6174
    4310:	746f6c73          	csrrsi	s8,0x746,30
    4314:	3320                	.2byte	0x3320
    4316:	2520                	.2byte	0x2520
    4318:	2064                	.2byte	0x2064
    431a:	6425                	lui	s0,0x9
    431c:	0d20                	addi	s0,sp,664
    431e:	000a                	c.slli	zero,0x2
    4320:	6144                	.2byte	0x6144
    4322:	6174                	.2byte	0x6174
    4324:	746f6c73          	csrrsi	s8,0x746,30
    4328:	3920                	.2byte	0x3920
    432a:	2039                	jal	4338 <stream_vscanf+0x870>
    432c:	6425                	lui	s0,0x9
    432e:	2520                	.2byte	0x2520
    4330:	2064                	.2byte	0x2064
    4332:	0a0d                	addi	s4,s4,3
    4334:	0000                	unimp
    4336:	0000                	unimp
    4338:	6144                	.2byte	0x6144
    433a:	6174                	.2byte	0x6174
    433c:	746f6c73          	csrrsi	s8,0x746,30
    4340:	3120                	.2byte	0x3120
    4342:	3130                	.2byte	0x3130
    4344:	2520                	.2byte	0x2520
    4346:	2064                	.2byte	0x2064
    4348:	6425                	lui	s0,0x9
    434a:	0d20                	addi	s0,sp,664
    434c:	000a                	c.slli	zero,0x2
    434e:	0000                	unimp
    4350:	32335b1b          	.4byte	0x32335b1b
    4354:	506d                	c.li	zero,-5
    4356:	44434543          	.4byte	0x44434543
    435a:	203a                	.2byte	0x203a
    435c:	7254                	.2byte	0x7254
    435e:	6361                	lui	t1,0x18
    4360:	203d206b          	.4byte	0x203d206b
    4364:	7525                	lui	a0,0xfffe9
    4366:	202c                	.2byte	0x202c
    4368:	72617473          	csrrci	s0,mhpmevent6h,2
    436c:	2074                	.2byte	0x2074
    436e:	203d                	jal	439c <stream_vscanf+0x8d4>
    4370:	7525                	lui	a0,0xfffe9
    4372:	202c                	.2byte	0x202c
    4374:	6e65                	lui	t3,0x19
    4376:	2064                	.2byte	0x2064
    4378:	203d                	jal	43a6 <stream_vscanf+0x8de>
    437a:	7525                	lui	a0,0xfffe9
    437c:	202c                	.2byte	0x202c
    437e:	7366666f          	jal	a2,6aab4 <__ram_end+0x5aab4>
    4382:	7465                	lui	s0,0xffff9
    4384:	3d20                	.2byte	0x3d20
    4386:	2520                	.2byte	0x2520
    4388:	2c64                	.2byte	0x2c64
    438a:	7320                	.2byte	0x7320
    438c:	6365                	lui	t1,0x19
    438e:	6f74                	.2byte	0x6f74
    4390:	5f72                	lw	t5,60(sp)
    4392:	657a6973          	csrrsi	s2,0x657,20
    4396:	253d                	jal	49c4 <charfont+0x44>
    4398:	2c64                	.2byte	0x2c64
    439a:	7420                	.2byte	0x7420
    439c:	7079                	c.lui	zero,0xffffe
    439e:	2065                	jal	4446 <stream_vscanf+0x97e>
    43a0:	203d                	jal	43ce <stream_vscanf+0x906>
    43a2:	7525                	lui	a0,0xfffe9
    43a4:	202c                	.2byte	0x202c
    43a6:	6164                	.2byte	0x6164
    43a8:	6174                	.2byte	0x6174
    43aa:	746f6c73          	csrrsi	s8,0x746,30
    43ae:	3d20                	.2byte	0x3d20
    43b0:	2520                	.2byte	0x2520
    43b2:	0d75                	addi	s10,s10,29
    43b4:	1b0a                	slli	s6,s6,0x22
    43b6:	006d305b          	.4byte	0x6d305b
    43ba:	0000                	unimp
    43bc:	13de                	slli	t2,t2,0x37
    43be:	0000                	unimp
    43c0:	1486                	slli	s1,s1,0x21
    43c2:	0000                	unimp
    43c4:	12e2                	slli	t0,t0,0x38
    43c6:	0000                	unimp
    43c8:	13b0                	addi	a2,sp,488
    43ca:	0000                	unimp
    43cc:	13b0                	addi	a2,sp,488
    43ce:	0000                	unimp
    43d0:	14d4                	addi	a3,sp,612
    43d2:	0000                	unimp
    43d4:	136a                	slli	t1,t1,0x3a
    43d6:	0000                	unimp
    43d8:	7246                	.2byte	0x7246
    43da:	73206d6f          	jal	s10,ab0c <sector_buffer0+0x2b0c>
    43de:	6365                	lui	t1,0x19
    43e0:	6f74                	.2byte	0x6f74
    43e2:	2072                	.2byte	0x2072
    43e4:	6425                	lui	s0,0x9
    43e6:	7420                	.2byte	0x7420
    43e8:	6573206f          	j	3723e <__ram_end+0x2723e>
    43ec:	726f7463          	bgeu	t5,t1,4b14 <charfont+0x194>
    43f0:	2520                	.2byte	0x2520
    43f2:	3a64                	.2byte	0x3a64
    43f4:	000a                	c.slli	zero,0x2
    43f6:	0000                	unimp
    43f8:	6954                	.2byte	0x6954
    43fa:	656d                	lui	a0,0x1b
    43fc:	3d20                	.2byte	0x3d20
    43fe:	2520                	.2byte	0x2520
    4400:	2064                	.2byte	0x2064
    4402:	696d                	lui	s2,0x1b
    4404:	6c6c                	.2byte	0x6c6c
    4406:	7369                	lui	t1,0xffffa
    4408:	6365                	lui	t1,0x19
    440a:	73646e6f          	jal	t3,4ab40 <__ram_end+0x3ab40>
    440e:	000a                	c.slli	zero,0x2
    4410:	2d2d                	jal	4a4a <charfont+0xca>
    4412:	2d2d                	jal	4a4c <charfont+0xcc>
    4414:	2d2d                	jal	4a4e <charfont+0xce>
    4416:	2d2d                	jal	4a50 <charfont+0xd0>
    4418:	2d2d                	jal	4a52 <charfont+0xd2>
    441a:	2d2d                	jal	4a54 <charfont+0xd4>
    441c:	4f4e                	lw	t5,208(sp)
    441e:	4620                	lw	s0,72(a2)
    4420:	4c49                	li	s8,18
    4422:	5345                	li	t1,-15
    4424:	2d2d                	jal	4a5e <charfont+0xde>
    4426:	2d2d                	jal	4a60 <charfont+0xe0>
    4428:	2d2d                	jal	4a62 <charfont+0xe2>
    442a:	452d                	li	a0,11
    442c:	3030                	.2byte	0x3030
    442e:	0000                	unimp
    4430:	2020                	.2byte	0x2020
    4432:	2020                	.2byte	0x2020
    4434:	5020                	lw	s0,96(s0)
    4436:	656c                	.2byte	0x656c
    4438:	7361                	lui	t1,0xffff8
    443a:	2065                	jal	44e2 <stream_vscanf+0xa1a>
    443c:	63656863          	bltu	a0,s6,4a6c <charfont+0xec>
    4440:	6874206b          	.4byte	0x6874206b
    4444:	2065                	jal	44ec <stream_vscanf+0xa24>
    4446:	534a                	lw	t1,176(sp)
    4448:	20204e4f          	.4byte	0x20204e4f
    444c:	2020                	.2byte	0x2020
    444e:	0000                	unimp
    4450:	2020                	.2byte	0x2020
    4452:	2020                	.2byte	0x2020
    4454:	6946                	.2byte	0x6946
    4456:	656c                	.2byte	0x656c
    4458:	6f632073          	csrs	0x6f6,t1
    445c:	6c75                	lui	s8,0x1d
    445e:	2064                	.2byte	0x2064
    4460:	6562                	.2byte	0x6562
    4462:	6620                	.2byte	0x6620
    4464:	646e756f          	jal	a0,ebaaa <__ram_end+0xdbaaa>
    4468:	6920                	.2byte	0x6920
    446a:	206e                	.2byte	0x206e
    446c:	2020                	.2byte	0x2020
    446e:	0000                	unimp
    4470:	2020                	.2byte	0x2020
    4472:	2020                	.2byte	0x2020
    4474:	2020                	.2byte	0x2020
    4476:	2020                	.2byte	0x2020
    4478:	6874                	.2byte	0x6874
    447a:	2065                	jal	4522 <stream_vscanf+0xa5a>
    447c:	5041                	c.li	zero,-16
    447e:	2046                	.2byte	0x2046
    4480:	72616553          	.4byte	0x72616553
    4484:	202e6863          	bltu	t3,sp,4694 <stream_vscanf+0xbcc>
    4488:	2020                	.2byte	0x2020
    448a:	2020                	.2byte	0x2020
    448c:	2020                	.2byte	0x2020
    448e:	0000                	unimp
    4490:	4320                	lw	s0,64(a4)
    4492:	6568                	.2byte	0x6568
    4494:	44206b63          	bltu	zero,sp,48ea <sector_list+0x82>
    4498:	7269                	lui	tp,0xffffa
    449a:	6365                	lui	t1,0x19
    449c:	6f74                	.2byte	0x6f74
    449e:	7972                	.2byte	0x7972
    44a0:	4c20                	lw	s0,88(s0)
    44a2:	7461636f          	jal	t1,1abe8 <__ram_end+0xabe8>
    44a6:	6f69                	lui	t5,0x1a
    44a8:	736e                	.2byte	0x736e
    44aa:	6920                	.2byte	0x6920
    44ac:	206e                	.2byte	0x206e
    44ae:	0000                	unimp
    44b0:	2020                	.2byte	0x2020
    44b2:	2020                	.2byte	0x2020
    44b4:	2020                	.2byte	0x2020
    44b6:	2020                	.2byte	0x2020
    44b8:	6854                	.2byte	0x6854
    44ba:	2065                	jal	4562 <stream_vscanf+0xa9a>
    44bc:	534a                	lw	t1,176(sp)
    44be:	46204e4f          	.4byte	0x46204e4f
    44c2:	6c69                	lui	s8,0x1a
    44c4:	2065                	jal	456c <stream_vscanf+0xaa4>
    44c6:	0909                	addi	s2,s2,2 # 1b002 <__ram_end+0xb002>
    44c8:	0009                	c.nop	2
    44ca:	0000                	unimp
    44cc:	2020                	.2byte	0x2020
    44ce:	4120                	lw	s0,64(a0)
    44d0:	736c                	.2byte	0x736c
    44d2:	6863206f          	j	36b58 <__ram_end+0x26b58>
    44d6:	6365                	lui	t1,0x19
    44d8:	6966206b          	.4byte	0x6966206b
    44dc:	656c                	.2byte	0x656c
    44de:	6e20                	.2byte	0x6e20
    44e0:	6d61                	lui	s10,0x18
    44e2:	7365                	lui	t1,0xffff9
    44e4:	6120                	.2byte	0x6120
    44e6:	6572                	.2byte	0x6572
    44e8:	2020                	.2byte	0x2020
    44ea:	0000                	unimp
    44ec:	2020                	.2byte	0x2020
    44ee:	2020                	.2byte	0x2020
    44f0:	6220                	.2byte	0x6220
    44f2:	6c65                	lui	s8,0x19
    44f4:	3120776f          	jal	a4,b806 <sector_buffer0+0x3806>
    44f8:	3030                	.2byte	0x3030
    44fa:	4320                	lw	s0,64(a4)
    44fc:	6168                	.2byte	0x6168
    44fe:	7272                	.2byte	0x7272
    4500:	6361                	lui	t1,0x18
    4502:	6f74                	.2byte	0x6f74
    4504:	7372                	.2byte	0x7372
    4506:	2020                	.2byte	0x2020
    4508:	2020                	.2byte	0x2020
    450a:	0000                	unimp
    450c:	2020                	.2byte	0x2020
    450e:	2020                	.2byte	0x2020
    4510:	2020                	.2byte	0x2020
    4512:	2020                	.2byte	0x2020
    4514:	6420                	.2byte	0x6420
    4516:	7461                	lui	s0,0xffff8
    4518:	7361                	lui	t1,0xffff8
    451a:	6f6c                	.2byte	0x6f6c
    451c:	2074                	.2byte	0x2074
    451e:	6425                	lui	s0,0x9
    4520:	2020                	.2byte	0x2020
    4522:	2020                	.2byte	0x2020
    4524:	2020                	.2byte	0x2020
    4526:	2020                	.2byte	0x2020
    4528:	0000                	unimp
    452a:	0000                	unimp
    452c:	2d2d                	jal	4b66 <charfont+0x1e6>
    452e:	2d2d                	jal	4b68 <charfont+0x1e8>
    4530:	2d2d                	jal	4b6a <charfont+0x1ea>
    4532:	2d2d                	jal	4b6c <charfont+0x1ec>
    4534:	2d2d                	jal	4b6e <charfont+0x1ee>
    4536:	2d2d                	jal	4b70 <charfont+0x1f0>
    4538:	2d2d                	jal	4b72 <charfont+0x1f2>
    453a:	2d2d                	jal	4b74 <charfont+0x1f4>
    453c:	2d2d                	jal	4b76 <charfont+0x1f6>
    453e:	2d2d                	jal	4b78 <charfont+0x1f8>
    4540:	2d2d                	jal	4b7a <charfont+0x1fa>
    4542:	2d2d                	jal	4b7c <charfont+0x1fc>
    4544:	2d2d                	jal	4b7e <charfont+0x1fe>
    4546:	2d2d                	jal	4b80 <charfont+0x200>
    4548:	2d2d                	jal	4b82 <charfont+0x202>
    454a:	0000                	unimp
    454c:	6544                	.2byte	0x6544
    454e:	616c                	.2byte	0x616c
    4550:	3a79                	jal	3eee <stream_vscanf+0x426>
    4552:	2520                	.2byte	0x2520
    4554:	0064                	addi	s1,sp,12
    4556:	0000                	unimp
    4558:	2054                	.2byte	0x2054
    455a:	3a4d                	jal	3f0c <stream_vscanf+0x444>
    455c:	203a2053          	.4byte	0x203a2053
    4560:	6425                	lui	s0,0x9
    4562:	2520                	.2byte	0x2520
    4564:	2064                	.2byte	0x2064
    4566:	6425                	lui	s0,0x9
    4568:	0000                	unimp
    456a:	0000                	unimp
    456c:	2d2d                	jal	4ba6 <charfont+0x226>
    456e:	2d2d                	jal	4ba8 <charfont+0x228>
    4570:	2d2d                	jal	4baa <charfont+0x22a>
    4572:	442d                	li	s0,11
    4574:	7461                	lui	s0,0xffff8
    4576:	7361                	lui	t1,0xffff8
    4578:	6f6c                	.2byte	0x6f6c
    457a:	2074                	.2byte	0x2074
    457c:	7245                	lui	tp,0xffff1
    457e:	6f72                	.2byte	0x6f72
    4580:	2d72                	.2byte	0x2d72
    4582:	2d2d                	jal	4bbc <charfont+0x23c>
    4584:	252d                	jal	4bae <charfont+0x22e>
    4586:	0064                	addi	s1,sp,12
    4588:	2020                	.2byte	0x2020
    458a:	2020                	.2byte	0x2020
    458c:	5020                	lw	s0,96(s0)
    458e:	656c                	.2byte	0x656c
    4590:	7361                	lui	t1,0xffff8
    4592:	2065                	jal	463a <stream_vscanf+0xb72>
    4594:	63656863          	bltu	a0,s6,4bc4 <charfont+0x244>
    4598:	6874206b          	.4byte	0x6874206b
    459c:	2065                	jal	4644 <stream_vscanf+0xb7c>
    459e:	6966                	.2byte	0x6966
    45a0:	656c                	.2byte	0x656c
    45a2:	2020                	.2byte	0x2020
    45a4:	0020                	addi	s0,sp,8
    45a6:	0000                	unimp
    45a8:	2020                	.2byte	0x2020
    45aa:	2020                	.2byte	0x2020
    45ac:	7320                	.2byte	0x7320
    45ae:	7a69                	lui	s4,0xffffa
    45b0:	2065                	jal	4658 <stream_vscanf+0xb90>
    45b2:	7420726f          	jal	tp,bcf4 <sector_buffer0+0x3cf4>
    45b6:	6568                	.2byte	0x6568
    45b8:	6320                	.2byte	0x6320
    45ba:	6575                	lui	a0,0x1d
    45bc:	7420                	.2byte	0x7420
    45be:	6d69                	lui	s10,0x1a
    45c0:	7365                	lui	t1,0xffff9
    45c2:	2020                	.2byte	0x2020
    45c4:	0020                	addi	s0,sp,8
    45c6:	0000                	unimp
    45c8:	2049                	jal	464a <stream_vscanf+0xb82>
    45ca:	70617263          	bgeu	sp,t1,4cce <charfont+0x34e>
    45ce:	6570                	.2byte	0x6570
    45d0:	2064                	.2byte	0x2064
    45d2:	796d                	lui	s2,0xffffb
    45d4:	666c6573          	csrrsi	a0,0x666,24
    45d8:	0000                	unimp
    45da:	0000                	unimp
    45dc:	2ebe                	.2byte	0x2ebe
    45de:	0000                	unimp
    45e0:	2dc2                	.2byte	0x2dc2
    45e2:	0000                	unimp
    45e4:	2dc2                	.2byte	0x2dc2
    45e6:	0000                	unimp
    45e8:	2eb6                	.2byte	0x2eb6
    45ea:	0000                	unimp
    45ec:	2dc2                	.2byte	0x2dc2
    45ee:	0000                	unimp
    45f0:	2dc2                	.2byte	0x2dc2
    45f2:	0000                	unimp
    45f4:	2dc2                	.2byte	0x2dc2
    45f6:	0000                	unimp
    45f8:	2dc2                	.2byte	0x2dc2
    45fa:	0000                	unimp
    45fc:	2dc2                	.2byte	0x2dc2
    45fe:	0000                	unimp
    4600:	2dc2                	.2byte	0x2dc2
    4602:	0000                	unimp
    4604:	2dc2                	.2byte	0x2dc2
    4606:	0000                	unimp
    4608:	2eae                	.2byte	0x2eae
    460a:	0000                	unimp
    460c:	2dc2                	.2byte	0x2dc2
    460e:	0000                	unimp
    4610:	2ea6                	.2byte	0x2ea6
    4612:	0000                	unimp
    4614:	2dc2                	.2byte	0x2dc2
    4616:	0000                	unimp
    4618:	2dc2                	.2byte	0x2dc2
    461a:	0000                	unimp
    461c:	2e9e                	.2byte	0x2e9e
    461e:	0000                	unimp
    4620:	3130                	.2byte	0x3130
    4622:	3332                	.2byte	0x3332
    4624:	3534                	.2byte	0x3534
    4626:	3736                	.2byte	0x3736
    4628:	3938                	.2byte	0x3938
    462a:	4241                	li	tp,16
    462c:	46454443          	.4byte	0x46454443
    4630:	0000                	unimp
    4632:	0000                	unimp
    4634:	3130                	.2byte	0x3130
    4636:	3332                	.2byte	0x3332
    4638:	3534                	.2byte	0x3534
    463a:	3736                	.2byte	0x3736
    463c:	3938                	.2byte	0x3938
    463e:	6261                	lui	tp,0x18
    4640:	66656463          	bltu	a0,t1,4ca8 <charfont+0x328>
    4644:	0000                	unimp
    4646:	0000                	unimp
    4648:	36ea                	.2byte	0x36ea
    464a:	0000                	unimp
    464c:	394e                	.2byte	0x394e
    464e:	0000                	unimp
    4650:	366c                	.2byte	0x366c
    4652:	0000                	unimp
    4654:	366c                	.2byte	0x366c
    4656:	0000                	unimp
    4658:	366c                	.2byte	0x366c
    465a:	0000                	unimp
    465c:	366c                	.2byte	0x366c
    465e:	0000                	unimp
    4660:	366c                	.2byte	0x366c
    4662:	0000                	unimp
    4664:	366c                	.2byte	0x366c
    4666:	0000                	unimp
    4668:	366c                	.2byte	0x366c
    466a:	0000                	unimp
    466c:	3964                	.2byte	0x3964
    466e:	0000                	unimp
    4670:	366c                	.2byte	0x366c
    4672:	0000                	unimp
    4674:	366c                	.2byte	0x366c
    4676:	0000                	unimp
    4678:	366c                	.2byte	0x366c
    467a:	0000                	unimp
    467c:	3924                	.2byte	0x3924
    467e:	0000                	unimp
    4680:	366c                	.2byte	0x366c
    4682:	0000                	unimp
    4684:	366c                	.2byte	0x366c
    4686:	0000                	unimp
    4688:	3706                	.2byte	0x3706
    468a:	0000                	unimp
    468c:	366c                	.2byte	0x366c
    468e:	0000                	unimp
    4690:	394a                	.2byte	0x394a
    4692:	0000                	unimp
    4694:	366c                	.2byte	0x366c
    4696:	0000                	unimp
    4698:	366c                	.2byte	0x366c
    469a:	0000                	unimp
    469c:	3924                	.2byte	0x3924
    469e:	0000                	unimp
    46a0:	380c                	.2byte	0x380c
    46a2:	0000                	unimp
    46a4:	366c                	.2byte	0x366c
    46a6:	0000                	unimp
    46a8:	366c                	.2byte	0x366c
    46aa:	0000                	unimp
    46ac:	366c                	.2byte	0x366c
    46ae:	0000                	unimp
    46b0:	366c                	.2byte	0x366c
    46b2:	0000                	unimp
    46b4:	366c                	.2byte	0x366c
    46b6:	0000                	unimp
    46b8:	366c                	.2byte	0x366c
    46ba:	0000                	unimp
    46bc:	366c                	.2byte	0x366c
    46be:	0000                	unimp
    46c0:	3804                	.2byte	0x3804
    46c2:	0000                	unimp
    46c4:	398c                	.2byte	0x398c
    46c6:	0000                	unimp
    46c8:	366c                	.2byte	0x366c
    46ca:	0000                	unimp
    46cc:	366c                	.2byte	0x366c
    46ce:	0000                	unimp
    46d0:	366c                	.2byte	0x366c
    46d2:	0000                	unimp
    46d4:	366c                	.2byte	0x366c
    46d6:	0000                	unimp
    46d8:	366c                	.2byte	0x366c
    46da:	0000                	unimp
    46dc:	366c                	.2byte	0x366c
    46de:	0000                	unimp
    46e0:	366c                	.2byte	0x366c
    46e2:	0000                	unimp
    46e4:	366c                	.2byte	0x366c
    46e6:	0000                	unimp
    46e8:	366c                	.2byte	0x366c
    46ea:	0000                	unimp
    46ec:	366c                	.2byte	0x366c
    46ee:	0000                	unimp
    46f0:	366c                	.2byte	0x366c
    46f2:	0000                	unimp
    46f4:	366c                	.2byte	0x366c
    46f6:	0000                	unimp
    46f8:	366c                	.2byte	0x366c
    46fa:	0000                	unimp
    46fc:	366c                	.2byte	0x366c
    46fe:	0000                	unimp
    4700:	366c                	.2byte	0x366c
    4702:	0000                	unimp
    4704:	366c                	.2byte	0x366c
    4706:	0000                	unimp
    4708:	366c                	.2byte	0x366c
    470a:	0000                	unimp
    470c:	366c                	.2byte	0x366c
    470e:	0000                	unimp
    4710:	366c                	.2byte	0x366c
    4712:	0000                	unimp
    4714:	366c                	.2byte	0x366c
    4716:	0000                	unimp
    4718:	366c                	.2byte	0x366c
    471a:	0000                	unimp
    471c:	366c                	.2byte	0x366c
    471e:	0000                	unimp
    4720:	366c                	.2byte	0x366c
    4722:	0000                	unimp
    4724:	366c                	.2byte	0x366c
    4726:	0000                	unimp
    4728:	366c                	.2byte	0x366c
    472a:	0000                	unimp
    472c:	366c                	.2byte	0x366c
    472e:	0000                	unimp
    4730:	366c                	.2byte	0x366c
    4732:	0000                	unimp
    4734:	366c                	.2byte	0x366c
    4736:	0000                	unimp
    4738:	366c                	.2byte	0x366c
    473a:	0000                	unimp
    473c:	366c                	.2byte	0x366c
    473e:	0000                	unimp
    4740:	366c                	.2byte	0x366c
    4742:	0000                	unimp
    4744:	366c                	.2byte	0x366c
    4746:	0000                	unimp
    4748:	366c                	.2byte	0x366c
    474a:	0000                	unimp
    474c:	366c                	.2byte	0x366c
    474e:	0000                	unimp
    4750:	366c                	.2byte	0x366c
    4752:	0000                	unimp
    4754:	366c                	.2byte	0x366c
    4756:	0000                	unimp
    4758:	366c                	.2byte	0x366c
    475a:	0000                	unimp
    475c:	366c                	.2byte	0x366c
    475e:	0000                	unimp
    4760:	366c                	.2byte	0x366c
    4762:	0000                	unimp
    4764:	366c                	.2byte	0x366c
    4766:	0000                	unimp
    4768:	366c                	.2byte	0x366c
    476a:	0000                	unimp
    476c:	366c                	.2byte	0x366c
    476e:	0000                	unimp
    4770:	366c                	.2byte	0x366c
    4772:	0000                	unimp
    4774:	366c                	.2byte	0x366c
    4776:	0000                	unimp
    4778:	366c                	.2byte	0x366c
    477a:	0000                	unimp
    477c:	3968                	.2byte	0x3968
    477e:	0000                	unimp
    4780:	366c                	.2byte	0x366c
    4782:	0000                	unimp
    4784:	366c                	.2byte	0x366c
    4786:	0000                	unimp
    4788:	366c                	.2byte	0x366c
    478a:	0000                	unimp
    478c:	366c                	.2byte	0x366c
    478e:	0000                	unimp
    4790:	366c                	.2byte	0x366c
    4792:	0000                	unimp
    4794:	366c                	.2byte	0x366c
    4796:	0000                	unimp
    4798:	36ea                	.2byte	0x36ea
    479a:	0000                	unimp
    479c:	394e                	.2byte	0x394e
    479e:	0000                	unimp
    47a0:	366c                	.2byte	0x366c
    47a2:	0000                	unimp
    47a4:	366c                	.2byte	0x366c
    47a6:	0000                	unimp
    47a8:	366c                	.2byte	0x366c
    47aa:	0000                	unimp
    47ac:	366c                	.2byte	0x366c
    47ae:	0000                	unimp
    47b0:	366c                	.2byte	0x366c
    47b2:	0000                	unimp
    47b4:	366c                	.2byte	0x366c
    47b6:	0000                	unimp
    47b8:	366c                	.2byte	0x366c
    47ba:	0000                	unimp
    47bc:	3964                	.2byte	0x3964
    47be:	0000                	unimp
    47c0:	366c                	.2byte	0x366c
    47c2:	0000                	unimp
    47c4:	366c                	.2byte	0x366c
    47c6:	0000                	unimp
    47c8:	366c                	.2byte	0x366c
    47ca:	0000                	unimp
    47cc:	3924                	.2byte	0x3924
    47ce:	0000                	unimp
    47d0:	366c                	.2byte	0x366c
    47d2:	0000                	unimp
    47d4:	366c                	.2byte	0x366c
    47d6:	0000                	unimp
    47d8:	3706                	.2byte	0x3706
    47da:	0000                	unimp
    47dc:	366c                	.2byte	0x366c
    47de:	0000                	unimp
    47e0:	394a                	.2byte	0x394a
    47e2:	0000                	unimp
    47e4:	366c                	.2byte	0x366c
    47e6:	0000                	unimp
    47e8:	366c                	.2byte	0x366c
    47ea:	0000                	unimp
    47ec:	3924                	.2byte	0x3924
    47ee:	0000                	unimp
    47f0:	3c8a                	.2byte	0x3c8a
    47f2:	0000                	unimp
    47f4:	3c2a                	.2byte	0x3c2a
    47f6:	0000                	unimp
    47f8:	3c2a                	.2byte	0x3c2a
    47fa:	0000                	unimp
    47fc:	3c2a                	.2byte	0x3c2a
    47fe:	0000                	unimp
    4800:	3c2a                	.2byte	0x3c2a
    4802:	0000                	unimp
    4804:	3c2a                	.2byte	0x3c2a
    4806:	0000                	unimp
    4808:	3c2a                	.2byte	0x3c2a
    480a:	0000                	unimp
    480c:	3c2a                	.2byte	0x3c2a
    480e:	0000                	unimp
    4810:	3e86                	.2byte	0x3e86
    4812:	0000                	unimp
    4814:	3eee                	.2byte	0x3eee
    4816:	0000                	unimp
    4818:	3c2a                	.2byte	0x3c2a
    481a:	0000                	unimp
    481c:	3c2a                	.2byte	0x3c2a
    481e:	0000                	unimp
    4820:	3c2a                	.2byte	0x3c2a
    4822:	0000                	unimp
    4824:	3c2a                	.2byte	0x3c2a
    4826:	0000                	unimp
    4828:	3c2a                	.2byte	0x3c2a
    482a:	0000                	unimp
    482c:	3c2a                	.2byte	0x3c2a
    482e:	0000                	unimp
    4830:	3c2a                	.2byte	0x3c2a
    4832:	0000                	unimp
    4834:	3c2a                	.2byte	0x3c2a
    4836:	0000                	unimp
    4838:	3c2a                	.2byte	0x3c2a
    483a:	0000                	unimp
    483c:	3c2a                	.2byte	0x3c2a
    483e:	0000                	unimp
    4840:	3eea                	.2byte	0x3eea
    4842:	0000                	unimp
    4844:	3c2a                	.2byte	0x3c2a
    4846:	0000                	unimp
    4848:	3c2a                	.2byte	0x3c2a
    484a:	0000                	unimp
    484c:	3c2a                	.2byte	0x3c2a
    484e:	0000                	unimp
    4850:	3c8a                	.2byte	0x3c8a
    4852:	0000                	unimp
    4854:	3c2a                	.2byte	0x3c2a
    4856:	0000                	unimp
    4858:	3c2a                	.2byte	0x3c2a
    485a:	0000                	unimp
    485c:	3c2a                	.2byte	0x3c2a
    485e:	0000                	unimp
    4860:	3c2a                	.2byte	0x3c2a
    4862:	0000                	unimp
    4864:	3db0                	.2byte	0x3db0
	...
