
build.riscv.pce_mpu_bios/pce_mpu_bios:     file format elf32-littleriscv


Disassembly of section .text:

00000000 <boot_vector>:
       0:	01c0006f          	j	1c <boot_vector2>
       4:	0000                	unimp
	...

00000008 <ipc_vector>:
	...
      10:	1300006f          	j	140 <isr_vector>

00000014 <ipc_request>:
      14:	0000                	unimp
	...

00000018 <ipc_frame>:
      18:	0000                	unimp
	...

0000001c <boot_vector2>:
      1c:	aad9                	j	1f2 <start>
	...

0000003c <arg_argc>:
      3c:	00000000          	.word	0x00000000

00000040 <arg_argv>:
	...

00000140 <isr_vector>:
     140:	f7410113          	addi	sp,sp,-140
     144:	c57e                	sw	t6,136(sp)
     146:	c37a                	sw	t5,132(sp)
     148:	c176                	sw	t4,128(sp)
     14a:	def2                	sw	t3,124(sp)
     14c:	dcee                	sw	s11,120(sp)
     14e:	daea                	sw	s10,116(sp)
     150:	d8e6                	sw	s9,112(sp)
     152:	d6e2                	sw	s8,108(sp)
     154:	d4de                	sw	s7,104(sp)
     156:	d2da                	sw	s6,100(sp)
     158:	d0d6                	sw	s5,96(sp)
     15a:	ced2                	sw	s4,92(sp)
     15c:	ccce                	sw	s3,88(sp)
     15e:	caca                	sw	s2,84(sp)
     160:	c8c6                	sw	a7,80(sp)
     162:	c6c2                	sw	a6,76(sp)
     164:	c4be                	sw	a5,72(sp)
     166:	c2ba                	sw	a4,68(sp)
     168:	c0b6                	sw	a3,64(sp)
     16a:	de32                	sw	a2,60(sp)
     16c:	dc2e                	sw	a1,56(sp)
     16e:	da2a                	sw	a0,52(sp)
     170:	d826                	sw	s1,48(sp)
     172:	d622                	sw	s0,44(sp)
     174:	d41e                	sw	t2,40(sp)
     176:	d21a                	sw	t1,36(sp)
     178:	d016                	sw	t0,32(sp)
     17a:	ce12                	sw	tp,28(sp)
     17c:	cc0e                	sw	gp,24(sp)
     17e:	ca0a                	sw	sp,20(sp)
     180:	c806                	sw	ra,16(sp)
     182:	34202473          	csrr	s0,mcause
     186:	c422                	sw	s0,8(sp)
     188:	30002473          	csrr	s0,mstatus
     18c:	c222                	sw	s0,4(sp)
     18e:	34102473          	csrr	s0,mepc
     192:	c022                	sw	s0,0(sp)
     194:	850a                	mv	a0,sp
     196:	087020ef          	jal	ra,2a1c <_handle_trap>

0000019a <exception_return>:
     19a:	812a                	mv	sp,a0
     19c:	4402                	lw	s0,0(sp)
     19e:	34141073          	csrw	mepc,s0
     1a2:	4412                	lw	s0,4(sp)
     1a4:	30041073          	csrw	mstatus,s0
     1a8:	40c2                	lw	ra,16(sp)
     1aa:	41e2                	lw	gp,24(sp)
     1ac:	4272                	lw	tp,28(sp)
     1ae:	5282                	lw	t0,32(sp)
     1b0:	5312                	lw	t1,36(sp)
     1b2:	53a2                	lw	t2,40(sp)
     1b4:	5432                	lw	s0,44(sp)
     1b6:	54c2                	lw	s1,48(sp)
     1b8:	5552                	lw	a0,52(sp)
     1ba:	55e2                	lw	a1,56(sp)
     1bc:	5672                	lw	a2,60(sp)
     1be:	4686                	lw	a3,64(sp)
     1c0:	4716                	lw	a4,68(sp)
     1c2:	47a6                	lw	a5,72(sp)
     1c4:	4836                	lw	a6,76(sp)
     1c6:	48c6                	lw	a7,80(sp)
     1c8:	4956                	lw	s2,84(sp)
     1ca:	49e6                	lw	s3,88(sp)
     1cc:	4a76                	lw	s4,92(sp)
     1ce:	5a86                	lw	s5,96(sp)
     1d0:	5b16                	lw	s6,100(sp)
     1d2:	5ba6                	lw	s7,104(sp)
     1d4:	5c36                	lw	s8,108(sp)
     1d6:	5cc6                	lw	s9,112(sp)
     1d8:	5d56                	lw	s10,116(sp)
     1da:	5de6                	lw	s11,120(sp)
     1dc:	5e76                	lw	t3,124(sp)
     1de:	4e8a                	lw	t4,128(sp)
     1e0:	4f1a                	lw	t5,132(sp)
     1e2:	4faa                	lw	t6,136(sp)
     1e4:	08c10113          	addi	sp,sp,140
     1e8:	30200073          	mret

000001ec <exception_syscall>:
     1ec:	00000073          	ecall
     1f0:	8082                	ret

000001f2 <start>:
     1f2:	0000d137          	lui	sp,0xd
     1f6:	da810113          	addi	sp,sp,-600 # cda8 <_sp>
     1fa:	14000293          	li	t0,320
     1fe:	30529073          	csrw	mtvec,t0
     202:	6295                	lui	t0,0x5
     204:	01828293          	addi	t0,t0,24 # 5018 <sector_buffer0>
     208:	6335                	lui	t1,0xd
     20a:	db830313          	addi	t1,t1,-584 # cdb8 <_end>

0000020e <bss_clear>:
     20e:	0002a023          	sw	zero,0(t0)
     212:	0291                	addi	t0,t0,4
     214:	fe62cde3          	blt	t0,t1,20e <bss_clear>
     218:	00000517          	auipc	a0,0x0
     21c:	e2450513          	addi	a0,a0,-476 # 3c <arg_argc>
     220:	4108                	lw	a0,0(a0)
     222:	00000597          	auipc	a1,0x0
     226:	e1e58593          	addi	a1,a1,-482 # 40 <arg_argv>
     22a:	220000ef          	jal	ra,44a <main>
     22e:	2009                	jal	230 <_exit>

00000230 <_exit>:
     230:	0ff57513          	zext.b	a0,a0
     234:	7b251073          	csrw	dscratch0,a0

00000238 <_exit_loop>:
     238:	2001                	jal	238 <_exit_loop>

0000023a <_Z10core_reseti>:
     23a:	85aa                	mv	a1,a0
     23c:	faa02223          	sw	a0,-92(zero) # ffffffa4 <_end+0xffff31ec>
     240:	6511                	lui	a0,0x4
     242:	0ac50513          	addi	a0,a0,172 # 40ac <stream_vscanf+0x4c0>
     246:	4270206f          	j	2e6c <riscprintf_>

0000024a <_Z15full_core_resetv>:
     24a:	6511                	lui	a0,0x4
     24c:	1141                	addi	sp,sp,-16
     24e:	0b850513          	addi	a0,a0,184 # 40b8 <stream_vscanf+0x4cc>
     252:	c606                	sw	ra,12(sp)
     254:	c422                	sw	s0,8(sp)
     256:	c226                	sw	s1,4(sp)
     258:	6411                	lui	s0,0x4
     25a:	413020ef          	jal	ra,2e6c <riscprintf_>
     25e:	fa400493          	li	s1,-92
     262:	4581                	li	a1,0
     264:	0004a023          	sw	zero,0(s1)
     268:	0ac40513          	addi	a0,s0,172 # 40ac <stream_vscanf+0x4c0>
     26c:	401020ef          	jal	ra,2e6c <riscprintf_>
     270:	0c800513          	li	a0,200
     274:	1e8030ef          	jal	ra,345c <_Z10riscusleepi>
     278:	6515                	lui	a0,0x5
     27a:	e2050513          	addi	a0,a0,-480 # 4e20 <charfont+0x238>
     27e:	f0002023          	sw	zero,-256(zero) # ffffff00 <_end+0xffff3148>
     282:	1da030ef          	jal	ra,345c <_Z10riscusleepi>
     286:	77c1                	lui	a5,0xffff0
     288:	fb402703          	lw	a4,-76(zero) # ffffffb4 <_end+0xffff31fc>
     28c:	5388                	lw	a0,32(a5)
     28e:	53cc                	lw	a1,36(a5)
     290:	22c5                	jal	470 <_Z15pcecd_set_imageii>
     292:	4585                	li	a1,1
     294:	03300513          	li	a0,51
     298:	68d010ef          	jal	ra,2124 <_Z21HPS_spi_uio_cmd8_conthh>
     29c:	5ad010ef          	jal	ra,2048 <_Z13HPS_DisableIOv>
     2a0:	6511                	lui	a0,0x4
     2a2:	0d050513          	addi	a0,a0,208 # 40d0 <stream_vscanf+0x4e4>
     2a6:	3c7020ef          	jal	ra,2e6c <riscprintf_>
     2aa:	4785                	li	a5,1
     2ac:	c09c                	sw	a5,0(s1)
     2ae:	4585                	li	a1,1
     2b0:	0ac40513          	addi	a0,s0,172
     2b4:	3b9020ef          	jal	ra,2e6c <riscprintf_>
     2b8:	1f400513          	li	a0,500
     2bc:	1a0030ef          	jal	ra,345c <_Z10riscusleepi>
     2c0:	4422                	lw	s0,8(sp)
     2c2:	40b2                	lw	ra,12(sp)
     2c4:	4492                	lw	s1,4(sp)
     2c6:	6511                	lui	a0,0x4
     2c8:	0dc50513          	addi	a0,a0,220 # 40dc <stream_vscanf+0x4f0>
     2cc:	0141                	addi	sp,sp,16
     2ce:	39f0206f          	j	2e6c <riscprintf_>

000002d2 <_Z21core_update_dataslotsv>:
     2d2:	77c1                	lui	a5,0xffff0
     2d4:	fb402703          	lw	a4,-76(zero) # ffffffb4 <_end+0xffff31fc>
     2d8:	5388                	lw	a0,32(a5)
     2da:	53cc                	lw	a1,36(a5)
     2dc:	1141                	addi	sp,sp,-16
     2de:	c606                	sw	ra,12(sp)
     2e0:	2a41                	jal	470 <_Z15pcecd_set_imageii>
     2e2:	4585                	li	a1,1
     2e4:	03300513          	li	a0,51
     2e8:	63d010ef          	jal	ra,2124 <_Z21HPS_spi_uio_cmd8_conthh>
     2ec:	55d010ef          	jal	ra,2048 <_Z13HPS_DisableIOv>
     2f0:	40b2                	lw	ra,12(sp)
     2f2:	6511                	lui	a0,0x4
     2f4:	0d050513          	addi	a0,a0,208 # 40d0 <stream_vscanf+0x4e4>
     2f8:	0141                	addi	sp,sp,16
     2fa:	3730206f          	j	2e6c <riscprintf_>

000002fe <_Z12core_poll_iov>:
     2fe:	a419                	j	504 <_Z10pcecd_pollv>

00000300 <_Z15core_reg_updatev>:
     300:	f0402783          	lw	a5,-252(zero) # ffffff04 <_end+0xffff314c>
     304:	1141                	addi	sp,sp,-16
     306:	c606                	sw	ra,12(sp)
     308:	8b85                	andi	a5,a5,1
     30a:	c38d                	beqz	a5,32c <_Z15core_reg_updatev+0x2c>
     30c:	6525                	lui	a0,0x9
     30e:	4585                	li	a1,1
     310:	0b850513          	addi	a0,a0,184 # 90b8 <cue>
     314:	7d2010ef          	jal	ra,1ae6 <_ZN5cue_t9SetRegionEh>
     318:	f0402783          	lw	a5,-252(zero) # ffffff04 <_end+0xffff314c>
     31c:	8b89                	andi	a5,a5,2
     31e:	c38d                	beqz	a5,340 <_Z15core_reg_updatev+0x40>
     320:	40b2                	lw	ra,12(sp)
     322:	4789                	li	a5,2
     324:	f4f02a23          	sw	a5,-172(zero) # ffffff54 <_end+0xffff319c>
     328:	0141                	addi	sp,sp,16
     32a:	8082                	ret
     32c:	6525                	lui	a0,0x9
     32e:	4581                	li	a1,0
     330:	0b850513          	addi	a0,a0,184 # 90b8 <cue>
     334:	7b2010ef          	jal	ra,1ae6 <_ZN5cue_t9SetRegionEh>
     338:	f0402783          	lw	a5,-252(zero) # ffffff04 <_end+0xffff314c>
     33c:	8b89                	andi	a5,a5,2
     33e:	f3ed                	bnez	a5,320 <_Z15core_reg_updatev+0x20>
     340:	40b2                	lw	ra,12(sp)
     342:	f4002a23          	sw	zero,-172(zero) # ffffff54 <_end+0xffff319c>
     346:	0141                	addi	sp,sp,16
     348:	8082                	ret

0000034a <_Z18core_restart_firstv>:
     34a:	8082                	ret

0000034c <_Z16core_input_setupv>:
     34c:	8082                	ret

0000034e <_Z4initv>:
     34e:	1141                	addi	sp,sp,-16
     350:	4501                	li	a0,0
     352:	c606                	sw	ra,12(sp)
     354:	35dd                	jal	23a <_Z10core_reseti>
     356:	6ce020ef          	jal	ra,2a24 <_Z17DisableInterruptsv>
     35a:	0f4030ef          	jal	ra,344e <_Z8SetTimerv>
     35e:	6b4020ef          	jal	ra,2a12 <SetUART>
     362:	0d8030ef          	jal	ra,343a <_Z10ResetTimerv>
     366:	0007a537          	lui	a0,0x7a
     36a:	12050513          	addi	a0,a0,288 # 7a120 <_end+0x6d368>
     36e:	0ee030ef          	jal	ra,345c <_Z10riscusleepi>
     372:	6511                	lui	a0,0x4
     374:	55450513          	addi	a0,a0,1364 # 4554 <stream_vscanf+0x968>
     378:	2f5020ef          	jal	ra,2e6c <riscprintf_>
     37c:	40b2                	lw	ra,12(sp)
     37e:	0141                	addi	sp,sp,16
     380:	b7e9                	j	34a <_Z18core_restart_firstv>

00000382 <_Z8mainloopv>:
     382:	6509                	lui	a0,0x2
     384:	1101                	addi	sp,sp,-32
     386:	32850513          	addi	a0,a0,808 # 2328 <_Z14OsdWriteOffsethPKchhcccii+0x22>
     38a:	ce06                	sw	ra,28(sp)
     38c:	cc22                	sw	s0,24(sp)
     38e:	ca26                	sw	s1,20(sp)
     390:	c84a                	sw	s2,16(sp)
     392:	c64e                	sw	s3,12(sp)
     394:	0c8030ef          	jal	ra,345c <_Z10riscusleepi>
     398:	6511                	lui	a0,0x4
     39a:	0f450513          	addi	a0,a0,244 # 40f4 <stream_vscanf+0x508>
     39e:	2cf020ef          	jal	ra,2e6c <riscprintf_>
     3a2:	6511                	lui	a0,0x4
     3a4:	10c50513          	addi	a0,a0,268 # 410c <stream_vscanf+0x520>
     3a8:	2c5020ef          	jal	ra,2e6c <riscprintf_>
     3ac:	6511                	lui	a0,0x4
     3ae:	12850513          	addi	a0,a0,296 # 4128 <stream_vscanf+0x53c>
     3b2:	2bb020ef          	jal	ra,2e6c <riscprintf_>
     3b6:	6511                	lui	a0,0x4
     3b8:	13850513          	addi	a0,a0,312 # 4138 <stream_vscanf+0x54c>
     3bc:	2b1020ef          	jal	ra,2e6c <riscprintf_>
     3c0:	7d000513          	li	a0,2000
     3c4:	098030ef          	jal	ra,345c <_Z10riscusleepi>
     3c8:	4505                	li	a0,1
     3ca:	3d85                	jal	23a <_Z10core_reseti>
     3cc:	3719                	jal	2d2 <_Z21core_update_dataslotsv>
     3ce:	3fbd                	jal	34c <_Z16core_input_setupv>
     3d0:	654020ef          	jal	ra,2a24 <_Z17DisableInterruptsv>
     3d4:	6511                	lui	a0,0x4
     3d6:	15450513          	addi	a0,a0,340 # 4154 <stream_vscanf+0x568>
     3da:	293020ef          	jal	ra,2e6c <riscprintf_>
     3de:	046cf4b7          	lui	s1,0x46cf
     3e2:	71048593          	addi	a1,s1,1808 # 46cf710 <_end+0x46c2958>
     3e6:	4501                	li	a0,0
     3e8:	082030ef          	jal	ra,346a <_Z13RISCGetTimer1mi>
     3ec:	842a                	mv	s0,a0
     3ee:	6991                	lui	s3,0x4
     3f0:	6911                	lui	s2,0x4
     3f2:	71048493          	addi	s1,s1,1808
     3f6:	fb002783          	lw	a5,-80(zero) # ffffffb0 <_end+0xffff31f8>
     3fa:	ef99                	bnez	a5,418 <_Z8mainloopv+0x96>
     3fc:	3709                	jal	2fe <_Z12core_poll_iov>
     3fe:	3709                	jal	300 <_Z15core_reg_updatev>
     400:	8522                	mv	a0,s0
     402:	07c030ef          	jal	ra,347e <_Z15RISCCheckTimer1m>
     406:	e905                	bnez	a0,436 <_Z8mainloopv+0xb4>
     408:	f0002783          	lw	a5,-256(zero) # ffffff00 <_end+0xffff3148>
     40c:	8b85                	andi	a5,a5,1
     40e:	d7e5                	beqz	a5,3f6 <_Z8mainloopv+0x74>
     410:	3d2d                	jal	24a <_Z15full_core_resetv>
     412:	fb002783          	lw	a5,-80(zero) # ffffffb0 <_end+0xffff31f8>
     416:	d3fd                	beqz	a5,3fc <_Z8mainloopv+0x7a>
     418:	16c98513          	addi	a0,s3,364 # 416c <stream_vscanf+0x580>
     41c:	251020ef          	jal	ra,2e6c <riscprintf_>
     420:	3d4d                	jal	2d2 <_Z21core_update_dataslotsv>
     422:	18090513          	addi	a0,s2,384 # 4180 <stream_vscanf+0x594>
     426:	247020ef          	jal	ra,2e6c <riscprintf_>
     42a:	3dd1                	jal	2fe <_Z12core_poll_iov>
     42c:	3dd1                	jal	300 <_Z15core_reg_updatev>
     42e:	8522                	mv	a0,s0
     430:	04e030ef          	jal	ra,347e <_Z15RISCCheckTimer1m>
     434:	d971                	beqz	a0,408 <_Z8mainloopv+0x86>
     436:	320020ef          	jal	ra,2756 <_Z16osd_display_infov>
     43a:	07a030ef          	jal	ra,34b4 <_Z11ResetTimer1v>
     43e:	85a6                	mv	a1,s1
     440:	4501                	li	a0,0
     442:	028030ef          	jal	ra,346a <_Z13RISCGetTimer1mi>
     446:	842a                	mv	s0,a0
     448:	b7c1                	j	408 <_Z8mainloopv+0x86>

0000044a <main>:
     44a:	1141                	addi	sp,sp,-16
     44c:	c606                	sw	ra,12(sp)
     44e:	3701                	jal	34e <_Z4initv>
     450:	6515                	lui	a0,0x5
     452:	e2050513          	addi	a0,a0,-480 # 4e20 <charfont+0x238>
     456:	006030ef          	jal	ra,345c <_Z10riscusleepi>
     45a:	3725                	jal	382 <_Z8mainloopv>

0000045c <_Z15pcecd_send_dataPhih>:
     45c:	1141                	addi	sp,sp,-16
     45e:	03600613          	li	a2,54
     462:	c606                	sw	ra,12(sp)
     464:	569010ef          	jal	ra,21cc <_Z19HPS_io_file_tx_dataPKhmi>
     468:	40b2                	lw	ra,12(sp)
     46a:	4505                	li	a0,1
     46c:	0141                	addi	sp,sp,16
     46e:	8082                	ret

00000470 <_Z15pcecd_set_imageii>:
     470:	1101                	addi	sp,sp,-32
     472:	cc22                	sw	s0,24(sp)
     474:	6425                	lui	s0,0x9
     476:	ca26                	sw	s1,20(sp)
     478:	84aa                	mv	s1,a0
     47a:	0b840513          	addi	a0,s0,184 # 90b8 <cue>
     47e:	ce06                	sw	ra,28(sp)
     480:	c84a                	sw	s2,16(sp)
     482:	c64e                	sw	s3,12(sp)
     484:	58b000ef          	jal	ra,120e <_ZN5cue_t6UnloadEv>
     488:	0b840513          	addi	a0,s0,184
     48c:	5d5000ef          	jal	ra,1260 <_ZN5cue_t5ResetEv>
     490:	4985                	li	s3,1
     492:	0b840913          	addi	s2,s0,184
     496:	85a6                	mv	a1,s1
     498:	0b840513          	addi	a0,s0,184
     49c:	01390423          	sb	s3,8(s2)
     4a0:	555000ef          	jal	ra,11f4 <_ZN5cue_t4LoadEi>
     4a4:	03350863          	beq	a0,s3,4d4 <_Z15pcecd_set_imageii+0x64>
     4a8:	84aa                	mv	s1,a0
     4aa:	0b840513          	addi	a0,s0,184
     4ae:	561000ef          	jal	ra,120e <_ZN5cue_t6UnloadEv>
     4b2:	4581                	li	a1,0
     4b4:	03300513          	li	a0,51
     4b8:	4af010ef          	jal	ra,2166 <_Z16HPS_spi_uio_cmd8hh>
     4bc:	8526                	mv	a0,s1
     4be:	3ca020ef          	jal	ra,2888 <_Z26osd_display_error_datasloti>
     4c2:	01390423          	sb	s3,8(s2)
     4c6:	40f2                	lw	ra,28(sp)
     4c8:	4462                	lw	s0,24(sp)
     4ca:	44d2                	lw	s1,20(sp)
     4cc:	4942                	lw	s2,16(sp)
     4ce:	49b2                	lw	s3,12(sp)
     4d0:	6105                	addi	sp,sp,32
     4d2:	8082                	ret
     4d4:	00c92783          	lw	a5,12(s2)
     4d8:	4585                	li	a1,1
     4da:	03300513          	li	a0,51
     4de:	0017b793          	seqz	a5,a5
     4e2:	00f90423          	sb	a5,8(s2)
     4e6:	47a9                	li	a5,10
     4e8:	00f92023          	sw	a5,0(s2)
     4ec:	4462                	lw	s0,24(sp)
     4ee:	45c00793          	li	a5,1116
     4f2:	40f2                	lw	ra,28(sp)
     4f4:	44d2                	lw	s1,20(sp)
     4f6:	49b2                	lw	s3,12(sp)
     4f8:	00f92823          	sw	a5,16(s2)
     4fc:	4942                	lw	s2,16(sp)
     4fe:	6105                	addi	sp,sp,32
     500:	4670106f          	j	2166 <_Z16HPS_spi_uio_cmd8hh>

00000504 <_Z10pcecd_pollv>:
     504:	1101                	addi	sp,sp,-32
     506:	cc22                	sw	s0,24(sp)
     508:	6435                	lui	s0,0xd
     50a:	97442503          	lw	a0,-1676(s0) # c974 <_ZZ10pcecd_pollvE10poll_timer>
     50e:	ce06                	sw	ra,28(sp)
     510:	ca26                	sw	s1,20(sp)
     512:	c84a                	sw	s2,16(sp)
     514:	0c050663          	beqz	a0,5e0 <_Z10pcecd_pollv+0xdc>
     518:	78f020ef          	jal	ra,34a6 <_Z15RISCCheckTimer2m>
     51c:	0c051e63          	bnez	a0,5f8 <_Z10pcecd_pollv+0xf4>
     520:	03400513          	li	a0,52
     524:	3e7010ef          	jal	ra,210a <_Z20HPS_spi_uio_cmd_contt>
     528:	6735                	lui	a4,0xd
     52a:	97174683          	lbu	a3,-1679(a4) # c971 <_ZZ10pcecd_pollvE8last_req>
     52e:	0ff57793          	zext.b	a5,a0
     532:	08f68b63          	beq	a3,a5,5c8 <_Z10pcecd_pollv+0xc4>
     536:	4501                	li	a0,0
     538:	96f708a3          	sb	a5,-1679(a4)
     53c:	32b010ef          	jal	ra,2066 <_Z12HPS_fpga_spit>
     540:	87aa                	mv	a5,a0
     542:	4501                	li	a0,0
     544:	00f11023          	sh	a5,0(sp)
     548:	31f010ef          	jal	ra,2066 <_Z12HPS_fpga_spit>
     54c:	87aa                	mv	a5,a0
     54e:	4501                	li	a0,0
     550:	00f11123          	sh	a5,2(sp)
     554:	313010ef          	jal	ra,2066 <_Z12HPS_fpga_spit>
     558:	87aa                	mv	a5,a0
     55a:	4501                	li	a0,0
     55c:	00f11223          	sh	a5,4(sp)
     560:	307010ef          	jal	ra,2066 <_Z12HPS_fpga_spit>
     564:	87aa                	mv	a5,a0
     566:	4501                	li	a0,0
     568:	00f11323          	sh	a5,6(sp)
     56c:	2fb010ef          	jal	ra,2066 <_Z12HPS_fpga_spit>
     570:	87aa                	mv	a5,a0
     572:	4501                	li	a0,0
     574:	00f11423          	sh	a5,8(sp)
     578:	2ef010ef          	jal	ra,2066 <_Z12HPS_fpga_spit>
     57c:	87aa                	mv	a5,a0
     57e:	4501                	li	a0,0
     580:	00f11523          	sh	a5,10(sp)
     584:	2e3010ef          	jal	ra,2066 <_Z12HPS_fpga_spit>
     588:	00a11623          	sh	a0,12(sp)
     58c:	2bd010ef          	jal	ra,2048 <_Z13HPS_DisableIOv>
     590:	00c14783          	lbu	a5,12(sp)
     594:	4685                	li	a3,1
     596:	0ed78e63          	beq	a5,a3,692 <_Z10pcecd_pollv+0x18e>
     59a:	4709                	li	a4,2
     59c:	0ee78463          	beq	a5,a4,684 <_Z10pcecd_pollv+0x180>
     5a0:	c7e1                	beqz	a5,668 <_Z10pcecd_pollv+0x164>
     5a2:	6511                	lui	a0,0x4
     5a4:	19450513          	addi	a0,a0,404 # 4194 <stream_vscanf+0x5a8>
     5a8:	0c5020ef          	jal	ra,2e6c <riscprintf_>
     5ac:	67b5                	lui	a5,0xd
     5ae:	9607ac23          	sw	zero,-1672(a5) # c978 <_ZL10need_reset>
     5b2:	96042a23          	sw	zero,-1676(s0)
     5b6:	77c1                	lui	a5,0xffff0
     5b8:	4462                	lw	s0,24(sp)
     5ba:	5388                	lw	a0,32(a5)
     5bc:	40f2                	lw	ra,28(sp)
     5be:	44d2                	lw	s1,20(sp)
     5c0:	4942                	lw	s2,16(sp)
     5c2:	53cc                	lw	a1,36(a5)
     5c4:	6105                	addi	sp,sp,32
     5c6:	b56d                	j	470 <_Z15pcecd_set_imageii>
     5c8:	281010ef          	jal	ra,2048 <_Z13HPS_DisableIOv>
     5cc:	67b5                	lui	a5,0xd
     5ce:	9787a703          	lw	a4,-1672(a5) # c978 <_ZL10need_reset>
     5d2:	ff71                	bnez	a4,5ae <_Z10pcecd_pollv+0xaa>
     5d4:	40f2                	lw	ra,28(sp)
     5d6:	4462                	lw	s0,24(sp)
     5d8:	44d2                	lw	s1,20(sp)
     5da:	4942                	lw	s2,16(sp)
     5dc:	6105                	addi	sp,sp,32
     5de:	8082                	ret
     5e0:	000e15b7          	lui	a1,0xe1
     5e4:	9c058593          	addi	a1,a1,-1600 # e09c0 <_end+0xd3c08>
     5e8:	6ab020ef          	jal	ra,3492 <_Z13RISCGetTimer2mi>
     5ec:	96a42a23          	sw	a0,-1676(s0)
     5f0:	6b7020ef          	jal	ra,34a6 <_Z15RISCCheckTimer2m>
     5f4:	f20506e3          	beqz	a0,520 <_Z10pcecd_pollv+0x1c>
     5f8:	6925                	lui	s2,0x9
     5fa:	0b890493          	addi	s1,s2,184 # 90b8 <cue>
     5fe:	6c9020ef          	jal	ra,34c6 <_Z11ResetTimer2v>
     602:	4094                	lw	a3,0(s1)
     604:	e69d                	bnez	a3,632 <_Z10pcecd_pollv+0x12e>
     606:	0084c703          	lbu	a4,8(s1)
     60a:	4789                	li	a5,2
     60c:	02f71363          	bne	a4,a5,632 <_Z10pcecd_pollv+0x12e>
     610:	48dc                	lw	a5,20(s1)
     612:	4741                	li	a4,16
     614:	96e42a23          	sw	a4,-1676(s0)
     618:	cf95                	beqz	a5,654 <_Z10pcecd_pollv+0x150>
     61a:	0b890513          	addi	a0,s2,184
     61e:	444010ef          	jal	ra,1a62 <_ZN5cue_t9GetStatusEv>
     622:	85aa                	mv	a1,a0
     624:	0b890513          	addi	a0,s2,184
     628:	45e010ef          	jal	ra,1a86 <_ZN5cue_t10SendStatusEt>
     62c:	0004aa23          	sw	zero,20(s1)
     630:	a02d                	j	65a <_Z10pcecd_pollv+0x156>
     632:	6735                	lui	a4,0xd
     634:	97074783          	lbu	a5,-1680(a4) # c970 <_ZZ10pcecd_pollvE3adj>
     638:	460d                	li	a2,3
     63a:	06c78663          	beq	a5,a2,6a6 <_Z10pcecd_pollv+0x1a2>
     63e:	45b5                	li	a1,13
     640:	96b42a23          	sw	a1,-1676(s0)
     644:	06f67563          	bgeu	a2,a5,6ae <_Z10pcecd_pollv+0x1aa>
     648:	4789                	li	a5,2
     64a:	48d0                	lw	a2,20(s1)
     64c:	96f70823          	sb	a5,-1680(a4)
     650:	c211                	beqz	a2,654 <_Z10pcecd_pollv+0x150>
     652:	d6e1                	beqz	a3,61a <_Z10pcecd_pollv+0x116>
     654:	0184c783          	lbu	a5,24(s1)
     658:	e3ad                	bnez	a5,6ba <_Z10pcecd_pollv+0x1b6>
     65a:	0b890513          	addi	a0,s2,184
     65e:	57c010ef          	jal	ra,1bda <_ZN5cue_t6UpdateEv>
     662:	96042a23          	sw	zero,-1676(s0)
     666:	bd6d                	j	520 <_Z10pcecd_pollv+0x1c>
     668:	64a5                	lui	s1,0x9
     66a:	858a                	mv	a1,sp
     66c:	0b848513          	addi	a0,s1,184 # 90b8 <cue>
     670:	3fc010ef          	jal	ra,1a6c <_ZN5cue_t10SetCommandEPh>
     674:	0b848513          	addi	a0,s1,184
     678:	437000ef          	jal	ra,12ae <_ZN5cue_t11CommandExecEv>
     67c:	67b5                	lui	a5,0xd
     67e:	9787a703          	lw	a4,-1672(a5) # c978 <_ZL10need_reset>
     682:	bf81                	j	5d2 <_Z10pcecd_pollv+0xce>
     684:	67b5                	lui	a5,0xd
     686:	6625                	lui	a2,0x9
     688:	9787a703          	lw	a4,-1672(a5) # c978 <_ZL10need_reset>
     68c:	0cd608a3          	sb	a3,209(a2) # 90d1 <cue+0x19>
     690:	b789                	j	5d2 <_Z10pcecd_pollv+0xce>
     692:	6525                	lui	a0,0x9
     694:	4581                	li	a1,0
     696:	0b850513          	addi	a0,a0,184 # 90b8 <cue>
     69a:	3ec010ef          	jal	ra,1a86 <_ZN5cue_t10SendStatusEt>
     69e:	67b5                	lui	a5,0xd
     6a0:	9787a703          	lw	a4,-1672(a5) # c978 <_ZL10need_reset>
     6a4:	b73d                	j	5d2 <_Z10pcecd_pollv+0xce>
     6a6:	47b9                	li	a5,14
     6a8:	96f42a23          	sw	a5,-1676(s0)
     6ac:	bf71                	j	648 <_Z10pcecd_pollv+0x144>
     6ae:	17fd                	addi	a5,a5,-1
     6b0:	0ff7f793          	zext.b	a5,a5
     6b4:	fbd9                	bnez	a5,64a <_Z10pcecd_pollv+0x146>
     6b6:	478d                	li	a5,3
     6b8:	bf49                	j	64a <_Z10pcecd_pollv+0x146>
     6ba:	0b890513          	addi	a0,s2,184
     6be:	3f8010ef          	jal	ra,1ab6 <_ZN5cue_t15SendDataRequestEv>
     6c2:	00048c23          	sb	zero,24(s1)
     6c6:	bf51                	j	65a <_Z10pcecd_pollv+0x156>

000006c8 <_Z14dataslot_readyv>:
     6c8:	1141                	addi	sp,sp,-16
     6ca:	c422                	sw	s0,8(sp)
     6cc:	f9002403          	lw	s0,-112(zero) # ffffff90 <_end+0xffff31d8>
     6d0:	c606                	sw	ra,12(sp)
     6d2:	00747593          	andi	a1,s0,7
     6d6:	e981                	bnez	a1,6e6 <_Z14dataslot_readyv+0x1e>
     6d8:	40b2                	lw	ra,12(sp)
     6da:	00345513          	srli	a0,s0,0x3
     6de:	4422                	lw	s0,8(sp)
     6e0:	8905                	andi	a0,a0,1
     6e2:	0141                	addi	sp,sp,16
     6e4:	8082                	ret
     6e6:	6511                	lui	a0,0x4
     6e8:	1b050513          	addi	a0,a0,432 # 41b0 <stream_vscanf+0x5c4>
     6ec:	780020ef          	jal	ra,2e6c <riscprintf_>
     6f0:	40b2                	lw	ra,12(sp)
     6f2:	00345513          	srli	a0,s0,0x3
     6f6:	4422                	lw	s0,8(sp)
     6f8:	8905                	andi	a0,a0,1
     6fa:	0141                	addi	sp,sp,16
     6fc:	8082                	ret

000006fe <_Z13dataslot_sizet>:
     6fe:	7741                	lui	a4,0xffff0
     700:	4781                	li	a5,0
     702:	10200613          	li	a2,258
     706:	a021                	j	70e <_Z13dataslot_sizet+0x10>
     708:	0789                	addi	a5,a5,2
     70a:	00c78c63          	beq	a5,a2,722 <_Z13dataslot_sizet+0x24>
     70e:	4314                	lw	a3,0(a4)
     710:	0721                	addi	a4,a4,8 # ffff0008 <_end+0xfffe3250>
     712:	fea69be3          	bne	a3,a0,708 <_Z13dataslot_sizet+0xa>
     716:	0785                	addi	a5,a5,1
     718:	7741                	lui	a4,0xffff0
     71a:	078a                	slli	a5,a5,0x2
     71c:	97ba                	add	a5,a5,a4
     71e:	4388                	lw	a0,0(a5)
     720:	8082                	ret
     722:	77c1                	lui	a5,0xffff0
     724:	0791                	addi	a5,a5,4 # ffff0004 <_end+0xfffe324c>
     726:	4388                	lw	a0,0(a5)
     728:	8082                	ret

0000072a <_Z13dataslot_readtmmm>:
     72a:	1101                	addi	sp,sp,-32
     72c:	ca26                	sw	s1,20(sp)
     72e:	c84a                	sw	s2,16(sp)
     730:	c64e                	sw	s3,12(sp)
     732:	c452                	sw	s4,8(sp)
     734:	ce06                	sw	ra,28(sp)
     736:	cc22                	sw	s0,24(sp)
     738:	800007b7          	lui	a5,0x80000
     73c:	f8a02023          	sw	a0,-128(zero) # ffffff80 <_end+0xffff31c8>
     740:	8fcd                	or	a5,a5,a1
     742:	f8f02223          	sw	a5,-124(zero) # ffffff84 <_end+0xffff31cc>
     746:	f8d02423          	sw	a3,-120(zero) # ffffff88 <_end+0xffff31d0>
     74a:	f8c02623          	sw	a2,-116(zero) # ffffff8c <_end+0xffff31d4>
     74e:	4785                	li	a5,1
     750:	f8f02823          	sw	a5,-112(zero) # ffffff90 <_end+0xffff31d8>
     754:	8932                	mv	s2,a2
     756:	f8402603          	lw	a2,-124(zero) # ffffff84 <_end+0xffff31cc>
     75a:	84aa                	mv	s1,a0
     75c:	8a2e                	mv	s4,a1
     75e:	85aa                	mv	a1,a0
     760:	6511                	lui	a0,0x4
     762:	8736                	mv	a4,a3
     764:	89b6                	mv	s3,a3
     766:	1d050513          	addi	a0,a0,464 # 41d0 <stream_vscanf+0x5e4>
     76a:	86ca                	mv	a3,s2
     76c:	700020ef          	jal	ra,2e6c <riscprintf_>
     770:	4801                	li	a6,0
     772:	f9002403          	lw	s0,-112(zero) # ffffff90 <_end+0xffff31d8>
     776:	0805                	addi	a6,a6,1
     778:	3e982893          	slti	a7,a6,1001
     77c:	00445793          	srli	a5,s0,0x4
     780:	881d                	andi	s0,s0,7
     782:	8b85                	andi	a5,a5,1
     784:	ec11                	bnez	s0,7a0 <_Z13dataslot_readtmmm+0x76>
     786:	d7f5                	beqz	a5,772 <_Z13dataslot_readtmmm+0x48>
     788:	02088f63          	beqz	a7,7c6 <_Z13dataslot_readtmmm+0x9c>
     78c:	f9002403          	lw	s0,-112(zero) # ffffff90 <_end+0xffff31d8>
     790:	0805                	addi	a6,a6,1
     792:	3e982893          	slti	a7,a6,1001
     796:	00445793          	srli	a5,s0,0x4
     79a:	881d                	andi	s0,s0,7
     79c:	8b85                	andi	a5,a5,1
     79e:	d465                	beqz	s0,786 <_Z13dataslot_readtmmm+0x5c>
     7a0:	6511                	lui	a0,0x4
     7a2:	874e                	mv	a4,s3
     7a4:	86ca                	mv	a3,s2
     7a6:	8652                	mv	a2,s4
     7a8:	85a6                	mv	a1,s1
     7aa:	1f450513          	addi	a0,a0,500 # 41f4 <stream_vscanf+0x608>
     7ae:	6be020ef          	jal	ra,2e6c <riscprintf_>
     7b2:	40f2                	lw	ra,28(sp)
     7b4:	8522                	mv	a0,s0
     7b6:	4462                	lw	s0,24(sp)
     7b8:	44d2                	lw	s1,20(sp)
     7ba:	4942                	lw	s2,16(sp)
     7bc:	49b2                	lw	s3,12(sp)
     7be:	4a22                	lw	s4,8(sp)
     7c0:	6105                	addi	sp,sp,32
     7c2:	8082                	ret
     7c4:	e395                	bnez	a5,7e8 <_Z13dataslot_readtmmm+0xbe>
     7c6:	f9002783          	lw	a5,-112(zero) # ffffff90 <_end+0xffff31d8>
     7ca:	0077f413          	andi	s0,a5,7
     7ce:	8ba1                	andi	a5,a5,8
     7d0:	d875                	beqz	s0,7c4 <_Z13dataslot_readtmmm+0x9a>
     7d2:	6511                	lui	a0,0x4
     7d4:	87a2                	mv	a5,s0
     7d6:	874e                	mv	a4,s3
     7d8:	86ca                	mv	a3,s2
     7da:	8652                	mv	a2,s4
     7dc:	85a6                	mv	a1,s1
     7de:	25850513          	addi	a0,a0,600 # 4258 <stream_vscanf+0x66c>
     7e2:	68a020ef          	jal	ra,2e6c <riscprintf_>
     7e6:	b7f1                	j	7b2 <_Z13dataslot_readtmmm+0x88>
     7e8:	6511                	lui	a0,0x4
     7ea:	2c850513          	addi	a0,a0,712 # 42c8 <stream_vscanf+0x6dc>
     7ee:	67e020ef          	jal	ra,2e6c <riscprintf_>
     7f2:	b7c1                	j	7b2 <_Z13dataslot_readtmmm+0x88>

000007f4 <_Z21dataslot_read_lba_settmm>:
     7f4:	800007b7          	lui	a5,0x80000
     7f8:	f8a02023          	sw	a0,-128(zero) # ffffff80 <_end+0xffff31c8>
     7fc:	8ddd                	or	a1,a1,a5
     7fe:	f8b02223          	sw	a1,-124(zero) # ffffff84 <_end+0xffff31cc>
     802:	f8c02623          	sw	a2,-116(zero) # ffffff8c <_end+0xffff31d4>
     806:	4501                	li	a0,0
     808:	8082                	ret

0000080a <_Z17dataslot_read_lbam>:
     80a:	1141                	addi	sp,sp,-16
     80c:	c606                	sw	ra,12(sp)
     80e:	c422                	sw	s0,8(sp)
     810:	f8a02423          	sw	a0,-120(zero) # ffffff88 <_end+0xffff31d0>
     814:	4785                	li	a5,1
     816:	85aa                	mv	a1,a0
     818:	f8f02823          	sw	a5,-112(zero) # ffffff90 <_end+0xffff31d8>
     81c:	4701                	li	a4,0
     81e:	f9002783          	lw	a5,-112(zero) # ffffff90 <_end+0xffff31d8>
     822:	0705                	addi	a4,a4,1 # ffff0001 <_end+0xfffe3249>
     824:	06572693          	slti	a3,a4,101
     828:	8391                	srli	a5,a5,0x4
     82a:	8b85                	andi	a5,a5,1
     82c:	dbed                	beqz	a5,81e <_Z17dataslot_read_lbam+0x14>
     82e:	fae5                	bnez	a3,81e <_Z17dataslot_read_lbam+0x14>
     830:	f9002783          	lw	a5,-112(zero) # ffffff90 <_end+0xffff31d8>
     834:	0077f413          	andi	s0,a5,7
     838:	8ba1                	andi	a5,a5,8
     83a:	e801                	bnez	s0,84a <_Z17dataslot_read_lbam+0x40>
     83c:	e38d                	bnez	a5,85e <_Z17dataslot_read_lbam+0x54>
     83e:	f9002783          	lw	a5,-112(zero) # ffffff90 <_end+0xffff31d8>
     842:	0077f413          	andi	s0,a5,7
     846:	8ba1                	andi	a5,a5,8
     848:	d875                	beqz	s0,83c <_Z17dataslot_read_lbam+0x32>
     84a:	6511                	lui	a0,0x4
     84c:	2dc50513          	addi	a0,a0,732 # 42dc <stream_vscanf+0x6f0>
     850:	61c020ef          	jal	ra,2e6c <riscprintf_>
     854:	40b2                	lw	ra,12(sp)
     856:	8522                	mv	a0,s0
     858:	4422                	lw	s0,8(sp)
     85a:	0141                	addi	sp,sp,16
     85c:	8082                	ret
     85e:	f8c02783          	lw	a5,-116(zero) # ffffff8c <_end+0xffff31d4>
     862:	40b2                	lw	ra,12(sp)
     864:	8522                	mv	a0,s0
     866:	4422                	lw	s0,8(sp)
     868:	97ae                	add	a5,a5,a1
     86a:	f8f02623          	sw	a5,-116(zero) # ffffff8c <_end+0xffff31d4>
     86e:	0141                	addi	sp,sp,16
     870:	8082                	ret

00000872 <_Z22dataslot_read_lba_fastmb>:
     872:	c905                	beqz	a0,8a2 <_Z22dataslot_read_lba_fastmb+0x30>
     874:	f8a02423          	sw	a0,-120(zero) # ffffff88 <_end+0xffff31d0>
     878:	4785                	li	a5,1
     87a:	f8f02823          	sw	a5,-112(zero) # ffffff90 <_end+0xffff31d8>
     87e:	c195                	beqz	a1,8a2 <_Z22dataslot_read_lba_fastmb+0x30>
     880:	6689                	lui	a3,0x2
     882:	4701                	li	a4,0
     884:	71168693          	addi	a3,a3,1809 # 2711 <_Z10InfoEnableiiiiii+0x67>
     888:	f9002783          	lw	a5,-112(zero) # ffffff90 <_end+0xffff31d8>
     88c:	0705                	addi	a4,a4,1
     88e:	8391                	srli	a5,a5,0x4
     890:	8b85                	andi	a5,a5,1
     892:	dbfd                	beqz	a5,888 <_Z22dataslot_read_lba_fastmb+0x16>
     894:	fed74ae3          	blt	a4,a3,888 <_Z22dataslot_read_lba_fastmb+0x16>
     898:	f8c02783          	lw	a5,-116(zero) # ffffff8c <_end+0xffff31d4>
     89c:	97aa                	add	a5,a5,a0
     89e:	f8f02623          	sw	a5,-116(zero) # ffffff8c <_end+0xffff31d4>
     8a2:	4501                	li	a0,0
     8a4:	8082                	ret

000008a6 <_Z12RISCFileSeekimm>:
     8a6:	66b5                	lui	a3,0xd
     8a8:	9946a703          	lw	a4,-1644(a3) # c994 <sector_buffer_dataslot>
     8ac:	715d                	addi	sp,sp,-80
     8ae:	c4a2                	sw	s0,72(sp)
     8b0:	c2a6                	sw	s1,68(sp)
     8b2:	de4e                	sw	s3,60(sp)
     8b4:	dc52                	sw	s4,56(sp)
     8b6:	d85a                	sw	s6,48(sp)
     8b8:	d65e                	sw	s7,44(sp)
     8ba:	d462                	sw	s8,40(sp)
     8bc:	d06a                	sw	s10,32(sp)
     8be:	6a35                	lui	s4,0xd
     8c0:	6b35                	lui	s6,0xd
     8c2:	842a                	mv	s0,a0
     8c4:	6b95                	lui	s7,0x5
     8c6:	6c1d                	lui	s8,0x7
     8c8:	c686                	sw	ra,76(sp)
     8ca:	c0ca                	sw	s2,64(sp)
     8cc:	da56                	sw	s5,52(sp)
     8ce:	d266                	sw	s9,36(sp)
     8d0:	ce6e                	sw	s11,28(sp)
     8d2:	990a2783          	lw	a5,-1648(s4) # c990 <sector_buffer0_address>
     8d6:	98cb2503          	lw	a0,-1652(s6) # c98c <sector_buffer1_address>
     8da:	84ae                	mv	s1,a1
     8dc:	89b2                	mv	s3,a2
     8de:	018b8b93          	addi	s7,s7,24 # 5018 <sector_buffer0>
     8e2:	018c0c13          	addi	s8,s8,24 # 7018 <sector_buffer1>
     8e6:	6d35                	lui	s10,0xd
     8e8:	08870263          	beq	a4,s0,96c <_Z12RISCFileSeekimm+0xc6>
     8ec:	67b5                	lui	a5,0xd
     8ee:	9937a423          	sw	s3,-1656(a5) # c988 <sector_buffer_size>
     8f2:	67b5                	lui	a5,0xd
     8f4:	9886aa23          	sw	s0,-1644(a3)
     8f8:	989a2823          	sw	s1,-1648(s4)
     8fc:	980b2623          	sw	zero,-1652(s6)
     900:	980d2223          	sw	zero,-1660(s10) # c984 <sector_buffer_selector>
     904:	9807a023          	sw	zero,-1664(a5) # c980 <sector_buffer_offset>
     908:	4901                	li	s2,0
     90a:	a011                	j	90e <_Z12RISCFileSeekimm+0x68>
     90c:	0905                	addi	s2,s2,1
     90e:	3b6d                	jal	6c8 <_Z14dataslot_readyv>
     910:	dd75                	beqz	a0,90c <_Z12RISCFileSeekimm+0x66>
     912:	854a                	mv	a0,s2
     914:	71f010ef          	jal	ra,2832 <_Z23osd_display_info_updatei>
     918:	990a2603          	lw	a2,-1648(s4)
     91c:	0442                	slli	s0,s0,0x10
     91e:	8041                	srli	s0,s0,0x10
     920:	85de                	mv	a1,s7
     922:	8522                	mv	a0,s0
     924:	3dc1                	jal	7f4 <_Z21dataslot_read_lba_settmm>
     926:	990a2903          	lw	s2,-1648(s4)
     92a:	8522                	mv	a0,s0
     92c:	3bc9                	jal	6fe <_Z13dataslot_sizet>
     92e:	41250533          	sub	a0,a0,s2
     932:	6789                	lui	a5,0x2
     934:	12f55b63          	bge	a0,a5,a6a <_Z12RISCFileSeekimm+0x1c4>
     938:	3dc9                	jal	80a <_Z17dataslot_read_lbam>
     93a:	8522                	mv	a0,s0
     93c:	33c9                	jal	6fe <_Z13dataslot_sizet>
     93e:	6909                	lui	s2,0x2
     940:	12a96763          	bltu	s2,a0,a6e <_Z12RISCFileSeekimm+0x1c8>
     944:	67b5                	lui	a5,0xd
     946:	4705                	li	a4,1
     948:	96e7ae23          	sw	a4,-1668(a5) # c97c <sector_buffer_processing>
     94c:	40b6                	lw	ra,76(sp)
     94e:	4426                	lw	s0,72(sp)
     950:	4496                	lw	s1,68(sp)
     952:	4906                	lw	s2,64(sp)
     954:	59f2                	lw	s3,60(sp)
     956:	5a62                	lw	s4,56(sp)
     958:	5ad2                	lw	s5,52(sp)
     95a:	5b42                	lw	s6,48(sp)
     95c:	5bb2                	lw	s7,44(sp)
     95e:	5c22                	lw	s8,40(sp)
     960:	5c92                	lw	s9,36(sp)
     962:	5d02                	lw	s10,32(sp)
     964:	4df2                	lw	s11,28(sp)
     966:	4505                	li	a0,1
     968:	6161                	addi	sp,sp,80
     96a:	8082                	ret
     96c:	984d2e83          	lw	t4,-1660(s10)
     970:	00c588b3          	add	a7,a1,a2
     974:	6589                	lui	a1,0x2
     976:	95be                	add	a1,a1,a5
     978:	00f4b633          	sltu	a2,s1,a5
     97c:	00b8be33          	sltu	t3,a7,a1
     980:	00164613          	xori	a2,a2,1
     984:	fffe8313          	addi	t1,t4,-1
     988:	00ce7db3          	and	s11,t3,a2
     98c:	04031d63          	bnez	t1,9e6 <_Z12RISCFileSeekimm+0x140>
     990:	040d8b63          	beqz	s11,9e6 <_Z12RISCFileSeekimm+0x140>
     994:	8c9d                	sub	s1,s1,a5
     996:	6735                	lui	a4,0xd
     998:	980d2223          	sw	zero,-1660(s10)
     99c:	98972023          	sw	s1,-1664(a4) # c980 <sector_buffer_offset>
     9a0:	66b5                	lui	a3,0xd
     9a2:	6709                	lui	a4,0x2
     9a4:	97ba                	add	a5,a5,a4
     9a6:	4705                	li	a4,1
     9a8:	96e6ae23          	sw	a4,-1668(a3) # c97c <sector_buffer_processing>
     9ac:	98fb2623          	sw	a5,-1652(s6)
     9b0:	4481                	li	s1,0
     9b2:	a011                	j	9b6 <_Z12RISCFileSeekimm+0x110>
     9b4:	0485                	addi	s1,s1,1
     9b6:	3b09                	jal	6c8 <_Z14dataslot_readyv>
     9b8:	dd75                	beqz	a0,9b4 <_Z12RISCFileSeekimm+0x10e>
     9ba:	8526                	mv	a0,s1
     9bc:	677010ef          	jal	ra,2832 <_Z23osd_display_info_updatei>
     9c0:	98cb2603          	lw	a2,-1652(s6)
     9c4:	0442                	slli	s0,s0,0x10
     9c6:	8041                	srli	s0,s0,0x10
     9c8:	85e2                	mv	a1,s8
     9ca:	8522                	mv	a0,s0
     9cc:	3525                	jal	7f4 <_Z21dataslot_read_lba_settmm>
     9ce:	98cb2483          	lw	s1,-1652(s6)
     9d2:	8522                	mv	a0,s0
     9d4:	332d                	jal	6fe <_Z13dataslot_sizet>
     9d6:	8d05                	sub	a0,a0,s1
     9d8:	6789                	lui	a5,0x2
     9da:	00f54363          	blt	a0,a5,9e0 <_Z12RISCFileSeekimm+0x13a>
     9de:	6509                	lui	a0,0x2
     9e0:	4581                	li	a1,0
     9e2:	3d41                	jal	872 <_Z22dataslot_read_lba_fastmb>
     9e4:	b7a5                	j	94c <_Z12RISCFileSeekimm+0xa6>
     9e6:	6f09                	lui	t5,0x2
     9e8:	00a4b333          	sltu	t1,s1,a0
     9ec:	9f2a                	add	t5,t5,a0
     9ee:	8d89                	sub	a1,a1,a0
     9f0:	01e8b8b3          	sltu	a7,a7,t5
     9f4:	ffe36c93          	ori	s9,t1,-2
     9f8:	0015b593          	seqz	a1,a1
     9fc:	00bcfcb3          	and	s9,s9,a1
     a00:	011675b3          	and	a1,a2,a7
     a04:	00bcf733          	and	a4,s9,a1
     a08:	00134313          	xori	t1,t1,1
     a0c:	c43a                	sw	a4,8(sp)
     a0e:	8cba                	mv	s9,a4
     a10:	0068f8b3          	and	a7,a7,t1
     a14:	060e9e63          	bnez	t4,a90 <_Z12RISCFileSeekimm+0x1ea>
     a18:	06088c63          	beqz	a7,a90 <_Z12RISCFileSeekimm+0x1ea>
     a1c:	66b5                	lui	a3,0xd
     a1e:	9606ae23          	sw	zero,-1668(a3) # c97c <sector_buffer_processing>
     a22:	120c9963          	bnez	s9,b54 <_Z12RISCFileSeekimm+0x2ae>
     a26:	120d9763          	bnez	s11,b54 <_Z12RISCFileSeekimm+0x2ae>
     a2a:	4785                	li	a5,1
     a2c:	8c89                	sub	s1,s1,a0
     a2e:	98fd2223          	sw	a5,-1660(s10)
     a32:	67b5                	lui	a5,0xd
     a34:	9897a023          	sw	s1,-1664(a5) # c980 <sector_buffer_offset>
     a38:	6789                	lui	a5,0x2
     a3a:	953e                	add	a0,a0,a5
     a3c:	4785                	li	a5,1
     a3e:	96f6ae23          	sw	a5,-1668(a3)
     a42:	98aa2823          	sw	a0,-1648(s4)
     a46:	4481                	li	s1,0
     a48:	a011                	j	a4c <_Z12RISCFileSeekimm+0x1a6>
     a4a:	0485                	addi	s1,s1,1
     a4c:	39b5                	jal	6c8 <_Z14dataslot_readyv>
     a4e:	dd75                	beqz	a0,a4a <_Z12RISCFileSeekimm+0x1a4>
     a50:	8526                	mv	a0,s1
     a52:	5e1010ef          	jal	ra,2832 <_Z23osd_display_info_updatei>
     a56:	990a2603          	lw	a2,-1648(s4)
     a5a:	0442                	slli	s0,s0,0x10
     a5c:	8041                	srli	s0,s0,0x10
     a5e:	85de                	mv	a1,s7
     a60:	8522                	mv	a0,s0
     a62:	3b49                	jal	7f4 <_Z21dataslot_read_lba_settmm>
     a64:	990a2483          	lw	s1,-1648(s4)
     a68:	b7ad                	j	9d2 <_Z12RISCFileSeekimm+0x12c>
     a6a:	6509                	lui	a0,0x2
     a6c:	b5f1                	j	938 <_Z12RISCFileSeekimm+0x92>
     a6e:	01248633          	add	a2,s1,s2
     a72:	85e2                	mv	a1,s8
     a74:	8522                	mv	a0,s0
     a76:	98cb2623          	sw	a2,-1652(s6)
     a7a:	3bad                	jal	7f4 <_Z21dataslot_read_lba_settmm>
     a7c:	98cb2483          	lw	s1,-1652(s6)
     a80:	8522                	mv	a0,s0
     a82:	39b5                	jal	6fe <_Z13dataslot_sizet>
     a84:	8d05                	sub	a0,a0,s1
     a86:	0b255863          	bge	a0,s2,b36 <_Z12RISCFileSeekimm+0x290>
     a8a:	4581                	li	a1,0
     a8c:	33dd                	jal	872 <_Z22dataslot_read_lba_fastmb>
     a8e:	bd5d                	j	944 <_Z12RISCFileSeekimm+0x9e>
     a90:	41e78f33          	sub	t5,a5,t5
     a94:	fff64913          	not	s2,a2
     a98:	001f3f13          	seqz	t5,t5
     a9c:	01e97933          	and	s2,s2,t5
     aa0:	006e7e33          	and	t3,t3,t1
     aa4:	01b8e8b3          	or	a7,a7,s11
     aa8:	01c97933          	and	s2,s2,t3
     aac:	0018ca93          	xori	s5,a7,1
     ab0:	000c8463          	beqz	s9,ab8 <_Z12RISCFileSeekimm+0x212>
     ab4:	060a9963          	bnez	s5,b26 <_Z12RISCFileSeekimm+0x280>
     ab8:	08090163          	beqz	s2,b3a <_Z12RISCFileSeekimm+0x294>
     abc:	060a8f63          	beqz	s5,b3a <_Z12RISCFileSeekimm+0x294>
     ac0:	c602                	sw	zero,12(sp)
     ac2:	a021                	j	aca <_Z12RISCFileSeekimm+0x224>
     ac4:	47b2                	lw	a5,12(sp)
     ac6:	0785                	addi	a5,a5,1 # 2001 <_Z14get_cd_seek_msii+0x165>
     ac8:	c63e                	sw	a5,12(sp)
     aca:	3efd                	jal	6c8 <_Z14dataslot_readyv>
     acc:	dd65                	beqz	a0,ac4 <_Z12RISCFileSeekimm+0x21e>
     ace:	4532                	lw	a0,12(sp)
     ad0:	563010ef          	jal	ra,2832 <_Z23osd_display_info_updatei>
     ad4:	66b5                	lui	a3,0xd
     ad6:	9946a603          	lw	a2,-1644(a3) # c994 <sector_buffer_dataslot>
     ada:	47a2                	lw	a5,8(sp)
     adc:	00194913          	xori	s2,s2,1
     ae0:	0017c793          	xori	a5,a5,1
     ae4:	0127f933          	and	s2,a5,s2
     ae8:	40c407b3          	sub	a5,s0,a2
     aec:	012afab3          	and	s5,s5,s2
     af0:	0017b613          	seqz	a2,a5
     af4:	01567ab3          	and	s5,a2,s5
     af8:	de0a9ae3          	bnez	s5,8ec <_Z12RISCFileSeekimm+0x46>
     afc:	de0798e3          	bnez	a5,8ec <_Z12RISCFileSeekimm+0x46>
     b00:	66b5                	lui	a3,0xd
     b02:	97c6a603          	lw	a2,-1668(a3) # c97c <sector_buffer_processing>
     b06:	020c9c63          	bnez	s9,b3e <_Z12RISCFileSeekimm+0x298>
     b0a:	020d9a63          	bnez	s11,b3e <_Z12RISCFileSeekimm+0x298>
     b0e:	98cb2503          	lw	a0,-1652(s6)
     b12:	4785                	li	a5,1
     b14:	98fd2223          	sw	a5,-1660(s10)
     b18:	8c89                	sub	s1,s1,a0
     b1a:	67b5                	lui	a5,0xd
     b1c:	9897a023          	sw	s1,-1664(a5) # c980 <sector_buffer_offset>
     b20:	e20616e3          	bnez	a2,94c <_Z12RISCFileSeekimm+0xa6>
     b24:	bf11                	j	a38 <_Z12RISCFileSeekimm+0x192>
     b26:	c602                	sw	zero,12(sp)
     b28:	a021                	j	b30 <_Z12RISCFileSeekimm+0x28a>
     b2a:	47b2                	lw	a5,12(sp)
     b2c:	0785                	addi	a5,a5,1
     b2e:	c63e                	sw	a5,12(sp)
     b30:	3e61                	jal	6c8 <_Z14dataslot_readyv>
     b32:	dd65                	beqz	a0,b2a <_Z12RISCFileSeekimm+0x284>
     b34:	bf69                	j	ace <_Z12RISCFileSeekimm+0x228>
     b36:	6509                	lui	a0,0x2
     b38:	bf89                	j	a8a <_Z12RISCFileSeekimm+0x1e4>
     b3a:	8622                	mv	a2,s0
     b3c:	bf79                	j	ada <_Z12RISCFileSeekimm+0x234>
     b3e:	990a2783          	lw	a5,-1648(s4)
     b42:	6735                	lui	a4,0xd
     b44:	980d2223          	sw	zero,-1660(s10)
     b48:	8c9d                	sub	s1,s1,a5
     b4a:	98972023          	sw	s1,-1664(a4) # c980 <sector_buffer_offset>
     b4e:	de061fe3          	bnez	a2,94c <_Z12RISCFileSeekimm+0xa6>
     b52:	bd81                	j	9a2 <_Z12RISCFileSeekimm+0xfc>
     b54:	8c9d                	sub	s1,s1,a5
     b56:	6735                	lui	a4,0xd
     b58:	980d2223          	sw	zero,-1660(s10)
     b5c:	98972023          	sw	s1,-1664(a4) # c980 <sector_buffer_offset>
     b60:	b589                	j	9a2 <_Z12RISCFileSeekimm+0xfc>

00000b62 <_Z15RISCFileReadAdvihhhm>:
     b62:	1101                	addi	sp,sp,-32
     b64:	c256                	sw	s5,4(sp)
     b66:	67b5                	lui	a5,0xd
     b68:	6ab5                	lui	s5,0xd
     b6a:	9887a783          	lw	a5,-1656(a5) # c988 <sector_buffer_size>
     b6e:	c64e                	sw	s3,12(sp)
     b70:	980aa983          	lw	s3,-1664(s5) # c980 <sector_buffer_offset>
     b74:	ca26                	sw	s1,20(sp)
     b76:	c84a                	sw	s2,16(sp)
     b78:	c452                	sw	s4,8(sp)
     b7a:	0622                	slli	a2,a2,0x8
     b7c:	ce06                	sw	ra,28(sp)
     b7e:	cc22                	sw	s0,24(sp)
     b80:	97ce                	add	a5,a5,s3
     b82:	6509                	lui	a0,0x2
     b84:	8936                	mv	s2,a3
     b86:	8a3a                	mv	s4,a4
     b88:	00b664b3          	or	s1,a2,a1
     b8c:	04a7f863          	bgeu	a5,a0,bdc <_Z15RISCFileReadAdvihhhm+0x7a>
     b90:	67b5                	lui	a5,0xd
     b92:	9847a783          	lw	a5,-1660(a5) # c984 <sector_buffer_selector>
     b96:	cf95                	beqz	a5,bd2 <_Z15RISCFileReadAdvihhhm+0x70>
     b98:	641d                	lui	s0,0x7
     b9a:	01840413          	addi	s0,s0,24 # 7018 <sector_buffer1>
     b9e:	944e                	add	s0,s0,s3
     ba0:	492010ef          	jal	ra,2032 <_Z12HPS_EnableIOv>
     ba4:	854a                	mv	a0,s2
     ba6:	4c0010ef          	jal	ra,2066 <_Z12HPS_fpga_spit>
     baa:	8526                	mv	a0,s1
     bac:	4ba010ef          	jal	ra,2066 <_Z12HPS_fpga_spit>
     bb0:	4605                	li	a2,1
     bb2:	85d2                	mv	a1,s4
     bb4:	8522                	mv	a0,s0
     bb6:	4f4010ef          	jal	ra,20aa <_Z13HPS_spi_writePKhmi>
     bba:	48e010ef          	jal	ra,2048 <_Z13HPS_DisableIOv>
     bbe:	40f2                	lw	ra,28(sp)
     bc0:	4462                	lw	s0,24(sp)
     bc2:	44d2                	lw	s1,20(sp)
     bc4:	4942                	lw	s2,16(sp)
     bc6:	49b2                	lw	s3,12(sp)
     bc8:	4a22                	lw	s4,8(sp)
     bca:	4a92                	lw	s5,4(sp)
     bcc:	4505                	li	a0,1
     bce:	6105                	addi	sp,sp,32
     bd0:	8082                	ret
     bd2:	6415                	lui	s0,0x5
     bd4:	01840413          	addi	s0,s0,24 # 5018 <sector_buffer0>
     bd8:	944e                	add	s0,s0,s3
     bda:	b7d9                	j	ba0 <_Z15RISCFileReadAdvihhhm+0x3e>
     bdc:	4401                	li	s0,0
     bde:	a011                	j	be2 <_Z15RISCFileReadAdvihhhm+0x80>
     be0:	0405                	addi	s0,s0,1
     be2:	34dd                	jal	6c8 <_Z14dataslot_readyv>
     be4:	dd75                	beqz	a0,be0 <_Z15RISCFileReadAdvihhhm+0x7e>
     be6:	8522                	mv	a0,s0
     be8:	44b010ef          	jal	ra,2832 <_Z23osd_display_info_updatei>
     bec:	67b5                	lui	a5,0xd
     bee:	9847a783          	lw	a5,-1660(a5) # c984 <sector_buffer_selector>
     bf2:	7479                	lui	s0,0xffffe
     bf4:	944e                	add	s0,s0,s3
     bf6:	980aaa83          	lw	s5,-1664(s5)
     bfa:	9452                	add	s0,s0,s4
     bfc:	cf8d                	beqz	a5,c36 <_Z15RISCFileReadAdvihhhm+0xd4>
     bfe:	679d                	lui	a5,0x7
     c00:	01878793          	addi	a5,a5,24 # 7018 <sector_buffer1>
     c04:	6a15                	lui	s4,0x5
     c06:	9abe                	add	s5,s5,a5
     c08:	018a0a13          	addi	s4,s4,24 # 5018 <sector_buffer0>
     c0c:	426010ef          	jal	ra,2032 <_Z12HPS_EnableIOv>
     c10:	854a                	mv	a0,s2
     c12:	454010ef          	jal	ra,2066 <_Z12HPS_fpga_spit>
     c16:	8526                	mv	a0,s1
     c18:	44e010ef          	jal	ra,2066 <_Z12HPS_fpga_spit>
     c1c:	6589                	lui	a1,0x2
     c1e:	413585b3          	sub	a1,a1,s3
     c22:	8556                	mv	a0,s5
     c24:	4605                	li	a2,1
     c26:	484010ef          	jal	ra,20aa <_Z13HPS_spi_writePKhmi>
     c2a:	4605                	li	a2,1
     c2c:	85a2                	mv	a1,s0
     c2e:	8552                	mv	a0,s4
     c30:	47a010ef          	jal	ra,20aa <_Z13HPS_spi_writePKhmi>
     c34:	b759                	j	bba <_Z15RISCFileReadAdvihhhm+0x58>
     c36:	6795                	lui	a5,0x5
     c38:	01878793          	addi	a5,a5,24 # 5018 <sector_buffer0>
     c3c:	6a1d                	lui	s4,0x7
     c3e:	9abe                	add	s5,s5,a5
     c40:	018a0a13          	addi	s4,s4,24 # 7018 <sector_buffer1>
     c44:	b7e1                	j	c0c <_Z15RISCFileReadAdvihhhm+0xaa>

00000c46 <_ZN5cue_t7LoadCUEEi>:
     c46:	711d                	addi	sp,sp,-96
     c48:	c6ce                	sw	s3,76(sp)
     c4a:	89aa                	mv	s3,a0
     c4c:	06400513          	li	a0,100
     c50:	caa6                	sw	s1,84(sp)
     c52:	ce86                	sw	ra,92(sp)
     c54:	cca2                	sw	s0,88(sp)
     c56:	c8ca                	sw	s2,80(sp)
     c58:	c4d2                	sw	s4,72(sp)
     c5a:	c2d6                	sw	s5,68(sp)
     c5c:	c0da                	sw	s6,64(sp)
     c5e:	de5e                	sw	s7,60(sp)
     c60:	dc62                	sw	s8,56(sp)
     c62:	da66                	sw	s9,52(sp)
     c64:	d86a                	sw	s10,48(sp)
     c66:	d66e                	sw	s11,44(sp)
     c68:	84ae                	mv	s1,a1
     c6a:	a95ff0ef          	jal	ra,6fe <_Z13dataslot_sizet>
     c6e:	52050563          	beqz	a0,1198 <_ZN5cue_t7LoadCUEEi+0x552>
     c72:	842a                	mv	s0,a0
     c74:	06600513          	li	a0,102
     c78:	a87ff0ef          	jal	ra,6fe <_Z13dataslot_sizet>
     c7c:	6785                	lui	a5,0x1
     c7e:	7741                	lui	a4,0xffff0
     c80:	80078793          	addi	a5,a5,-2048 # 800 <_Z21dataslot_read_lba_settmm+0xc>
     c84:	8b2a                	mv	s6,a0
     c86:	01049513          	slli	a0,s1,0x10
     c8a:	cb5c                	sw	a5,20(a4)
     c8c:	6c35                	lui	s8,0xd
     c8e:	67b9                	lui	a5,0xe
     c90:	86a2                	mv	a3,s0
     c92:	4601                	li	a2,0
     c94:	8000e5b7          	lui	a1,0x8000e
     c98:	8141                	srli	a0,a0,0x10
     c9a:	98fc2c23          	sw	a5,-1640(s8) # c998 <foo1>
     c9e:	4a01                	li	s4,0
     ca0:	a8bff0ef          	jal	ra,72a <_Z13dataslot_readtmmm>
     ca4:	4a81                	li	s5,0
     ca6:	6925                	lui	s2,0x9
     ca8:	4cb5                	li	s9,13
     caa:	07e00d13          	li	s10,126
     cae:	6491                	lui	s1,0x4
     cb0:	998c2783          	lw	a5,-1640(s8)
     cb4:	02090c23          	sb	zero,56(s2) # 9038 <_ZZN5cue_t7LoadCUEEiE4line>
     cb8:	03890b93          	addi	s7,s2,56
     cbc:	ce3e                	sw	a5,28(sp)
     cbe:	0007c703          	lbu	a4,0(a5) # e000 <_end+0x1248>
     cc2:	cf31                	beqz	a4,d1e <_ZN5cue_t7LoadCUEEi+0xd8>
     cc4:	998c2683          	lw	a3,-1640(s8)
     cc8:	4601                	li	a2,0
     cca:	48a9                	li	a7,10
     ccc:	11170a63          	beq	a4,a7,de0 <_ZN5cue_t7LoadCUEEi+0x19a>
     cd0:	0785                	addi	a5,a5,1
     cd2:	0685                	addi	a3,a3,1
     cd4:	01970f63          	beq	a4,s9,cf2 <_ZN5cue_t7LoadCUEEi+0xac>
     cd8:	00160593          	addi	a1,a2,1
     cdc:	01760833          	add	a6,a2,s7
     ce0:	01758533          	add	a0,a1,s7
     ce4:	00cd4763          	blt	s10,a2,cf2 <_ZN5cue_t7LoadCUEEi+0xac>
     ce8:	00e80023          	sb	a4,0(a6)
     cec:	00050023          	sb	zero,0(a0) # 2000 <_Z14get_cd_seek_msii+0x164>
     cf0:	862e                	mv	a2,a1
     cf2:	ce3e                	sw	a5,28(sp)
     cf4:	98dc2c23          	sw	a3,-1640(s8)
     cf8:	0007c703          	lbu	a4,0(a5)
     cfc:	fb61                	bnez	a4,ccc <_ZN5cue_t7LoadCUEEi+0x86>
     cfe:	0007c783          	lbu	a5,0(a5)
     d02:	cf91                	beqz	a5,d1e <_ZN5cue_t7LoadCUEEi+0xd8>
     d04:	998c2583          	lw	a1,-1640(s8)
     d08:	0874                	addi	a3,sp,28
     d0a:	42048513          	addi	a0,s1,1056 # 4420 <stream_vscanf+0x834>
     d0e:	15e020ef          	jal	ra,2e6c <riscprintf_>
     d12:	998c2783          	lw	a5,-1640(s8)
     d16:	7749                	lui	a4,0xffff2
     d18:	973e                	add	a4,a4,a5
     d1a:	fa8771e3          	bgeu	a4,s0,cbc <_ZN5cue_t7LoadCUEEi+0x76>
     d1e:	03894783          	lbu	a5,56(s2)
     d22:	20078463          	beqz	a5,f2a <_ZN5cue_t7LoadCUEEi+0x2e4>
     d26:	6511                	lui	a0,0x4
     d28:	03890593          	addi	a1,s2,56
     d2c:	30c50513          	addi	a0,a0,780 # 430c <stream_vscanf+0x720>
     d30:	13c020ef          	jal	ra,2e6c <riscprintf_>
     d34:	03894703          	lbu	a4,56(s2)
     d38:	02000793          	li	a5,32
     d3c:	03890b93          	addi	s7,s2,56
     d40:	00f71963          	bne	a4,a5,d52 <_ZN5cue_t7LoadCUEEi+0x10c>
     d44:	02000713          	li	a4,32
     d48:	001bc783          	lbu	a5,1(s7)
     d4c:	0b85                	addi	s7,s7,1
     d4e:	fee78de3          	beq	a5,a4,d48 <_ZN5cue_t7LoadCUEEi+0x102>
     d52:	000bc703          	lbu	a4,0(s7)
     d56:	04600793          	li	a5,70
     d5a:	08f70b63          	beq	a4,a5,df0 <_ZN5cue_t7LoadCUEEi+0x1aa>
     d5e:	6d91                	lui	s11,0x4
     d60:	0830                	addi	a2,sp,24
     d62:	34cd8593          	addi	a1,s11,844 # 434c <stream_vscanf+0x760>
     d66:	855e                	mv	a0,s7
     d68:	5ad020ef          	jal	ra,3b14 <sscanf>
     d6c:	16050963          	beqz	a0,ede <_ZN5cue_t7LoadCUEEi+0x298>
     d70:	0209a783          	lw	a5,32(s3)
     d74:	46e2                	lw	a3,24(sp)
     d76:	00178713          	addi	a4,a5,1
     d7a:	1ad71a63          	bne	a4,a3,f2e <_ZN5cue_t7LoadCUEEi+0x2e8>
     d7e:	07400d93          	li	s11,116
     d82:	0e0b0e63          	beqz	s6,e7e <_ZN5cue_t7LoadCUEEi+0x238>
     d86:	03b786b3          	mul	a3,a5,s11
     d8a:	0742                	slli	a4,a4,0x10
     d8c:	06578793          	addi	a5,a5,101
     d90:	8341                	srli	a4,a4,0x10
     d92:	01079513          	slli	a0,a5,0x10
     d96:	06470713          	addi	a4,a4,100 # ffff2064 <_end+0xfffe52ac>
     d9a:	8141                	srli	a0,a0,0x10
     d9c:	96ce                	add	a3,a3,s3
     d9e:	d2d8                	sw	a4,36(a3)
     da0:	95fff0ef          	jal	ra,6fe <_Z13dataslot_sizet>
     da4:	0209a783          	lw	a5,32(s3)
     da8:	6591                	lui	a1,0x4
     daa:	37458593          	addi	a1,a1,884 # 4374 <stream_vscanf+0x788>
     dae:	03b787b3          	mul	a5,a5,s11
     db2:	97ce                	add	a5,a5,s3
     db4:	d7c8                	sw	a0,44(a5)
     db6:	0207a423          	sw	zero,40(a5)
     dba:	855e                	mv	a0,s7
     dbc:	5f9020ef          	jal	ra,3bb4 <strstr>
     dc0:	0e050963          	beqz	a0,eb2 <_ZN5cue_t7LoadCUEEi+0x26c>
     dc4:	0209a783          	lw	a5,32(s3)
     dc8:	07400713          	li	a4,116
     dcc:	02e787b3          	mul	a5,a5,a4
     dd0:	6705                	lui	a4,0x1
     dd2:	80070713          	addi	a4,a4,-2048 # 800 <_Z21dataslot_read_lba_settmm+0xc>
     dd6:	97ce                	add	a5,a5,s3
     dd8:	c3f8                	sw	a4,68(a5)
     dda:	4705                	li	a4,1
     ddc:	c3b8                	sw	a4,64(a5)
     dde:	bdc9                	j	cb0 <_ZN5cue_t7LoadCUEEi+0x6a>
     de0:	998c2703          	lw	a4,-1640(s8)
     de4:	0785                	addi	a5,a5,1
     de6:	ce3e                	sw	a5,28(sp)
     de8:	0705                	addi	a4,a4,1
     dea:	98ec2c23          	sw	a4,-1640(s8)
     dee:	bf01                	j	cfe <_ZN5cue_t7LoadCUEEi+0xb8>
     df0:	001bc703          	lbu	a4,1(s7)
     df4:	04900793          	li	a5,73
     df8:	f6f713e3          	bne	a4,a5,d5e <_ZN5cue_t7LoadCUEEi+0x118>
     dfc:	002bc703          	lbu	a4,2(s7)
     e00:	04c00793          	li	a5,76
     e04:	f4f71de3          	bne	a4,a5,d5e <_ZN5cue_t7LoadCUEEi+0x118>
     e08:	003bc703          	lbu	a4,3(s7)
     e0c:	04500793          	li	a5,69
     e10:	f4f717e3          	bne	a4,a5,d5e <_ZN5cue_t7LoadCUEEi+0x118>
     e14:	0209a703          	lw	a4,32(s3)
     e18:	07400793          	li	a5,116
     e1c:	6591                	lui	a1,0x4
     e1e:	02e787b3          	mul	a5,a5,a4
     e22:	31c58593          	addi	a1,a1,796 # 431c <stream_vscanf+0x730>
     e26:	855e                	mv	a0,s7
     e28:	04878793          	addi	a5,a5,72
     e2c:	00f98633          	add	a2,s3,a5
     e30:	4e5020ef          	jal	ra,3b14 <sscanf>
     e34:	6591                	lui	a1,0x4
     e36:	32858593          	addi	a1,a1,808 # 4328 <stream_vscanf+0x73c>
     e3a:	855e                	mv	a0,s7
     e3c:	579020ef          	jal	ra,3bb4 <strstr>
     e40:	c119                	beqz	a0,e46 <_ZN5cue_t7LoadCUEEi+0x200>
     e42:	02c00a93          	li	s5,44
     e46:	6591                	lui	a1,0x4
     e48:	33058593          	addi	a1,a1,816 # 4330 <stream_vscanf+0x744>
     e4c:	855e                	mv	a0,s7
     e4e:	567020ef          	jal	ra,3bb4 <strstr>
     e52:	4a01                	li	s4,0
     e54:	e4051ee3          	bnez	a0,cb0 <_ZN5cue_t7LoadCUEEi+0x6a>
     e58:	6591                	lui	a1,0x4
     e5a:	33858593          	addi	a1,a1,824 # 4338 <stream_vscanf+0x74c>
     e5e:	855e                	mv	a0,s7
     e60:	555020ef          	jal	ra,3bb4 <strstr>
     e64:	e40516e3          	bnez	a0,cb0 <_ZN5cue_t7LoadCUEEi+0x6a>
     e68:	6591                	lui	a1,0x4
     e6a:	34458593          	addi	a1,a1,836 # 4344 <stream_vscanf+0x758>
     e6e:	855e                	mv	a0,s7
     e70:	545020ef          	jal	ra,3bb4 <strstr>
     e74:	e2051ee3          	bnez	a0,cb0 <_ZN5cue_t7LoadCUEEi+0x6a>
     e78:	6541                	lui	a0,0x10
     e7a:	157d                	addi	a0,a0,-1 # ffff <_end+0x3247>
     e7c:	aa15                	j	fb0 <_ZN5cue_t7LoadCUEEi+0x36a>
     e7e:	03b787b3          	mul	a5,a5,s11
     e82:	06500713          	li	a4,101
     e86:	06500513          	li	a0,101
     e8a:	97ce                	add	a5,a5,s3
     e8c:	d3d8                	sw	a4,36(a5)
     e8e:	871ff0ef          	jal	ra,6fe <_Z13dataslot_sizet>
     e92:	0209a783          	lw	a5,32(s3)
     e96:	4705                	li	a4,1
     e98:	6591                	lui	a1,0x4
     e9a:	03b787b3          	mul	a5,a5,s11
     e9e:	37458593          	addi	a1,a1,884 # 4374 <stream_vscanf+0x788>
     ea2:	97ce                	add	a5,a5,s3
     ea4:	d7c8                	sw	a0,44(a5)
     ea6:	d798                	sw	a4,40(a5)
     ea8:	855e                	mv	a0,s7
     eaa:	50b020ef          	jal	ra,3bb4 <strstr>
     eae:	f0051be3          	bnez	a0,dc4 <_ZN5cue_t7LoadCUEEi+0x17e>
     eb2:	6591                	lui	a1,0x4
     eb4:	38058593          	addi	a1,a1,896 # 4380 <stream_vscanf+0x794>
     eb8:	855e                	mv	a0,s7
     eba:	4fb020ef          	jal	ra,3bb4 <strstr>
     ebe:	10050863          	beqz	a0,fce <_ZN5cue_t7LoadCUEEi+0x388>
     ec2:	0209a783          	lw	a5,32(s3)
     ec6:	07400713          	li	a4,116
     eca:	02e787b3          	mul	a5,a5,a4
     ece:	6705                	lui	a4,0x1
     ed0:	93070713          	addi	a4,a4,-1744 # 930 <_Z12RISCFileSeekimm+0x8a>
     ed4:	97ce                	add	a5,a5,s3
     ed6:	c3f8                	sw	a4,68(a5)
     ed8:	4705                	li	a4,1
     eda:	c3b8                	sw	a4,64(a5)
     edc:	bbd1                	j	cb0 <_ZN5cue_t7LoadCUEEi+0x6a>
     ede:	0830                	addi	a2,sp,24
     ee0:	34cd8593          	addi	a1,s11,844
     ee4:	855e                	mv	a0,s7
     ee6:	42f020ef          	jal	ra,3b14 <sscanf>
     eea:	e80513e3          	bnez	a0,d70 <_ZN5cue_t7LoadCUEEi+0x12a>
     eee:	6591                	lui	a1,0x4
     ef0:	0838                	addi	a4,sp,24
     ef2:	0854                	addi	a3,sp,20
     ef4:	0810                	addi	a2,sp,16
     ef6:	35c58593          	addi	a1,a1,860 # 435c <stream_vscanf+0x770>
     efa:	855e                	mv	a0,s7
     efc:	419020ef          	jal	ra,3b14 <sscanf>
     f00:	4d8d                	li	s11,3
     f02:	0fb51c63          	bne	a0,s11,ffa <_ZN5cue_t7LoadCUEEi+0x3b4>
     f06:	46c2                	lw	a3,16(sp)
     f08:	6785                	lui	a5,0x1
     f0a:	19478793          	addi	a5,a5,404 # 1194 <_ZN5cue_t7LoadCUEEi+0x54e>
     f0e:	02f686b3          	mul	a3,a3,a5
     f12:	47d2                	lw	a5,20(sp)
     f14:	00279713          	slli	a4,a5,0x2
     f18:	973e                	add	a4,a4,a5
     f1a:	00471793          	slli	a5,a4,0x4
     f1e:	8f99                	sub	a5,a5,a4
     f20:	4762                	lw	a4,24(sp)
     f22:	97ba                	add	a5,a5,a4
     f24:	97b6                	add	a5,a5,a3
     f26:	9a3e                	add	s4,s4,a5
     f28:	b361                	j	cb0 <_ZN5cue_t7LoadCUEEi+0x6a>
     f2a:	0209a783          	lw	a5,32(s3)
     f2e:	07400693          	li	a3,116
     f32:	fff78713          	addi	a4,a5,-1
     f36:	02d70733          	mul	a4,a4,a3
     f3a:	974e                	add	a4,a4,s3
     f3c:	5714                	lw	a3,40(a4)
     f3e:	16069b63          	bnez	a3,10b4 <_ZN5cue_t7LoadCUEEi+0x46e>
     f42:	10079763          	bnez	a5,1050 <_ZN5cue_t7LoadCUEEi+0x40a>
     f46:	7441                	lui	s0,0xffff0
     f48:	400c                	lw	a1,0(s0)
     f4a:	4050                	lw	a2,4(s0)
     f4c:	6511                	lui	a0,0x4
     f4e:	44050513          	addi	a0,a0,1088 # 4440 <stream_vscanf+0x854>
     f52:	71b010ef          	jal	ra,2e6c <riscprintf_>
     f56:	440c                	lw	a1,8(s0)
     f58:	4450                	lw	a2,12(s0)
     f5a:	6511                	lui	a0,0x4
     f5c:	45450513          	addi	a0,a0,1108 # 4454 <stream_vscanf+0x868>
     f60:	70d010ef          	jal	ra,2e6c <riscprintf_>
     f64:	480c                	lw	a1,16(s0)
     f66:	4850                	lw	a2,20(s0)
     f68:	6511                	lui	a0,0x4
     f6a:	46850513          	addi	a0,a0,1128 # 4468 <stream_vscanf+0x87c>
     f6e:	6ff010ef          	jal	ra,2e6c <riscprintf_>
     f72:	4c0c                	lw	a1,24(s0)
     f74:	4c50                	lw	a2,28(s0)
     f76:	6511                	lui	a0,0x4
     f78:	47c50513          	addi	a0,a0,1148 # 447c <stream_vscanf+0x890>
     f7c:	6f1010ef          	jal	ra,2e6c <riscprintf_>
     f80:	500c                	lw	a1,32(s0)
     f82:	5050                	lw	a2,36(s0)
     f84:	6511                	lui	a0,0x4
     f86:	49050513          	addi	a0,a0,1168 # 4490 <stream_vscanf+0x8a4>
     f8a:	6e3010ef          	jal	ra,2e6c <riscprintf_>
     f8e:	540c                	lw	a1,40(s0)
     f90:	5450                	lw	a2,44(s0)
     f92:	6511                	lui	a0,0x4
     f94:	4a850513          	addi	a0,a0,1192 # 44a8 <stream_vscanf+0x8bc>
     f98:	6d5010ef          	jal	ra,2e6c <riscprintf_>
     f9c:	0209a603          	lw	a2,32(s3)
     fa0:	01c9a583          	lw	a1,28(s3)
     fa4:	6511                	lui	a0,0x4
     fa6:	4c050513          	addi	a0,a0,1216 # 44c0 <stream_vscanf+0x8d4>
     faa:	6c3010ef          	jal	ra,2e6c <riscprintf_>
     fae:	4505                	li	a0,1
     fb0:	40f6                	lw	ra,92(sp)
     fb2:	4466                	lw	s0,88(sp)
     fb4:	44d6                	lw	s1,84(sp)
     fb6:	4946                	lw	s2,80(sp)
     fb8:	49b6                	lw	s3,76(sp)
     fba:	4a26                	lw	s4,72(sp)
     fbc:	4a96                	lw	s5,68(sp)
     fbe:	4b06                	lw	s6,64(sp)
     fc0:	5bf2                	lw	s7,60(sp)
     fc2:	5c62                	lw	s8,56(sp)
     fc4:	5cd2                	lw	s9,52(sp)
     fc6:	5d42                	lw	s10,48(sp)
     fc8:	5db2                	lw	s11,44(sp)
     fca:	6125                	addi	sp,sp,96
     fcc:	8082                	ret
     fce:	6591                	lui	a1,0x4
     fd0:	38c58593          	addi	a1,a1,908 # 438c <stream_vscanf+0x7a0>
     fd4:	855e                	mv	a0,s7
     fd6:	3df020ef          	jal	ra,3bb4 <strstr>
     fda:	cc050be3          	beqz	a0,cb0 <_ZN5cue_t7LoadCUEEi+0x6a>
     fde:	0209a783          	lw	a5,32(s3)
     fe2:	07400713          	li	a4,116
     fe6:	02e787b3          	mul	a5,a5,a4
     fea:	6705                	lui	a4,0x1
     fec:	93070713          	addi	a4,a4,-1744 # 930 <_Z12RISCFileSeekimm+0x8a>
     ff0:	97ce                	add	a5,a5,s3
     ff2:	c3f8                	sw	a4,68(a5)
     ff4:	0407a023          	sw	zero,64(a5)
     ff8:	b965                	j	cb0 <_ZN5cue_t7LoadCUEEi+0x6a>
     ffa:	6591                	lui	a1,0x4
     ffc:	0838                	addi	a4,sp,24
     ffe:	0854                	addi	a3,sp,20
    1000:	0810                	addi	a2,sp,16
    1002:	39458593          	addi	a1,a1,916 # 4394 <stream_vscanf+0x7a8>
    1006:	855e                	mv	a0,s7
    1008:	30d020ef          	jal	ra,3b14 <sscanf>
    100c:	0db51a63          	bne	a0,s11,10e0 <_ZN5cue_t7LoadCUEEi+0x49a>
    1010:	0209a783          	lw	a5,32(s3)
    1014:	c8078ee3          	beqz	a5,cb0 <_ZN5cue_t7LoadCUEEi+0x6a>
    1018:	07400713          	li	a4,116
    101c:	17fd                	addi	a5,a5,-1
    101e:	02e787b3          	mul	a5,a5,a4
    1022:	97ce                	add	a5,a5,s3
    1024:	5fd8                	lw	a4,60(a5)
    1026:	c80715e3          	bnez	a4,cb0 <_ZN5cue_t7LoadCUEEi+0x6a>
    102a:	4642                	lw	a2,16(sp)
    102c:	6705                	lui	a4,0x1
    102e:	19470713          	addi	a4,a4,404 # 1194 <_ZN5cue_t7LoadCUEEi+0x54e>
    1032:	02e60633          	mul	a2,a2,a4
    1036:	4752                	lw	a4,20(sp)
    1038:	00271693          	slli	a3,a4,0x2
    103c:	96ba                	add	a3,a3,a4
    103e:	00469713          	slli	a4,a3,0x4
    1042:	8f15                	sub	a4,a4,a3
    1044:	46e2                	lw	a3,24(sp)
    1046:	9736                	add	a4,a4,a3
    1048:	9732                	add	a4,a4,a2
    104a:	9752                	add	a4,a4,s4
    104c:	dfd8                	sw	a4,60(a5)
    104e:	b18d                	j	cb0 <_ZN5cue_t7LoadCUEEi+0x6a>
    1050:	07400693          	li	a3,116
    1054:	fff78713          	addi	a4,a5,-1
    1058:	02d70733          	mul	a4,a4,a3
    105c:	974e                	add	a4,a4,s3
    105e:	5f54                	lw	a3,60(a4)
    1060:	12068f63          	beqz	a3,119e <_ZN5cue_t7LoadCUEEi+0x558>
    1064:	eef051e3          	blez	a5,f46 <_ZN5cue_t7LoadCUEEi+0x300>
    1068:	02498413          	addi	s0,s3,36
    106c:	4481                	li	s1,0
    106e:	6a11                	lui	s4,0x4
    1070:	07400913          	li	s2,116
    1074:	03278533          	mul	a0,a5,s2
    1078:	02042803          	lw	a6,32(s0) # ffff0020 <_end+0xfffe3268>
    107c:	445c                	lw	a5,12(s0)
    107e:	4c18                	lw	a4,24(s0)
    1080:	4854                	lw	a3,20(s0)
    1082:	4410                	lw	a2,8(s0)
    1084:	00042303          	lw	t1,0(s0)
    1088:	01c42883          	lw	a7,28(s0)
    108c:	85a6                	mv	a1,s1
    108e:	0485                	addi	s1,s1,1
    1090:	04850513          	addi	a0,a0,72
    1094:	954e                	add	a0,a0,s3
    1096:	c42a                	sw	a0,8(sp)
    1098:	4048                	lw	a0,4(s0)
    109a:	c01a                	sw	t1,0(sp)
    109c:	07440413          	addi	s0,s0,116
    10a0:	c22a                	sw	a0,4(sp)
    10a2:	4d0a0513          	addi	a0,s4,1232 # 44d0 <stream_vscanf+0x8e4>
    10a6:	5c7010ef          	jal	ra,2e6c <riscprintf_>
    10aa:	0209a783          	lw	a5,32(s3)
    10ae:	fcf4c3e3          	blt	s1,a5,1074 <_ZN5cue_t7LoadCUEEi+0x42e>
    10b2:	bd51                	j	f46 <_ZN5cue_t7LoadCUEEi+0x300>
    10b4:	5b0c                	lw	a1,48(a4)
    10b6:	575c                	lw	a5,44(a4)
    10b8:	4370                	lw	a2,68(a4)
    10ba:	5f14                	lw	a3,56(a4)
    10bc:	8f8d                	sub	a5,a5,a1
    10be:	02c7c7b3          	div	a5,a5,a2
    10c2:	6511                	lui	a0,0x4
    10c4:	8656                	mv	a2,s5
    10c6:	85d2                	mv	a1,s4
    10c8:	3f450513          	addi	a0,a0,1012 # 43f4 <stream_vscanf+0x808>
    10cc:	97b6                	add	a5,a5,a3
    10ce:	df5c                	sw	a5,60(a4)
    10d0:	00f9ae23          	sw	a5,28(s3)
    10d4:	599010ef          	jal	ra,2e6c <riscprintf_>
    10d8:	0209a783          	lw	a5,32(s3)
    10dc:	fbb5                	bnez	a5,1050 <_ZN5cue_t7LoadCUEEi+0x40a>
    10de:	b5a5                	j	f46 <_ZN5cue_t7LoadCUEEi+0x300>
    10e0:	6591                	lui	a1,0x4
    10e2:	0838                	addi	a4,sp,24
    10e4:	0854                	addi	a3,sp,20
    10e6:	0810                	addi	a2,sp,16
    10e8:	3ac58593          	addi	a1,a1,940 # 43ac <stream_vscanf+0x7c0>
    10ec:	855e                	mv	a0,s7
    10ee:	227020ef          	jal	ra,3b14 <sscanf>
    10f2:	f1b50fe3          	beq	a0,s11,1010 <_ZN5cue_t7LoadCUEEi+0x3ca>
    10f6:	6591                	lui	a1,0x4
    10f8:	0838                	addi	a4,sp,24
    10fa:	0854                	addi	a3,sp,20
    10fc:	0810                	addi	a2,sp,16
    10fe:	3c458593          	addi	a1,a1,964 # 43c4 <stream_vscanf+0x7d8>
    1102:	855e                	mv	a0,s7
    1104:	211020ef          	jal	ra,3b14 <sscanf>
    1108:	01b50d63          	beq	a0,s11,1122 <_ZN5cue_t7LoadCUEEi+0x4dc>
    110c:	6591                	lui	a1,0x4
    110e:	0838                	addi	a4,sp,24
    1110:	0854                	addi	a3,sp,20
    1112:	0810                	addi	a2,sp,16
    1114:	3dc58593          	addi	a1,a1,988 # 43dc <stream_vscanf+0x7f0>
    1118:	855e                	mv	a0,s7
    111a:	1fb020ef          	jal	ra,3b14 <sscanf>
    111e:	b9b519e3          	bne	a0,s11,cb0 <_ZN5cue_t7LoadCUEEi+0x6a>
    1122:	47d2                	lw	a5,20(sp)
    1124:	0209a703          	lw	a4,32(s3)
    1128:	07400513          	li	a0,116
    112c:	00279613          	slli	a2,a5,0x2
    1130:	963e                	add	a2,a2,a5
    1132:	00461793          	slli	a5,a2,0x4
    1136:	02a706b3          	mul	a3,a4,a0
    113a:	8f91                	sub	a5,a5,a2
    113c:	4642                	lw	a2,16(sp)
    113e:	6585                	lui	a1,0x1
    1140:	19458593          	addi	a1,a1,404 # 1194 <_ZN5cue_t7LoadCUEEi+0x54e>
    1144:	4862                	lw	a6,24(sp)
    1146:	97c2                	add	a5,a5,a6
    1148:	02b60633          	mul	a2,a2,a1
    114c:	96ce                	add	a3,a3,s3
    114e:	568c                	lw	a1,40(a3)
    1150:	97b2                	add	a5,a5,a2
    1152:	cdb1                	beqz	a1,11ae <_ZN5cue_t7LoadCUEEi+0x568>
    1154:	42f0                	lw	a2,68(a3)
    1156:	97d2                	add	a5,a5,s4
    1158:	de9c                	sw	a5,56(a3)
    115a:	02c78633          	mul	a2,a5,a2
    115e:	41560633          	sub	a2,a2,s5
    1162:	da90                	sw	a2,48(a3)
    1164:	cb01                	beqz	a4,1174 <_ZN5cue_t7LoadCUEEi+0x52e>
    1166:	177d                	addi	a4,a4,-1
    1168:	02a70733          	mul	a4,a4,a0
    116c:	974e                	add	a4,a4,s3
    116e:	5f54                	lw	a3,60(a4)
    1170:	e291                	bnez	a3,1174 <_ZN5cue_t7LoadCUEEi+0x52e>
    1172:	df5c                	sw	a5,60(a4)
    1174:	6511                	lui	a0,0x4
    1176:	8656                	mv	a2,s5
    1178:	85d2                	mv	a1,s4
    117a:	3f450513          	addi	a0,a0,1012 # 43f4 <stream_vscanf+0x808>
    117e:	4ef010ef          	jal	ra,2e6c <riscprintf_>
    1182:	0209a783          	lw	a5,32(s3)
    1186:	0785                	addi	a5,a5,1
    1188:	02f9a023          	sw	a5,32(s3)
    118c:	040b0f63          	beqz	s6,11ea <_ZN5cue_t7LoadCUEEi+0x5a4>
    1190:	4769                	li	a4,26
    1192:	b0f75fe3          	bge	a4,a5,cb0 <_ZN5cue_t7LoadCUEEi+0x6a>
    1196:	bb61                	j	f2e <_ZN5cue_t7LoadCUEEi+0x2e8>
    1198:	06400513          	li	a0,100
    119c:	bd11                	j	fb0 <_ZN5cue_t7LoadCUEEi+0x36a>
    119e:	01c9a683          	lw	a3,28(s3)
    11a2:	9a36                	add	s4,s4,a3
    11a4:	0149ae23          	sw	s4,28(s3)
    11a8:	03472e23          	sw	s4,60(a4)
    11ac:	bd65                	j	1064 <_ZN5cue_t7LoadCUEEi+0x41e>
    11ae:	56d0                	lw	a2,44(a3)
    11b0:	42f8                	lw	a4,68(a3)
    11b2:	01c9a803          	lw	a6,28(s3)
    11b6:	41560633          	sub	a2,a2,s5
    11ba:	963a                	add	a2,a2,a4
    11bc:	167d                	addi	a2,a2,-1
    11be:	02e64633          	div	a2,a2,a4
    11c2:	9852                	add	a6,a6,s4
    11c4:	00f805b3          	add	a1,a6,a5
    11c8:	de8c                	sw	a1,56(a3)
    11ca:	6511                	lui	a0,0x4
    11cc:	40450513          	addi	a0,a0,1028 # 4404 <stream_vscanf+0x818>
    11d0:	02e80733          	mul	a4,a6,a4
    11d4:	9642                	add	a2,a2,a6
    11d6:	ded0                	sw	a2,60(a3)
    11d8:	41570733          	sub	a4,a4,s5
    11dc:	da98                	sw	a4,48(a3)
    11de:	00c9ae23          	sw	a2,28(s3)
    11e2:	86ba                	mv	a3,a4
    11e4:	489010ef          	jal	ra,2e6c <riscprintf_>
    11e8:	bf69                	j	1182 <_ZN5cue_t7LoadCUEEi+0x53c>
    11ea:	06300713          	li	a4,99
    11ee:	acf751e3          	bge	a4,a5,cb0 <_ZN5cue_t7LoadCUEEi+0x6a>
    11f2:	bb35                	j	f2e <_ZN5cue_t7LoadCUEEi+0x2e8>

000011f4 <_ZN5cue_t4LoadEi>:
    11f4:	1141                	addi	sp,sp,-16
    11f6:	c422                	sw	s0,8(sp)
    11f8:	c606                	sw	ra,12(sp)
    11fa:	842a                	mv	s0,a0
    11fc:	a4bff0ef          	jal	ra,c46 <_ZN5cue_t7LoadCUEEi>
    1200:	00a037b3          	snez	a5,a0
    1204:	40b2                	lw	ra,12(sp)
    1206:	c45c                	sw	a5,12(s0)
    1208:	4422                	lw	s0,8(sp)
    120a:	0141                	addi	sp,sp,16
    120c:	8082                	ret

0000120e <_ZN5cue_t6UnloadEv>:
    120e:	455c                	lw	a5,12(a0)
    1210:	c7b9                	beqz	a5,125e <_ZN5cue_t6UnloadEv+0x50>
    1212:	5118                	lw	a4,32(a0)
    1214:	02e05f63          	blez	a4,1252 <_ZN5cue_t6UnloadEv+0x44>
    1218:	07400793          	li	a5,116
    121c:	02f70733          	mul	a4,a4,a5
    1220:	02450793          	addi	a5,a0,36
    1224:	973e                	add	a4,a4,a5
    1226:	0007a023          	sw	zero,0(a5)
    122a:	0007a223          	sw	zero,4(a5)
    122e:	0007a423          	sw	zero,8(a5)
    1232:	0007a623          	sw	zero,12(a5)
    1236:	0007a823          	sw	zero,16(a5)
    123a:	0007aa23          	sw	zero,20(a5)
    123e:	0007ac23          	sw	zero,24(a5)
    1242:	0007ae23          	sw	zero,28(a5)
    1246:	0207a023          	sw	zero,32(a5)
    124a:	07478793          	addi	a5,a5,116
    124e:	fce79ce3          	bne	a5,a4,1226 <_ZN5cue_t6UnloadEv+0x18>
    1252:	00052623          	sw	zero,12(a0)
    1256:	00052e23          	sw	zero,28(a0)
    125a:	02052023          	sw	zero,32(a0)
    125e:	8082                	ret

00001260 <_ZN5cue_t5ResetEv>:
    1260:	678d                	lui	a5,0x3
    1262:	00052023          	sw	zero,0(a0)
    1266:	00052223          	sw	zero,4(a0)
    126a:	97aa                	add	a5,a5,a0
    126c:	d007a023          	sw	zero,-768(a5) # 2d00 <_ZL10_ntoa_longPFvcPvjjEPcjjmbmjjj.constprop.0+0x2d0>
    1270:	d007a223          	sw	zero,-764(a5)
    1274:	d007a623          	sw	zero,-756(a5)
    1278:	4558                	lw	a4,12(a0)
    127a:	4685                	li	a3,1
    127c:	00d504a3          	sb	a3,9(a0)
    1280:	00173713          	seqz	a4,a4
    1284:	00e50423          	sb	a4,8(a0)
    1288:	d007a823          	sw	zero,-752(a5)
    128c:	d007aa23          	sw	zero,-748(a5)
    1290:	00052a23          	sw	zero,20(a0)
    1294:	00051c23          	sh	zero,24(a0)
    1298:	d007ac23          	sw	zero,-744(a5)
    129c:	d007ae23          	sw	zero,-740(a5)
    12a0:	d2078223          	sb	zero,-732(a5)
    12a4:	02052023          	sw	zero,32(a0)
    12a8:	d2079a23          	sh	zero,-716(a5)
    12ac:	8082                	ret

000012ae <_ZN5cue_t11CommandExecEv>:
    12ae:	1101                	addi	sp,sp,-32
    12b0:	c84a                	sw	s2,16(sp)
    12b2:	690d                	lui	s2,0x3
    12b4:	cc22                	sw	s0,24(sp)
    12b6:	ca26                	sw	s1,20(sp)
    12b8:	c64e                	sw	s3,12(sp)
    12ba:	ce06                	sw	ra,28(sp)
    12bc:	992a                	add	s2,s2,a0
    12be:	69a5                	lui	s3,0x9
    12c0:	d3694783          	lbu	a5,-714(s2) # 2d36 <_ZL10_ntoa_longPFvcPvjjEPcjjmbmjjj.constprop.0+0x306>
    12c4:	01898413          	addi	s0,s3,24 # 9018 <_ZZN5cue_t11CommandExecEvE3buf>
    12c8:	00042023          	sw	zero,0(s0)
    12cc:	00042223          	sw	zero,4(s0)
    12d0:	00042423          	sw	zero,8(s0)
    12d4:	00042623          	sw	zero,12(s0)
    12d8:	00042823          	sw	zero,16(s0)
    12dc:	00042a23          	sw	zero,20(s0)
    12e0:	00042c23          	sw	zero,24(s0)
    12e4:	00042e23          	sw	zero,28(s0)
    12e8:	0de00713          	li	a4,222
    12ec:	84aa                	mv	s1,a0
    12ee:	12f76563          	bltu	a4,a5,1418 <_ZN5cue_t11CommandExecEv+0x16a>
    12f2:	0d700713          	li	a4,215
    12f6:	02f77063          	bgeu	a4,a5,1316 <_ZN5cue_t11CommandExecEv+0x68>
    12fa:	02878793          	addi	a5,a5,40
    12fe:	0ff7f793          	zext.b	a5,a5
    1302:	4719                	li	a4,6
    1304:	10f76a63          	bltu	a4,a5,1418 <_ZN5cue_t11CommandExecEv+0x16a>
    1308:	6711                	lui	a4,0x4
    130a:	078a                	slli	a5,a5,0x2
    130c:	5f870713          	addi	a4,a4,1528 # 45f8 <stream_vscanf+0xa0c>
    1310:	97ba                	add	a5,a5,a4
    1312:	439c                	lw	a5,0(a5)
    1314:	8782                	jr	a5
    1316:	4721                	li	a4,8
    1318:	38e78963          	beq	a5,a4,16aa <_ZN5cue_t11CommandExecEv+0x3fc>
    131c:	04f77d63          	bgeu	a4,a5,1376 <_ZN5cue_t11CommandExecEv+0xc8>
    1320:	4755                	li	a4,21
    1322:	0ee79b63          	bne	a5,a4,1418 <_ZN5cue_t11CommandExecEv+0x16a>
    1326:	d3a94783          	lbu	a5,-710(s2)
    132a:	cf91                	beqz	a5,1346 <_ZN5cue_t11CommandExecEv+0x98>
    132c:	4785                	li	a5,1
    132e:	00f50c23          	sb	a5,24(a0)
    1332:	40f2                	lw	ra,28(sp)
    1334:	4462                	lw	s0,24(sp)
    1336:	44d2                	lw	s1,20(sp)
    1338:	4942                	lw	s2,16(sp)
    133a:	49b2                	lw	s3,12(sp)
    133c:	6105                	addi	sp,sp,32
    133e:	8082                	ret
    1340:	4791                	li	a5,4
    1342:	00f50423          	sb	a5,8(a0)
    1346:	03500513          	li	a0,53
    134a:	5c1000ef          	jal	ra,210a <_Z20HPS_spi_uio_cmd_contt>
    134e:	4501                	li	a0,0
    1350:	517000ef          	jal	ra,2066 <_Z12HPS_fpga_spit>
    1354:	678d                	lui	a5,0x3
    1356:	97a6                	add	a5,a5,s1
    1358:	d297c503          	lbu	a0,-727(a5) # 2d29 <_ZL10_ntoa_longPFvcPvjjEPcjjmbmjjj.constprop.0+0x2f9>
    135c:	00a03533          	snez	a0,a0
    1360:	0506                	slli	a0,a0,0x1
    1362:	505000ef          	jal	ra,2066 <_Z12HPS_fpga_spit>
    1366:	4462                	lw	s0,24(sp)
    1368:	40f2                	lw	ra,28(sp)
    136a:	44d2                	lw	s1,20(sp)
    136c:	4942                	lw	s2,16(sp)
    136e:	49b2                	lw	s3,12(sp)
    1370:	6105                	addi	sp,sp,32
    1372:	4d70006f          	j	2048 <_Z13HPS_DisableIOv>
    1376:	3c078063          	beqz	a5,1736 <_ZN5cue_t11CommandExecEv+0x488>
    137a:	470d                	li	a4,3
    137c:	08e79e63          	bne	a5,a4,1418 <_ZN5cue_t11CommandExecEv+0x16a>
    1380:	d2894783          	lbu	a5,-728(s2)
    1384:	d2594603          	lbu	a2,-731(s2)
    1388:	d2695683          	lhu	a3,-730(s2)
    138c:	00f40823          	sb	a5,16(s0)
    1390:	77e1                	lui	a5,0xffff8
    1392:	07c9                	addi	a5,a5,18 # ffff8012 <_end+0xfffeb25a>
    1394:	d20902a3          	sb	zero,-731(s2)
    1398:	d2091323          	sh	zero,-730(s2)
    139c:	d2090423          	sb	zero,-728(s2)
    13a0:	00f99c23          	sh	a5,24(s3)
    13a4:	4918                	lw	a4,16(a0)
    13a6:	07000793          	li	a5,112
    13aa:	00f40123          	sb	a5,2(s0)
    13ae:	47a9                	li	a5,10
    13b0:	00c40223          	sb	a2,4(s0)
    13b4:	00f404a3          	sb	a5,9(s0)
    13b8:	00d41723          	sh	a3,14(s0)
    13bc:	d749                	beqz	a4,1346 <_ZN5cue_t11CommandExecEv+0x98>
    13be:	4609                	li	a2,2
    13c0:	45d1                	li	a1,20
    13c2:	01898513          	addi	a0,s3,24
    13c6:	9702                	jalr	a4
    13c8:	bfbd                	j	1346 <_ZN5cue_t11CommandExecEv+0x98>
    13ca:	678d                	lui	a5,0x3
    13cc:	97aa                	add	a5,a5,a0
    13ce:	d377c703          	lbu	a4,-713(a5) # 2d37 <_ZL10_ntoa_longPFvcPvjjEPcjjmbmjjj.constprop.0+0x307>
    13d2:	4685                	li	a3,1
    13d4:	3ed70163          	beq	a4,a3,17b6 <_ZN5cue_t11CommandExecEv+0x508>
    13d8:	4609                	li	a2,2
    13da:	4cc70c63          	beq	a4,a2,18b2 <_ZN5cue_t11CommandExecEv+0x604>
    13de:	510c                	lw	a1,32(a0)
    13e0:	4629                	li	a2,10
    13e2:	7761                	lui	a4,0xffff8
    13e4:	0711                	addi	a4,a4,4 # ffff8004 <_end+0xfffeb24c>
    13e6:	02c5c7b3          	div	a5,a1,a2
    13ea:	00e99c23          	sh	a4,24(s3)
    13ee:	6511                	lui	a0,0x4
    13f0:	55c50513          	addi	a0,a0,1372 # 455c <stream_vscanf+0x970>
    13f4:	00d40123          	sb	a3,2(s0)
    13f8:	02c5e733          	rem	a4,a1,a2
    13fc:	0792                	slli	a5,a5,0x4
    13fe:	8fd9                	or	a5,a5,a4
    1400:	00f401a3          	sb	a5,3(s0)
    1404:	269010ef          	jal	ra,2e6c <riscprintf_>
    1408:	489c                	lw	a5,16(s1)
    140a:	df95                	beqz	a5,1346 <_ZN5cue_t11CommandExecEv+0x98>
    140c:	4609                	li	a2,2
    140e:	4599                	li	a1,6
    1410:	01898513          	addi	a0,s3,24
    1414:	9782                	jalr	a5
    1416:	bf05                	j	1346 <_ZN5cue_t11CommandExecEv+0x98>
    1418:	640d                	lui	s0,0x3
    141a:	9426                	add	s0,s0,s1
    141c:	4795                	li	a5,5
    141e:	d2f402a3          	sb	a5,-731(s0) # 2d25 <_ZL10_ntoa_longPFvcPvjjEPcjjmbmjjj.constprop.0+0x2f5>
    1422:	02000793          	li	a5,32
    1426:	d2f41323          	sh	a5,-730(s0)
    142a:	d2040423          	sb	zero,-728(s0)
    142e:	0004aa23          	sw	zero,20(s1)
    1432:	03500513          	li	a0,53
    1436:	4d5000ef          	jal	ra,210a <_Z20HPS_spi_uio_cmd_contt>
    143a:	4505                	li	a0,1
    143c:	42b000ef          	jal	ra,2066 <_Z12HPS_fpga_spit>
    1440:	d2944503          	lbu	a0,-727(s0)
    1444:	bf21                	j	135c <_ZN5cue_t11CommandExecEv+0xae>
    1446:	678d                	lui	a5,0x3
    1448:	97aa                	add	a5,a5,a0
    144a:	d3f7c703          	lbu	a4,-705(a5) # 2d3f <_ZL10_ntoa_longPFvcPvjjEPcjjmbmjjj.constprop.0+0x30f>
    144e:	04000693          	li	a3,64
    1452:	0c077713          	andi	a4,a4,192
    1456:	58d70163          	beq	a4,a3,19d8 <_ZN5cue_t11CommandExecEv+0x72a>
    145a:	08000693          	li	a3,128
    145e:	3ed70b63          	beq	a4,a3,1854 <_ZN5cue_t11CommandExecEv+0x5a6>
    1462:	d397c403          	lbu	s0,-711(a5)
    1466:	d3a7c703          	lbu	a4,-710(a5)
    146a:	d3b7c683          	lbu	a3,-709(a5)
    146e:	0442                	slli	s0,s0,0x10
    1470:	00871793          	slli	a5,a4,0x8
    1474:	8c5d                	or	s0,s0,a5
    1476:	8c55                	or	s0,s0,a3
    1478:	678d                	lui	a5,0x3
    147a:	97a6                	add	a5,a5,s1
    147c:	d4378703          	lb	a4,-701(a5) # 2d43 <_ZL10_ntoa_longPFvcPvjjEPcjjmbmjjj.constprop.0+0x313>
    1480:	30075263          	bgez	a4,1784 <_ZN5cue_t11CommandExecEv+0x4d6>
    1484:	0004a023          	sw	zero,0(s1)
    1488:	0004a223          	sw	zero,4(s1)
    148c:	678d                	lui	a5,0x3
    148e:	97a6                	add	a5,a5,s1
    1490:	d087a223          	sw	s0,-764(a5) # 2d04 <_ZL10_ntoa_longPFvcPvjjEPcjjmbmjjj.constprop.0+0x2d4>
    1494:	5cdc                	lw	a5,60(s1)
    1496:	5cf44463          	blt	s0,a5,1a5e <_ZN5cue_t11CommandExecEv+0x7b0>
    149a:	5090                	lw	a2,32(s1)
    149c:	0b048713          	addi	a4,s1,176
    14a0:	4781                	li	a5,0
    14a2:	00c7d863          	bge	a5,a2,14b2 <_ZN5cue_t11CommandExecEv+0x204>
    14a6:	4314                	lw	a3,0(a4)
    14a8:	0785                	addi	a5,a5,1
    14aa:	07470713          	addi	a4,a4,116
    14ae:	fed45ae3          	bge	s0,a3,14a2 <_ZN5cue_t11CommandExecEv+0x1f4>
    14b2:	670d                	lui	a4,0x3
    14b4:	9726                	add	a4,a4,s1
    14b6:	d3774603          	lbu	a2,-713(a4) # 2d37 <_ZL10_ntoa_longPFvcPvjjEPcjjmbmjjj.constprop.0+0x307>
    14ba:	d0f72023          	sw	a5,-768(a4)
    14be:	d0872c23          	sw	s0,-744(a4)
    14c2:	4ccc                	lw	a1,28(s1)
    14c4:	4685                	li	a3,1
    14c6:	00163793          	seqz	a5,a2
    14ca:	d2c70223          	sb	a2,-732(a4)
    14ce:	d0b72e23          	sw	a1,-740(a4)
    14d2:	d2d72023          	sw	a3,-736(a4)
    14d6:	078d                	addi	a5,a5,3
    14d8:	00f48423          	sb	a5,8(s1)
    14dc:	40f2                	lw	ra,28(sp)
    14de:	4462                	lw	s0,24(sp)
    14e0:	d2071a23          	sh	zero,-716(a4)
    14e4:	c8d4                	sw	a3,20(s1)
    14e6:	4942                	lw	s2,16(sp)
    14e8:	44d2                	lw	s1,20(sp)
    14ea:	49b2                	lw	s3,12(sp)
    14ec:	6105                	addi	sp,sp,32
    14ee:	8082                	ret
    14f0:	670d                	lui	a4,0x3
    14f2:	972a                	add	a4,a4,a0
    14f4:	d3f74783          	lbu	a5,-705(a4) # 2d3f <_ZL10_ntoa_longPFvcPvjjEPcjjmbmjjj.constprop.0+0x30f>
    14f8:	04000693          	li	a3,64
    14fc:	0c07f793          	andi	a5,a5,192
    1500:	46d78863          	beq	a5,a3,1970 <_ZN5cue_t11CommandExecEv+0x6c2>
    1504:	08000693          	li	a3,128
    1508:	38d78063          	beq	a5,a3,1888 <_ZN5cue_t11CommandExecEv+0x5da>
    150c:	d3974783          	lbu	a5,-711(a4)
    1510:	d3a74683          	lbu	a3,-710(a4)
    1514:	d3b74603          	lbu	a2,-709(a4)
    1518:	07c2                	slli	a5,a5,0x10
    151a:	00869713          	slli	a4,a3,0x8
    151e:	8fd9                	or	a5,a5,a4
    1520:	8fd1                	or	a5,a5,a2
    1522:	670d                	lui	a4,0x3
    1524:	9726                	add	a4,a4,s1
    1526:	d3774683          	lbu	a3,-713(a4) # 2d37 <_ZL10_ntoa_longPFvcPvjjEPcjjmbmjjj.constprop.0+0x307>
    152a:	d0f72e23          	sw	a5,-740(a4)
    152e:	d2d70223          	sb	a3,-732(a4)
    1532:	22069963          	bnez	a3,1764 <_ZN5cue_t11CommandExecEv+0x4b6>
    1536:	00048423          	sb	zero,8(s1)
    153a:	b531                	j	1346 <_ZN5cue_t11CommandExecEv+0x98>
    153c:	678d                	lui	a5,0x3
    153e:	97aa                	add	a5,a5,a0
    1540:	d007a583          	lw	a1,-768(a5) # 2d00 <_ZL10_ntoa_longPFvcPvjjEPcjjmbmjjj.constprop.0+0x2d0>
    1544:	07400713          	li	a4,116
    1548:	7661                	lui	a2,0xffff8
    154a:	02e58733          	mul	a4,a1,a4
    154e:	0629                	addi	a2,a2,10 # ffff800a <_end+0xfffeb252>
    1550:	d047a683          	lw	a3,-764(a5)
    1554:	00c99c23          	sh	a2,24(s3)
    1558:	00854783          	lbu	a5,8(a0)
    155c:	4511                	li	a0,4
    155e:	4309                	li	t1,2
    1560:	9726                	add	a4,a4,s1
    1562:	5f10                	lw	a2,56(a4)
    1564:	40c68633          	sub	a2,a3,a2
    1568:	00a78963          	beq	a5,a0,157a <_ZN5cue_t11CommandExecEv+0x2cc>
    156c:	17f5                	addi	a5,a5,-3
    156e:	00f037b3          	snez	a5,a5
    1572:	40f007b3          	neg	a5,a5
    1576:	0037f313          	andi	t1,a5,3
    157a:	04b00893          	li	a7,75
    157e:	09668693          	addi	a3,a3,150
    1582:	0316ceb3          	div	t4,a3,a7
    1586:	00640123          	sb	t1,2(s0)
    158a:	6785                	lui	a5,0x1
    158c:	19478793          	addi	a5,a5,404 # 1194 <_ZN5cue_t7LoadCUEEi+0x54e>
    1590:	4729                	li	a4,10
    1592:	03c00513          	li	a0,60
    1596:	00158913          	addi	s2,a1,1
    159a:	ff010f37          	lui	t5,0xff010
    159e:	1f7d                	addi	t5,t5,-1 # ff00ffff <_end+0xff003247>
    15a0:	01000e37          	lui	t3,0x1000
    15a4:	1e7d                	addi	t3,t3,-1 # ffffff <_end+0xff3247>
    15a6:	0104a803          	lw	a6,16(s1)
    15aa:	03164333          	div	t1,a2,a7
    15ae:	02f6c3b3          	div	t2,a3,a5
    15b2:	031662b3          	rem	t0,a2,a7
    15b6:	0ff3f393          	zext.b	t2,t2
    15ba:	02f64633          	div	a2,a2,a5
    15be:	0ff2f293          	zext.b	t0,t0
    15c2:	02aeeeb3          	rem	t4,t4,a0
    15c6:	0ff67613          	zext.b	a2,a2
    15ca:	02a36333          	rem	t1,t1,a0
    15ce:	0ffefe93          	zext.b	t4,t4
    15d2:	02e5c533          	div	a0,a1,a4
    15d6:	0ff37313          	zext.b	t1,t1
    15da:	02e5e5b3          	rem	a1,a1,a4
    15de:	0512                	slli	a0,a0,0x4
    15e0:	02e94fb3          	div	t6,s2,a4
    15e4:	8d4d                	or	a0,a0,a1
    15e6:	0ff57513          	zext.b	a0,a0
    15ea:	0522                	slli	a0,a0,0x8
    15ec:	0316e6b3          	rem	a3,a3,a7
    15f0:	0f92                	slli	t6,t6,0x4
    15f2:	02e3d8b3          	divu	a7,t2,a4
    15f6:	0ff6f693          	zext.b	a3,a3
    15fa:	02e2d7b3          	divu	a5,t0,a4
    15fe:	0892                	slli	a7,a7,0x4
    1600:	02e3f3b3          	remu	t2,t2,a4
    1604:	0792                	slli	a5,a5,0x4
    1606:	02e96933          	rem	s2,s2,a4
    160a:	0078e8b3          	or	a7,a7,t2
    160e:	0ff8f893          	zext.b	a7,a7
    1612:	08a2                	slli	a7,a7,0x8
    1614:	02e2f2b3          	remu	t0,t0,a4
    1618:	012fefb3          	or	t6,t6,s2
    161c:	0fffff93          	zext.b	t6,t6
    1620:	00afefb3          	or	t6,t6,a0
    1624:	01efffb3          	and	t6,t6,t5
    1628:	02e655b3          	divu	a1,a2,a4
    162c:	0057e7b3          	or	a5,a5,t0
    1630:	0ff7f793          	zext.b	a5,a5
    1634:	0117e7b3          	or	a5,a5,a7
    1638:	01e7f7b3          	and	a5,a5,t5
    163c:	00459513          	slli	a0,a1,0x4
    1640:	02eed5b3          	divu	a1,t4,a4
    1644:	02e678b3          	remu	a7,a2,a4
    1648:	00459613          	slli	a2,a1,0x4
    164c:	02eefeb3          	remu	t4,t4,a4
    1650:	011565b3          	or	a1,a0,a7
    1654:	0ff5f593          	zext.b	a1,a1
    1658:	05c2                	slli	a1,a1,0x10
    165a:	00bfe5b3          	or	a1,t6,a1
    165e:	01c5f5b3          	and	a1,a1,t3
    1662:	02e35533          	divu	a0,t1,a4
    1666:	01d66633          	or	a2,a2,t4
    166a:	0ff67613          	zext.b	a2,a2
    166e:	0642                	slli	a2,a2,0x10
    1670:	8fd1                	or	a5,a5,a2
    1672:	01c7f7b3          	and	a5,a5,t3
    1676:	02e37333          	remu	t1,t1,a4
    167a:	0512                	slli	a0,a0,0x4
    167c:	02e6d633          	divu	a2,a3,a4
    1680:	02e6f6b3          	remu	a3,a3,a4
    1684:	00656733          	or	a4,a0,t1
    1688:	0762                	slli	a4,a4,0x18
    168a:	8f4d                	or	a4,a4,a1
    168c:	0612                	slli	a2,a2,0x4
    168e:	c058                	sw	a4,4(s0)
    1690:	00d66733          	or	a4,a2,a3
    1694:	0762                	slli	a4,a4,0x18
    1696:	8fd9                	or	a5,a5,a4
    1698:	c41c                	sw	a5,8(s0)
    169a:	ca0806e3          	beqz	a6,1346 <_ZN5cue_t11CommandExecEv+0x98>
    169e:	4609                	li	a2,2
    16a0:	45b1                	li	a1,12
    16a2:	01898513          	addi	a0,s3,24
    16a6:	9802                	jalr	a6
    16a8:	b979                	j	1346 <_ZN5cue_t11CommandExecEv+0x98>
    16aa:	d3794403          	lbu	s0,-713(s2)
    16ae:	d3894783          	lbu	a5,-712(s2)
    16b2:	d3994703          	lbu	a4,-711(s2)
    16b6:	0442                	slli	s0,s0,0x10
    16b8:	07a2                	slli	a5,a5,0x8
    16ba:	8c5d                	or	s0,s0,a5
    16bc:	d3a94783          	lbu	a5,-710(s2)
    16c0:	8c59                	or	s0,s0,a4
    16c2:	042e                	slli	s0,s0,0xb
    16c4:	802d                	srli	s0,s0,0xb
    16c6:	10000913          	li	s2,256
    16ca:	c391                	beqz	a5,16ce <_ZN5cue_t11CommandExecEv+0x420>
    16cc:	893e                	mv	s2,a5
    16ce:	5cdc                	lw	a5,60(s1)
    16d0:	38f44563          	blt	s0,a5,1a5a <_ZN5cue_t11CommandExecEv+0x7ac>
    16d4:	5090                	lw	a2,32(s1)
    16d6:	0b048713          	addi	a4,s1,176
    16da:	4781                	li	a5,0
    16dc:	00c7d863          	bge	a5,a2,16ec <_ZN5cue_t11CommandExecEv+0x43e>
    16e0:	4314                	lw	a3,0(a4)
    16e2:	0785                	addi	a5,a5,1
    16e4:	07470713          	addi	a4,a4,116
    16e8:	fed45ae3          	bge	s0,a3,16dc <_ZN5cue_t11CommandExecEv+0x42e>
    16ec:	670d                	lui	a4,0x3
    16ee:	9726                	add	a4,a4,s1
    16f0:	d0472503          	lw	a0,-764(a4) # 2d04 <_ZL10_ntoa_longPFvcPvjjEPcjjmbmjjj.constprop.0+0x2d4>
    16f4:	d0f72023          	sw	a5,-768(a4)
    16f8:	0aa40463          	beq	s0,a0,17a0 <_ZN5cue_t11CommandExecEv+0x4f2>
    16fc:	678d                	lui	a5,0x3
    16fe:	97a6                	add	a5,a5,s1
    1700:	d4378783          	lb	a5,-701(a5) # 2d43 <_ZL10_ntoa_longPFvcPvjjEPcjjmbmjjj.constprop.0+0x313>
    1704:	0607d763          	bgez	a5,1772 <_ZN5cue_t11CommandExecEv+0x4c4>
    1708:	0004a023          	sw	zero,0(s1)
    170c:	678d                	lui	a5,0x3
    170e:	97a6                	add	a5,a5,s1
    1710:	d087a223          	sw	s0,-764(a5) # 2d04 <_ZL10_ntoa_longPFvcPvjjEPcjjmbmjjj.constprop.0+0x2d4>
    1714:	d127a423          	sw	s2,-760(a5)
    1718:	d007aa23          	sw	zero,-748(a5)
    171c:	4785                	li	a5,1
    171e:	00f48ca3          	sb	a5,25(s1)
    1722:	4789                	li	a5,2
    1724:	00f48423          	sb	a5,8(s1)
    1728:	40f2                	lw	ra,28(sp)
    172a:	4462                	lw	s0,24(sp)
    172c:	44d2                	lw	s1,20(sp)
    172e:	4942                	lw	s2,16(sp)
    1730:	49b2                	lw	s3,12(sp)
    1732:	6105                	addi	sp,sp,32
    1734:	8082                	ret
    1736:	00854703          	lbu	a4,8(a0)
    173a:	4785                	li	a5,1
    173c:	c0f715e3          	bne	a4,a5,1346 <_ZN5cue_t11CommandExecEv+0x98>
    1740:	4789                	li	a5,2
    1742:	d2f902a3          	sb	a5,-731(s2)
    1746:	47ad                	li	a5,11
    1748:	d2f91323          	sh	a5,-730(s2)
    174c:	d2090423          	sb	zero,-728(s2)
    1750:	03500513          	li	a0,53
    1754:	1b7000ef          	jal	ra,210a <_Z20HPS_spi_uio_cmd_contt>
    1758:	4505                	li	a0,1
    175a:	10d000ef          	jal	ra,2066 <_Z12HPS_fpga_spit>
    175e:	d2994503          	lbu	a0,-727(s2)
    1762:	beed                	j	135c <_ZN5cue_t11CommandExecEv+0xae>
    1764:	478d                	li	a5,3
    1766:	00f48423          	sb	a5,8(s1)
    176a:	4789                	li	a5,2
    176c:	bcf683e3          	beq	a3,a5,1332 <_ZN5cue_t11CommandExecEv+0x84>
    1770:	bed9                	j	1346 <_ZN5cue_t11CommandExecEv+0x98>
    1772:	85a2                	mv	a1,s0
    1774:	2725                	jal	1e9c <_Z14get_cd_seek_msii>
    1776:	47b5                	li	a5,13
    1778:	02f54533          	div	a0,a0,a5
    177c:	0004a223          	sw	zero,4(s1)
    1780:	c088                	sw	a0,0(s1)
    1782:	b769                	j	170c <_ZN5cue_t11CommandExecEv+0x45e>
    1784:	d047a503          	lw	a0,-764(a5)
    1788:	85a2                	mv	a1,s0
    178a:	2f09                	jal	1e9c <_Z14get_cd_seek_msii>
    178c:	47b5                	li	a5,13
    178e:	02f54533          	div	a0,a0,a5
    1792:	47c1                	li	a5,16
    1794:	c0dc                	sw	a5,4(s1)
    1796:	2aa7f663          	bgeu	a5,a0,1a42 <_ZN5cue_t11CommandExecEv+0x794>
    179a:	1541                	addi	a0,a0,-16
    179c:	c088                	sw	a0,0(s1)
    179e:	b1fd                	j	148c <_ZN5cue_t11CommandExecEv+0x1de>
    17a0:	07800793          	li	a5,120
    17a4:	f6f902e3          	beq	s2,a5,1708 <_ZN5cue_t11CommandExecEv+0x45a>
    17a8:	0fc00793          	li	a5,252
    17ac:	f4f918e3          	bne	s2,a5,16fc <_ZN5cue_t11CommandExecEv+0x44e>
    17b0:	4795                	li	a5,5
    17b2:	c09c                	sw	a5,0(s1)
    17b4:	bfa1                	j	170c <_ZN5cue_t11CommandExecEv+0x45e>
    17b6:	01c52803          	lw	a6,28(a0)
    17ba:	04b00693          	li	a3,75
    17be:	7761                	lui	a4,0xffff8
    17c0:	09680813          	addi	a6,a6,150
    17c4:	02d847b3          	div	a5,a6,a3
    17c8:	0711                	addi	a4,a4,4 # ffff8004 <_end+0xfffeb24c>
    17ca:	00e99c23          	sh	a4,24(s3)
    17ce:	03c00713          	li	a4,60
    17d2:	48a9                	li	a7,10
    17d4:	6511                	lui	a0,0x4
    17d6:	57050513          	addi	a0,a0,1392 # 4570 <stream_vscanf+0x984>
    17da:	02e7e7b3          	rem	a5,a5,a4
    17de:	6705                	lui	a4,0x1
    17e0:	19470713          	addi	a4,a4,404 # 1194 <_ZN5cue_t7LoadCUEEi+0x54e>
    17e4:	02e84733          	div	a4,a6,a4
    17e8:	0ff7fe93          	zext.b	t4,a5
    17ec:	87f6                	mv	a5,t4
    17ee:	02d86833          	rem	a6,a6,a3
    17f2:	0ff77e13          	zext.b	t3,a4
    17f6:	8772                	mv	a4,t3
    17f8:	031ed6b3          	divu	a3,t4,a7
    17fc:	0ff87313          	zext.b	t1,a6
    1800:	881a                	mv	a6,t1
    1802:	031e55b3          	divu	a1,t3,a7
    1806:	00469613          	slli	a2,a3,0x4
    180a:	031efeb3          	remu	t4,t4,a7
    180e:	0592                	slli	a1,a1,0x4
    1810:	031356b3          	divu	a3,t1,a7
    1814:	01d66633          	or	a2,a2,t4
    1818:	0ff67613          	zext.b	a2,a2
    181c:	00861e93          	slli	t4,a2,0x8
    1820:	031e7e33          	remu	t3,t3,a7
    1824:	0692                	slli	a3,a3,0x4
    1826:	03137333          	remu	t1,t1,a7
    182a:	01c5e5b3          	or	a1,a1,t3
    182e:	0ff5f893          	zext.b	a7,a1
    1832:	01d8e8b3          	or	a7,a7,t4
    1836:	0ff5f593          	zext.b	a1,a1
    183a:	01141123          	sh	a7,2(s0)
    183e:	0066e6b3          	or	a3,a3,t1
    1842:	0ff6f693          	zext.b	a3,a3
    1846:	00d40223          	sb	a3,4(s0)
    184a:	622010ef          	jal	ra,2e6c <riscprintf_>
    184e:	000402a3          	sb	zero,5(s0)
    1852:	be5d                	j	1408 <_ZN5cue_t11CommandExecEv+0x15a>
    1854:	d387c683          	lbu	a3,-712(a5)
    1858:	4701                	li	a4,0
    185a:	0046d793          	srli	a5,a3,0x4
    185e:	00279613          	slli	a2,a5,0x2
    1862:	97b2                	add	a5,a5,a2
    1864:	0786                	slli	a5,a5,0x1
    1866:	8abd                	andi	a3,a3,15
    1868:	97b6                	add	a5,a5,a3
    186a:	0ff7f793          	zext.b	a5,a5
    186e:	c791                	beqz	a5,187a <_ZN5cue_t11CommandExecEv+0x5cc>
    1870:	5118                	lw	a4,32(a0)
    1872:	00e7d363          	bge	a5,a4,1878 <_ZN5cue_t11CommandExecEv+0x5ca>
    1876:	873e                	mv	a4,a5
    1878:	177d                	addi	a4,a4,-1
    187a:	07400793          	li	a5,116
    187e:	02f70733          	mul	a4,a4,a5
    1882:	9726                	add	a4,a4,s1
    1884:	5f00                	lw	s0,56(a4)
    1886:	becd                	j	1478 <_ZN5cue_t11CommandExecEv+0x1ca>
    1888:	d3874703          	lbu	a4,-712(a4)
    188c:	00475793          	srli	a5,a4,0x4
    1890:	00279693          	slli	a3,a5,0x2
    1894:	97b6                	add	a5,a5,a3
    1896:	8b3d                	andi	a4,a4,15
    1898:	0786                	slli	a5,a5,0x1
    189a:	97ba                	add	a5,a5,a4
    189c:	0ff7f713          	zext.b	a4,a5
    18a0:	e311                	bnez	a4,18a4 <_ZN5cue_t11CommandExecEv+0x5f6>
    18a2:	4785                	li	a5,1
    18a4:	5098                	lw	a4,32(s1)
    18a6:	0ff7f793          	zext.b	a5,a5
    18aa:	1af75063          	bge	a4,a5,1a4a <_ZN5cue_t11CommandExecEv+0x79c>
    18ae:	4cdc                	lw	a5,28(s1)
    18b0:	b98d                	j	1522 <_ZN5cue_t11CommandExecEv+0x274>
    18b2:	d387c703          	lbu	a4,-712(a5)
    18b6:	04b00693          	li	a3,75
    18ba:	4329                	li	t1,10
    18bc:	00475793          	srli	a5,a4,0x4
    18c0:	00279613          	slli	a2,a5,0x2
    18c4:	97b2                	add	a5,a5,a2
    18c6:	8b3d                	andi	a4,a4,15
    18c8:	0786                	slli	a5,a5,0x1
    18ca:	97ba                	add	a5,a5,a4
    18cc:	0ff7f793          	zext.b	a5,a5
    18d0:	07400713          	li	a4,116
    18d4:	17fd                	addi	a5,a5,-1
    18d6:	02e787b3          	mul	a5,a5,a4
    18da:	7761                	lui	a4,0xffff8
    18dc:	0711                	addi	a4,a4,4 # ffff8004 <_end+0xfffeb24c>
    18de:	00e99c23          	sh	a4,24(s3)
    18e2:	03c00613          	li	a2,60
    18e6:	6511                	lui	a0,0x4
    18e8:	5b050513          	addi	a0,a0,1456 # 45b0 <stream_vscanf+0x9c4>
    18ec:	97a6                	add	a5,a5,s1
    18ee:	43b8                	lw	a4,64(a5)
    18f0:	0387a883          	lw	a7,56(a5)
    18f4:	070a                	slli	a4,a4,0x2
    18f6:	00e402a3          	sb	a4,5(s0)
    18fa:	6705                	lui	a4,0x1
    18fc:	09688813          	addi	a6,a7,150
    1900:	19470713          	addi	a4,a4,404 # 1194 <_ZN5cue_t7LoadCUEEi+0x54e>
    1904:	02d847b3          	div	a5,a6,a3
    1908:	02e84733          	div	a4,a6,a4
    190c:	02c7e7b3          	rem	a5,a5,a2
    1910:	0ff77f13          	zext.b	t5,a4
    1914:	877a                	mv	a4,t5
    1916:	02d86833          	rem	a6,a6,a3
    191a:	0ff7fe93          	zext.b	t4,a5
    191e:	87f6                	mv	a5,t4
    1920:	026f56b3          	divu	a3,t5,t1
    1924:	0ff87e13          	zext.b	t3,a6
    1928:	8872                	mv	a6,t3
    192a:	026ed633          	divu	a2,t4,t1
    192e:	00469593          	slli	a1,a3,0x4
    1932:	026e56b3          	divu	a3,t3,t1
    1936:	0612                	slli	a2,a2,0x4
    1938:	026f7f33          	remu	t5,t5,t1
    193c:	0692                	slli	a3,a3,0x4
    193e:	026efeb3          	remu	t4,t4,t1
    1942:	01e5e5b3          	or	a1,a1,t5
    1946:	0ff5f593          	zext.b	a1,a1
    194a:	00b40123          	sb	a1,2(s0)
    194e:	026e7e33          	remu	t3,t3,t1
    1952:	01d66633          	or	a2,a2,t4
    1956:	0ff67613          	zext.b	a2,a2
    195a:	00c401a3          	sb	a2,3(s0)
    195e:	01c6e6b3          	or	a3,a3,t3
    1962:	0ff6f693          	zext.b	a3,a3
    1966:	00d40223          	sb	a3,4(s0)
    196a:	502010ef          	jal	ra,2e6c <riscprintf_>
    196e:	bc69                	j	1408 <_ZN5cue_t11CommandExecEv+0x15a>
    1970:	d3874683          	lbu	a3,-712(a4)
    1974:	d3974603          	lbu	a2,-711(a4)
    1978:	0046d793          	srli	a5,a3,0x4
    197c:	00279593          	slli	a1,a5,0x2
    1980:	97ae                	add	a5,a5,a1
    1982:	8abd                	andi	a3,a3,15
    1984:	0786                	slli	a5,a5,0x1
    1986:	d3a74583          	lbu	a1,-710(a4)
    198a:	97b6                	add	a5,a5,a3
    198c:	6705                	lui	a4,0x1
    198e:	00465693          	srli	a3,a2,0x4
    1992:	0ff7f793          	zext.b	a5,a5
    1996:	19470713          	addi	a4,a4,404 # 1194 <_ZN5cue_t7LoadCUEEi+0x54e>
    199a:	02e78733          	mul	a4,a5,a4
    199e:	00269793          	slli	a5,a3,0x2
    19a2:	97b6                	add	a5,a5,a3
    19a4:	8a3d                	andi	a2,a2,15
    19a6:	0786                	slli	a5,a5,0x1
    19a8:	0045d693          	srli	a3,a1,0x4
    19ac:	97b2                	add	a5,a5,a2
    19ae:	0ff7f793          	zext.b	a5,a5
    19b2:	00269513          	slli	a0,a3,0x2
    19b6:	00279613          	slli	a2,a5,0x2
    19ba:	96aa                	add	a3,a3,a0
    19bc:	963e                	add	a2,a2,a5
    19be:	0686                	slli	a3,a3,0x1
    19c0:	89bd                	andi	a1,a1,15
    19c2:	00461793          	slli	a5,a2,0x4
    19c6:	96ae                	add	a3,a3,a1
    19c8:	8f91                	sub	a5,a5,a2
    19ca:	0ff6f693          	zext.b	a3,a3
    19ce:	97b6                	add	a5,a5,a3
    19d0:	97ba                	add	a5,a5,a4
    19d2:	f6a78793          	addi	a5,a5,-150
    19d6:	b6b1                	j	1522 <_ZN5cue_t11CommandExecEv+0x274>
    19d8:	d387c683          	lbu	a3,-712(a5)
    19dc:	d397c603          	lbu	a2,-711(a5)
    19e0:	0046d713          	srli	a4,a3,0x4
    19e4:	00271593          	slli	a1,a4,0x2
    19e8:	972e                	add	a4,a4,a1
    19ea:	8abd                	andi	a3,a3,15
    19ec:	0706                	slli	a4,a4,0x1
    19ee:	d3a7c583          	lbu	a1,-710(a5)
    19f2:	9736                	add	a4,a4,a3
    19f4:	6785                	lui	a5,0x1
    19f6:	00465693          	srli	a3,a2,0x4
    19fa:	0ff77713          	zext.b	a4,a4
    19fe:	19478793          	addi	a5,a5,404 # 1194 <_ZN5cue_t7LoadCUEEi+0x54e>
    1a02:	02f707b3          	mul	a5,a4,a5
    1a06:	00269713          	slli	a4,a3,0x2
    1a0a:	9736                	add	a4,a4,a3
    1a0c:	8a3d                	andi	a2,a2,15
    1a0e:	0706                	slli	a4,a4,0x1
    1a10:	0045d693          	srli	a3,a1,0x4
    1a14:	9732                	add	a4,a4,a2
    1a16:	0ff77713          	zext.b	a4,a4
    1a1a:	00269513          	slli	a0,a3,0x2
    1a1e:	00271613          	slli	a2,a4,0x2
    1a22:	96aa                	add	a3,a3,a0
    1a24:	963a                	add	a2,a2,a4
    1a26:	89bd                	andi	a1,a1,15
    1a28:	00169713          	slli	a4,a3,0x1
    1a2c:	00461413          	slli	s0,a2,0x4
    1a30:	972e                	add	a4,a4,a1
    1a32:	8c11                	sub	s0,s0,a2
    1a34:	0ff77713          	zext.b	a4,a4
    1a38:	943a                	add	s0,s0,a4
    1a3a:	943e                	add	s0,s0,a5
    1a3c:	f6a40413          	addi	s0,s0,-150
    1a40:	bc25                	j	1478 <_ZN5cue_t11CommandExecEv+0x1ca>
    1a42:	c088                	sw	a0,0(s1)
    1a44:	0004a223          	sw	zero,4(s1)
    1a48:	b491                	j	148c <_ZN5cue_t11CommandExecEv+0x1de>
    1a4a:	17fd                	addi	a5,a5,-1
    1a4c:	07400713          	li	a4,116
    1a50:	02e787b3          	mul	a5,a5,a4
    1a54:	97a6                	add	a5,a5,s1
    1a56:	5f9c                	lw	a5,56(a5)
    1a58:	b4e9                	j	1522 <_ZN5cue_t11CommandExecEv+0x274>
    1a5a:	4781                	li	a5,0
    1a5c:	b941                	j	16ec <_ZN5cue_t11CommandExecEv+0x43e>
    1a5e:	4781                	li	a5,0
    1a60:	bc89                	j	14b2 <_ZN5cue_t11CommandExecEv+0x204>

00001a62 <_ZN5cue_t9GetStatusEv>:
    1a62:	678d                	lui	a5,0x3
    1a64:	953e                	add	a0,a0,a5
    1a66:	d3455503          	lhu	a0,-716(a0)
    1a6a:	8082                	ret

00001a6c <_ZN5cue_t10SetCommandEPh>:
    1a6c:	678d                	lui	a5,0x3
    1a6e:	d3678793          	addi	a5,a5,-714 # 2d36 <_ZL10_ntoa_longPFvcPvjjEPcjjmbmjjj.constprop.0+0x306>
    1a72:	1141                	addi	sp,sp,-16
    1a74:	4639                	li	a2,14
    1a76:	953e                	add	a0,a0,a5
    1a78:	c606                	sw	ra,12(sp)
    1a7a:	25f010ef          	jal	ra,34d8 <memcpy>
    1a7e:	40b2                	lw	ra,12(sp)
    1a80:	4501                	li	a0,0
    1a82:	0141                	addi	sp,sp,16
    1a84:	8082                	ret

00001a86 <_ZN5cue_t10SendStatusEt>:
    1a86:	1141                	addi	sp,sp,-16
    1a88:	c422                	sw	s0,8(sp)
    1a8a:	842a                	mv	s0,a0
    1a8c:	03500513          	li	a0,53
    1a90:	c606                	sw	ra,12(sp)
    1a92:	c226                	sw	s1,4(sp)
    1a94:	84ae                	mv	s1,a1
    1a96:	2d95                	jal	210a <_Z20HPS_spi_uio_cmd_contt>
    1a98:	8526                	mv	a0,s1
    1a9a:	23f1                	jal	2066 <_Z12HPS_fpga_spit>
    1a9c:	678d                	lui	a5,0x3
    1a9e:	943e                	add	s0,s0,a5
    1aa0:	d2944503          	lbu	a0,-727(s0)
    1aa4:	00a03533          	snez	a0,a0
    1aa8:	0506                	slli	a0,a0,0x1
    1aaa:	2b75                	jal	2066 <_Z12HPS_fpga_spit>
    1aac:	4422                	lw	s0,8(sp)
    1aae:	40b2                	lw	ra,12(sp)
    1ab0:	4492                	lw	s1,4(sp)
    1ab2:	0141                	addi	sp,sp,16
    1ab4:	ab51                	j	2048 <_Z13HPS_DisableIOv>

00001ab6 <_ZN5cue_t15SendDataRequestEv>:
    1ab6:	1141                	addi	sp,sp,-16
    1ab8:	c422                	sw	s0,8(sp)
    1aba:	842a                	mv	s0,a0
    1abc:	03500513          	li	a0,53
    1ac0:	c606                	sw	ra,12(sp)
    1ac2:	25a1                	jal	210a <_Z20HPS_spi_uio_cmd_contt>
    1ac4:	4501                	li	a0,0
    1ac6:	2345                	jal	2066 <_Z12HPS_fpga_spit>
    1ac8:	678d                	lui	a5,0x3
    1aca:	943e                	add	s0,s0,a5
    1acc:	d2944503          	lbu	a0,-727(s0)
    1ad0:	00153513          	seqz	a0,a0
    1ad4:	40a00533          	neg	a0,a0
    1ad8:	9979                	andi	a0,a0,-2
    1ada:	050d                	addi	a0,a0,3
    1adc:	2369                	jal	2066 <_Z12HPS_fpga_spit>
    1ade:	4422                	lw	s0,8(sp)
    1ae0:	40b2                	lw	ra,12(sp)
    1ae2:	0141                	addi	sp,sp,16
    1ae4:	a395                	j	2048 <_Z13HPS_DisableIOv>

00001ae6 <_ZN5cue_t9SetRegionEh>:
    1ae6:	678d                	lui	a5,0x3
    1ae8:	953e                	add	a0,a0,a5
    1aea:	d2b504a3          	sb	a1,-727(a0)
    1aee:	8082                	ret

00001af0 <_ZN5cue_t8ReadDataEv>:
    1af0:	1141                	addi	sp,sp,-16
    1af2:	c226                	sw	s1,4(sp)
    1af4:	648d                	lui	s1,0x3
    1af6:	94aa                	add	s1,s1,a0
    1af8:	d004a783          	lw	a5,-768(s1) # 2d00 <_ZL10_ntoa_longPFvcPvjjEPcjjmbmjjj.constprop.0+0x2d0>
    1afc:	c04a                	sw	s2,0(sp)
    1afe:	07400913          	li	s2,116
    1b02:	032787b3          	mul	a5,a5,s2
    1b06:	c606                	sw	ra,12(sp)
    1b08:	c422                	sw	s0,8(sp)
    1b0a:	97aa                	add	a5,a5,a0
    1b0c:	43bc                	lw	a5,64(a5)
    1b0e:	c789                	beqz	a5,1b18 <_ZN5cue_t8ReadDataEv+0x28>
    1b10:	d044a583          	lw	a1,-764(s1)
    1b14:	0005d863          	bgez	a1,1b24 <_ZN5cue_t8ReadDataEv+0x34>
    1b18:	40b2                	lw	ra,12(sp)
    1b1a:	4422                	lw	s0,8(sp)
    1b1c:	4492                	lw	s1,4(sp)
    1b1e:	4902                	lw	s2,0(sp)
    1b20:	0141                	addi	sp,sp,16
    1b22:	8082                	ret
    1b24:	842a                	mv	s0,a0
    1b26:	6511                	lui	a0,0x4
    1b28:	61450513          	addi	a0,a0,1556 # 4614 <stream_vscanf+0xa28>
    1b2c:	340010ef          	jal	ra,2e6c <riscprintf_>
    1b30:	d004a783          	lw	a5,-768(s1)
    1b34:	d044a583          	lw	a1,-764(s1)
    1b38:	032787b3          	mul	a5,a5,s2
    1b3c:	97a2                	add	a5,a5,s0
    1b3e:	43f8                	lw	a4,68(a5)
    1b40:	80070713          	addi	a4,a4,-2048
    1b44:	c739                	beqz	a4,1b92 <_ZN5cue_t8ReadDataEv+0xa2>
    1b46:	5798                	lw	a4,40(a5)
    1b48:	6605                	lui	a2,0x1
    1b4a:	93060613          	addi	a2,a2,-1744 # 930 <_Z12RISCFileSeekimm+0x8a>
    1b4e:	02c585b3          	mul	a1,a1,a2
    1b52:	53c8                	lw	a0,36(a5)
    1b54:	e319                	bnez	a4,1b5a <_ZN5cue_t8ReadDataEv+0x6a>
    1b56:	5b9c                	lw	a5,48(a5)
    1b58:	8d9d                	sub	a1,a1,a5
    1b5a:	05c1                	addi	a1,a1,16
    1b5c:	d4bfe0ef          	jal	ra,8a6 <_Z12RISCFileSeekimm>
    1b60:	678d                	lui	a5,0x3
    1b62:	97a2                	add	a5,a5,s0
    1b64:	d007a783          	lw	a5,-768(a5) # 2d00 <_ZL10_ntoa_longPFvcPvjjEPcjjmbmjjj.constprop.0+0x2d0>
    1b68:	07400713          	li	a4,116
    1b6c:	03600693          	li	a3,54
    1b70:	02e787b3          	mul	a5,a5,a4
    1b74:	6705                	lui	a4,0x1
    1b76:	93070713          	addi	a4,a4,-1744 # 930 <_Z12RISCFileSeekimm+0x8a>
    1b7a:	08800613          	li	a2,136
    1b7e:	4581                	li	a1,0
    1b80:	943e                	add	s0,s0,a5
    1b82:	5048                	lw	a0,36(s0)
    1b84:	4422                	lw	s0,8(sp)
    1b86:	40b2                	lw	ra,12(sp)
    1b88:	4492                	lw	s1,4(sp)
    1b8a:	4902                	lw	s2,0(sp)
    1b8c:	0141                	addi	sp,sp,16
    1b8e:	fd5fe06f          	j	b62 <_Z15RISCFileReadAdvihhhm>
    1b92:	5798                	lw	a4,40(a5)
    1b94:	53c8                	lw	a0,36(a5)
    1b96:	05ae                	slli	a1,a1,0xb
    1b98:	eb1d                	bnez	a4,1bce <_ZN5cue_t8ReadDataEv+0xde>
    1b9a:	5b9c                	lw	a5,48(a5)
    1b9c:	6605                	lui	a2,0x1
    1b9e:	80060613          	addi	a2,a2,-2048 # 800 <_Z21dataslot_read_lba_settmm+0xc>
    1ba2:	8d9d                	sub	a1,a1,a5
    1ba4:	d03fe0ef          	jal	ra,8a6 <_Z12RISCFileSeekimm>
    1ba8:	678d                	lui	a5,0x3
    1baa:	97a2                	add	a5,a5,s0
    1bac:	d007a783          	lw	a5,-768(a5) # 2d00 <_ZL10_ntoa_longPFvcPvjjEPcjjmbmjjj.constprop.0+0x2d0>
    1bb0:	07400713          	li	a4,116
    1bb4:	03600693          	li	a3,54
    1bb8:	02e787b3          	mul	a5,a5,a4
    1bbc:	6705                	lui	a4,0x1
    1bbe:	80070713          	addi	a4,a4,-2048 # 800 <_Z21dataslot_read_lba_settmm+0xc>
    1bc2:	08800613          	li	a2,136
    1bc6:	4581                	li	a1,0
    1bc8:	97a2                	add	a5,a5,s0
    1bca:	53c8                	lw	a0,36(a5)
    1bcc:	bf65                	j	1b84 <_ZN5cue_t8ReadDataEv+0x94>
    1bce:	6605                	lui	a2,0x1
    1bd0:	80060613          	addi	a2,a2,-2048 # 800 <_Z21dataslot_read_lba_settmm+0xc>
    1bd4:	cd3fe0ef          	jal	ra,8a6 <_Z12RISCFileSeekimm>
    1bd8:	bfc1                	j	1ba8 <_ZN5cue_t8ReadDataEv+0xb8>

00001bda <_ZN5cue_t6UpdateEv>:
    1bda:	1101                	addi	sp,sp,-32
    1bdc:	cc22                	sw	s0,24(sp)
    1bde:	ce06                	sw	ra,28(sp)
    1be0:	ca26                	sw	s1,20(sp)
    1be2:	c84a                	sw	s2,16(sp)
    1be4:	c64e                	sw	s3,12(sp)
    1be6:	c452                	sw	s4,8(sp)
    1be8:	00854783          	lbu	a5,8(a0)
    1bec:	4709                	li	a4,2
    1bee:	842a                	mv	s0,a0
    1bf0:	16e78d63          	beq	a5,a4,1d6a <_ZN5cue_t6UpdateEv+0x190>
    1bf4:	470d                	li	a4,3
    1bf6:	08e78063          	beq	a5,a4,1c76 <_ZN5cue_t6UpdateEv+0x9c>
    1bfa:	4711                	li	a4,4
    1bfc:	14e78a63          	beq	a5,a4,1d50 <_ZN5cue_t6UpdateEv+0x176>
    1c00:	678d                	lui	a5,0x3
    1c02:	97a2                	add	a5,a5,s0
    1c04:	d007a503          	lw	a0,-768(a5) # 2d00 <_ZL10_ntoa_longPFvcPvjjEPcjjmbmjjj.constprop.0+0x2d0>
    1c08:	d047a583          	lw	a1,-764(a5)
    1c0c:	5c5c                	lw	a5,60(s0)
    1c0e:	26f5c263          	blt	a1,a5,1e72 <_ZN5cue_t6UpdateEv+0x298>
    1c12:	5010                	lw	a2,32(s0)
    1c14:	0b040713          	addi	a4,s0,176
    1c18:	4781                	li	a5,0
    1c1a:	a031                	j	1c26 <_ZN5cue_t6UpdateEv+0x4c>
    1c1c:	f8c72683          	lw	a3,-116(a4)
    1c20:	0785                	addi	a5,a5,1
    1c22:	00d5c663          	blt	a1,a3,1c2e <_ZN5cue_t6UpdateEv+0x54>
    1c26:	07470713          	addi	a4,a4,116
    1c2a:	fec7c9e3          	blt	a5,a2,1c1c <_ZN5cue_t6UpdateEv+0x42>
    1c2e:	07400713          	li	a4,116
    1c32:	02e787b3          	mul	a5,a5,a4
    1c36:	04b00613          	li	a2,75
    1c3a:	40f2                	lw	ra,28(sp)
    1c3c:	44d2                	lw	s1,20(sp)
    1c3e:	4942                	lw	s2,16(sp)
    1c40:	49b2                	lw	s3,12(sp)
    1c42:	4a22                	lw	s4,8(sp)
    1c44:	0505                	addi	a0,a0,1
    1c46:	0ff57513          	zext.b	a0,a0
    1c4a:	943e                	add	s0,s0,a5
    1c4c:	5c1c                	lw	a5,56(s0)
    1c4e:	4462                	lw	s0,24(sp)
    1c50:	8d9d                	sub	a1,a1,a5
    1c52:	02c5c633          	div	a2,a1,a2
    1c56:	6785                	lui	a5,0x1
    1c58:	19478793          	addi	a5,a5,404 # 1194 <_ZN5cue_t7LoadCUEEi+0x54e>
    1c5c:	6105                	addi	sp,sp,32
    1c5e:	02f5c5b3          	div	a1,a1,a5
    1c62:	03c00793          	li	a5,60
    1c66:	02f66633          	rem	a2,a2,a5
    1c6a:	0ff5f593          	zext.b	a1,a1
    1c6e:	0ff67613          	zext.b	a2,a2
    1c72:	3ef0006f          	j	2860 <_Z18osd_display_timinghhh>
    1c76:	411c                	lw	a5,0(a0)
    1c78:	eff9                	bnez	a5,1d56 <_ZN5cue_t6UpdateEv+0x17c>
    1c7a:	415c                	lw	a5,4(a0)
    1c7c:	18079963          	bnez	a5,1e0e <_ZN5cue_t6UpdateEv+0x234>
    1c80:	678d                	lui	a5,0x3
    1c82:	97aa                	add	a5,a5,a0
    1c84:	d047a583          	lw	a1,-764(a5) # 2d04 <_ZL10_ntoa_longPFvcPvjjEPcjjmbmjjj.constprop.0+0x2d4>
    1c88:	5d5c                	lw	a5,60(a0)
    1c8a:	20f5c763          	blt	a1,a5,1e98 <_ZN5cue_t6UpdateEv+0x2be>
    1c8e:	5110                	lw	a2,32(a0)
    1c90:	0b050713          	addi	a4,a0,176
    1c94:	4781                	li	a5,0
    1c96:	a031                	j	1ca2 <_ZN5cue_t6UpdateEv+0xc8>
    1c98:	f8c72683          	lw	a3,-116(a4)
    1c9c:	0785                	addi	a5,a5,1
    1c9e:	00d5c663          	blt	a1,a3,1caa <_ZN5cue_t6UpdateEv+0xd0>
    1ca2:	07470713          	addi	a4,a4,116
    1ca6:	fec7c9e3          	blt	a5,a2,1c98 <_ZN5cue_t6UpdateEv+0xbe>
    1caa:	648d                	lui	s1,0x3
    1cac:	94a2                	add	s1,s1,s0
    1cae:	d204a703          	lw	a4,-736(s1) # 2d20 <_ZL10_ntoa_longPFvcPvjjEPcjjmbmjjj.constprop.0+0x2f0>
    1cb2:	d0f4a023          	sw	a5,-768(s1)
    1cb6:	06074663          	bltz	a4,1d22 <_ZN5cue_t6UpdateEv+0x148>
    1cba:	6985                	lui	s3,0x1
    1cbc:	4901                	li	s2,0
    1cbe:	07400a13          	li	s4,116
    1cc2:	93098993          	addi	s3,s3,-1744 # 930 <_Z12RISCFileSeekimm+0x8a>
    1cc6:	a019                	j	1ccc <_ZN5cue_t6UpdateEv+0xf2>
    1cc8:	d004a783          	lw	a5,-768(s1)
    1ccc:	034787b3          	mul	a5,a5,s4
    1cd0:	97a2                	add	a5,a5,s0
    1cd2:	43b8                	lw	a4,64(a5)
    1cd4:	ef1d                	bnez	a4,1d12 <_ZN5cue_t6UpdateEv+0x138>
    1cd6:	5798                	lw	a4,40(a5)
    1cd8:	033585b3          	mul	a1,a1,s3
    1cdc:	53c8                	lw	a0,36(a5)
    1cde:	864e                	mv	a2,s3
    1ce0:	e319                	bnez	a4,1ce6 <_ZN5cue_t6UpdateEv+0x10c>
    1ce2:	5b9c                	lw	a5,48(a5)
    1ce4:	8d9d                	sub	a1,a1,a5
    1ce6:	bc1fe0ef          	jal	ra,8a6 <_Z12RISCFileSeekimm>
    1cea:	d004a783          	lw	a5,-768(s1)
    1cee:	d134a823          	sw	s3,-752(s1)
    1cf2:	d004aa23          	sw	zero,-748(s1)
    1cf6:	034787b3          	mul	a5,a5,s4
    1cfa:	03000593          	li	a1,48
    1cfe:	874e                	mv	a4,s3
    1d00:	03600693          	li	a3,54
    1d04:	4625                	li	a2,9
    1d06:	97a2                	add	a5,a5,s0
    1d08:	53c8                	lw	a0,36(a5)
    1d0a:	e59fe0ef          	jal	ra,b62 <_Z15RISCFileReadAdvihhhm>
    1d0e:	d044a583          	lw	a1,-764(s1)
    1d12:	d204a783          	lw	a5,-736(s1)
    1d16:	0585                	addi	a1,a1,1
    1d18:	0905                	addi	s2,s2,1
    1d1a:	d0b4a223          	sw	a1,-764(s1)
    1d1e:	fb27d5e3          	bge	a5,s2,1cc8 <_ZN5cue_t6UpdateEv+0xee>
    1d22:	678d                	lui	a5,0x3
    1d24:	97a2                	add	a5,a5,s0
    1d26:	d1c7a703          	lw	a4,-740(a5) # 2d1c <_ZL10_ntoa_longPFvcPvjjEPcjjmbmjjj.constprop.0+0x2ec>
    1d2a:	d207a023          	sw	zero,-736(a5)
    1d2e:	0eb75363          	bge	a4,a1,1e14 <_ZN5cue_t6UpdateEv+0x23a>
    1d32:	648d                	lui	s1,0x3
    1d34:	94a2                	add	s1,s1,s0
    1d36:	d244c783          	lbu	a5,-732(s1) # 2d24 <_ZL10_ntoa_longPFvcPvjjEPcjjmbmjjj.constprop.0+0x2f4>
    1d3a:	4705                	li	a4,1
    1d3c:	12e78d63          	beq	a5,a4,1e76 <_ZN5cue_t6UpdateEv+0x29c>
    1d40:	00040423          	sb	zero,8(s0)
    1d44:	4709                	li	a4,2
    1d46:	0ee78463          	beq	a5,a4,1e2e <_ZN5cue_t6UpdateEv+0x254>
    1d4a:	d004a503          	lw	a0,-768(s1)
    1d4e:	bd7d                	j	1c0c <_ZN5cue_t6UpdateEv+0x32>
    1d50:	411c                	lw	a5,0(a0)
    1d52:	ea0787e3          	beqz	a5,1c00 <_ZN5cue_t6UpdateEv+0x26>
    1d56:	17fd                	addi	a5,a5,-1
    1d58:	c01c                	sw	a5,0(s0)
    1d5a:	40f2                	lw	ra,28(sp)
    1d5c:	4462                	lw	s0,24(sp)
    1d5e:	44d2                	lw	s1,20(sp)
    1d60:	4942                	lw	s2,16(sp)
    1d62:	49b2                	lw	s3,12(sp)
    1d64:	4a22                	lw	s4,8(sp)
    1d66:	6105                	addi	sp,sp,32
    1d68:	8082                	ret
    1d6a:	411c                	lw	a5,0(a0)
    1d6c:	f7ed                	bnez	a5,1d56 <_ZN5cue_t6UpdateEv+0x17c>
    1d6e:	648d                	lui	s1,0x3
    1d70:	94aa                	add	s1,s1,a0
    1d72:	d004a503          	lw	a0,-768(s1) # 2d00 <_ZL10_ntoa_longPFvcPvjjEPcjjmbmjjj.constprop.0+0x2d0>
    1d76:	501c                	lw	a5,32(s0)
    1d78:	08f55863          	bge	a0,a5,1e08 <_ZN5cue_t6UpdateEv+0x22e>
    1d7c:	01944783          	lbu	a5,25(s0)
    1d80:	dfe9                	beqz	a5,1d5a <_ZN5cue_t6UpdateEv+0x180>
    1d82:	07400793          	li	a5,116
    1d86:	02f507b3          	mul	a5,a0,a5
    1d8a:	00040ca3          	sb	zero,25(s0)
    1d8e:	d044a583          	lw	a1,-764(s1)
    1d92:	97a2                	add	a5,a5,s0
    1d94:	43b8                	lw	a4,64(a5)
    1d96:	ef4d                	bnez	a4,1e50 <_ZN5cue_t6UpdateEv+0x276>
    1d98:	5f9c                	lw	a5,56(a5)
    1d9a:	00f5c463          	blt	a1,a5,1da2 <_ZN5cue_t6UpdateEv+0x1c8>
    1d9e:	000404a3          	sb	zero,9(s0)
    1da2:	678d                	lui	a5,0x3
    1da4:	97a2                	add	a5,a5,s0
    1da6:	d087a703          	lw	a4,-760(a5) # 2d08 <_ZL10_ntoa_longPFvcPvjjEPcjjmbmjjj.constprop.0+0x2d8>
    1daa:	177d                	addi	a4,a4,-1
    1dac:	d0e7a423          	sw	a4,-760(a5)
    1db0:	e719                	bnez	a4,1dbe <_ZN5cue_t6UpdateEv+0x1e4>
    1db2:	d2079a23          	sh	zero,-716(a5)
    1db6:	4785                	li	a5,1
    1db8:	c85c                	sw	a5,20(s0)
    1dba:	00040423          	sb	zero,8(s0)
    1dbe:	07400793          	li	a5,116
    1dc2:	02f50733          	mul	a4,a0,a5
    1dc6:	648d                	lui	s1,0x3
    1dc8:	0585                	addi	a1,a1,1
    1dca:	94a2                	add	s1,s1,s0
    1dcc:	d0b4a223          	sw	a1,-764(s1) # 2d04 <_ZL10_ntoa_longPFvcPvjjEPcjjmbmjjj.constprop.0+0x2d4>
    1dd0:	9722                	add	a4,a4,s0
    1dd2:	5f58                	lw	a4,60(a4)
    1dd4:	e2e5cce3          	blt	a1,a4,1c0c <_ZN5cue_t6UpdateEv+0x32>
    1dd8:	0505                	addi	a0,a0,1
    1dda:	02f507b3          	mul	a5,a0,a5
    1dde:	d0a4a023          	sw	a0,-768(s1)
    1de2:	4705                	li	a4,1
    1de4:	00e404a3          	sb	a4,9(s0)
    1de8:	6605                	lui	a2,0x1
    1dea:	93060613          	addi	a2,a2,-1744 # 930 <_Z12RISCFileSeekimm+0x8a>
    1dee:	97a2                	add	a5,a5,s0
    1df0:	5798                	lw	a4,40(a5)
    1df2:	02c585b3          	mul	a1,a1,a2
    1df6:	c759                	beqz	a4,1e84 <_ZN5cue_t6UpdateEv+0x2aa>
    1df8:	53c8                	lw	a0,36(a5)
    1dfa:	aadfe0ef          	jal	ra,8a6 <_Z12RISCFileSeekimm>
    1dfe:	d004a503          	lw	a0,-768(s1)
    1e02:	d044a583          	lw	a1,-764(s1)
    1e06:	b519                	j	1c0c <_ZN5cue_t6UpdateEv+0x32>
    1e08:	00040423          	sb	zero,8(s0)
    1e0c:	b7b9                	j	1d5a <_ZN5cue_t6UpdateEv+0x180>
    1e0e:	17fd                	addi	a5,a5,-1
    1e10:	c15c                	sw	a5,4(a0)
    1e12:	b7a1                	j	1d5a <_ZN5cue_t6UpdateEv+0x180>
    1e14:	d007a503          	lw	a0,-768(a5)
    1e18:	07400793          	li	a5,116
    1e1c:	02f507b3          	mul	a5,a0,a5
    1e20:	97a2                	add	a5,a5,s0
    1e22:	43bc                	lw	a5,64(a5)
    1e24:	f799                	bnez	a5,1d32 <_ZN5cue_t6UpdateEv+0x158>
    1e26:	501c                	lw	a5,32(s0)
    1e28:	dea7d2e3          	bge	a5,a0,1c0c <_ZN5cue_t6UpdateEv+0x32>
    1e2c:	b719                	j	1d32 <_ZN5cue_t6UpdateEv+0x158>
    1e2e:	03500513          	li	a0,53
    1e32:	2ce1                	jal	210a <_Z20HPS_spi_uio_cmd_contt>
    1e34:	4501                	li	a0,0
    1e36:	2c05                	jal	2066 <_Z12HPS_fpga_spit>
    1e38:	d294c503          	lbu	a0,-727(s1)
    1e3c:	00a03533          	snez	a0,a0
    1e40:	0506                	slli	a0,a0,0x1
    1e42:	2415                	jal	2066 <_Z12HPS_fpga_spit>
    1e44:	2411                	jal	2048 <_Z13HPS_DisableIOv>
    1e46:	d004a503          	lw	a0,-768(s1)
    1e4a:	d044a583          	lw	a1,-764(s1)
    1e4e:	bb7d                	j	1c0c <_ZN5cue_t6UpdateEv+0x32>
    1e50:	6605                	lui	a2,0x1
    1e52:	93060613          	addi	a2,a2,-1744 # 930 <_Z12RISCFileSeekimm+0x8a>
    1e56:	02c58633          	mul	a2,a1,a2
    1e5a:	6511                	lui	a0,0x4
    1e5c:	62c50513          	addi	a0,a0,1580 # 462c <stream_vscanf+0xa40>
    1e60:	00c010ef          	jal	ra,2e6c <riscprintf_>
    1e64:	8522                	mv	a0,s0
    1e66:	3169                	jal	1af0 <_ZN5cue_t8ReadDataEv>
    1e68:	d044a583          	lw	a1,-764(s1)
    1e6c:	d004a503          	lw	a0,-768(s1)
    1e70:	bf0d                	j	1da2 <_ZN5cue_t6UpdateEv+0x1c8>
    1e72:	4781                	li	a5,0
    1e74:	bb6d                	j	1c2e <_ZN5cue_t6UpdateEv+0x54>
    1e76:	d184a583          	lw	a1,-744(s1)
    1e7a:	d004a503          	lw	a0,-768(s1)
    1e7e:	d0b4a223          	sw	a1,-764(s1)
    1e82:	b369                	j	1c0c <_ZN5cue_t6UpdateEv+0x32>
    1e84:	5b98                	lw	a4,48(a5)
    1e86:	53c8                	lw	a0,36(a5)
    1e88:	8d99                	sub	a1,a1,a4
    1e8a:	a1dfe0ef          	jal	ra,8a6 <_Z12RISCFileSeekimm>
    1e8e:	d004a503          	lw	a0,-768(s1)
    1e92:	d044a583          	lw	a1,-764(s1)
    1e96:	bb9d                	j	1c0c <_ZN5cue_t6UpdateEv+0x32>
    1e98:	4781                	li	a5,0
    1e9a:	bd01                	j	1caa <_ZN5cue_t6UpdateEv+0xd0>

00001e9c <_Z14get_cd_seek_msii>:
    1e9c:	1141                	addi	sp,sp,-16
    1e9e:	6795                	lui	a5,0x5
    1ea0:	ad478693          	addi	a3,a5,-1324 # 4ad4 <sector_list+0x4>
    1ea4:	c606                	sw	ra,12(sp)
    1ea6:	c422                	sw	s0,8(sp)
    1ea8:	862e                	mv	a2,a1
    1eaa:	ad478793          	addi	a5,a5,-1324
    1eae:	4701                	li	a4,0
    1eb0:	4839                	li	a6,14
    1eb2:	438c                	lw	a1,0(a5)
    1eb4:	00b54563          	blt	a0,a1,1ebe <_Z14get_cd_seek_msii+0x22>
    1eb8:	43cc                	lw	a1,4(a5)
    1eba:	00a5d763          	bge	a1,a0,1ec8 <_Z14get_cd_seek_msii+0x2c>
    1ebe:	0705                	addi	a4,a4,1
    1ec0:	07d1                	addi	a5,a5,20
    1ec2:	ff0718e3          	bne	a4,a6,1eb2 <_Z14get_cd_seek_msii+0x16>
    1ec6:	4701                	li	a4,0
    1ec8:	4781                	li	a5,0
    1eca:	4839                	li	a6,14
    1ecc:	428c                	lw	a1,0(a3)
    1ece:	00b64563          	blt	a2,a1,1ed8 <_Z14get_cd_seek_msii+0x3c>
    1ed2:	42cc                	lw	a1,4(a3)
    1ed4:	0cc5d163          	bge	a1,a2,1f96 <_Z14get_cd_seek_msii+0xfa>
    1ed8:	0785                	addi	a5,a5,1
    1eda:	06d1                	addi	a3,a3,20
    1edc:	ff0798e3          	bne	a5,a6,1ecc <_Z14get_cd_seek_msii+0x30>
    1ee0:	6595                	lui	a1,0x5
    1ee2:	ad058593          	addi	a1,a1,-1328 # 4ad0 <sector_list>
    1ee6:	0005ae83          	lw	t4,0(a1)
    1eea:	40a60833          	sub	a6,a2,a0
    1eee:	cf41                	beqz	a4,1f86 <_Z14get_cd_seek_msii+0xea>
    1ef0:	00271693          	slli	a3,a4,0x2
    1ef4:	00e687b3          	add	a5,a3,a4
    1ef8:	078a                	slli	a5,a5,0x2
    1efa:	97ae                	add	a5,a5,a1
    1efc:	0007af03          	lw	t5,0(a5)
    1f00:	4881                	li	a7,0
    1f02:	4781                	li	a5,0
    1f04:	96ba                	add	a3,a3,a4
    1f06:	98be                	add	a7,a7,a5
    1f08:	068a                	slli	a3,a3,0x2
    1f0a:	088a                	slli	a7,a7,0x2
    1f0c:	96ae                	add	a3,a3,a1
    1f0e:	98ae                	add	a7,a7,a1
    1f10:	0046a303          	lw	t1,4(a3)
    1f14:	0088a883          	lw	a7,8(a7)
    1f18:	40f706b3          	sub	a3,a4,a5
    1f1c:	40650333          	sub	t1,a0,t1
    1f20:	40c888b3          	sub	a7,a7,a2
    1f24:	03e34333          	div	t1,t1,t5
    1f28:	16fd                	addi	a3,a3,-1
    1f2a:	873e                	mv	a4,a5
    1f2c:	64700793          	li	a5,1607
    1f30:	03d8c8b3          	div	a7,a7,t4
    1f34:	02f687b3          	mul	a5,a3,a5
    1f38:	006886b3          	add	a3,a7,t1
    1f3c:	97b6                	add	a5,a5,a3
    1f3e:	00380693          	addi	a3,a6,3
    1f42:	4899                	li	a7,6
    1f44:	02100413          	li	s0,33
    1f48:	00d8fe63          	bgeu	a7,a3,1f64 <_Z14get_cd_seek_msii+0xc8>
    1f4c:	00271693          	slli	a3,a4,0x2
    1f50:	9736                	add	a4,a4,a3
    1f52:	070a                	slli	a4,a4,0x2
    1f54:	972e                	add	a4,a4,a1
    1f56:	0819                	addi	a6,a6,6
    1f58:	46b1                	li	a3,12
    1f5a:	4740                	lw	s0,12(a4)
    1f5c:	0906e163          	bltu	a3,a6,1fde <_Z14get_cd_seek_msii+0x142>
    1f60:	09640413          	addi	s0,s0,150
    1f64:	85aa                	mv	a1,a0
    1f66:	6511                	lui	a0,0x4
    1f68:	64050513          	addi	a0,a0,1600 # 4640 <stream_vscanf+0xa54>
    1f6c:	4b8010ef          	jal	ra,3424 <riscprintff_>
    1f70:	6511                	lui	a0,0x4
    1f72:	85a2                	mv	a1,s0
    1f74:	66050513          	addi	a0,a0,1632 # 4660 <stream_vscanf+0xa74>
    1f78:	4ac010ef          	jal	ra,3424 <riscprintff_>
    1f7c:	40b2                	lw	ra,12(sp)
    1f7e:	8522                	mv	a0,s0
    1f80:	4422                	lw	s0,8(sp)
    1f82:	0141                	addi	sp,sp,16
    1f84:	8082                	ret
    1f86:	41f85693          	srai	a3,a6,0x1f
    1f8a:	0106c7b3          	xor	a5,a3,a6
    1f8e:	8f95                	sub	a5,a5,a3
    1f90:	03d7c7b3          	div	a5,a5,t4
    1f94:	b76d                	j	1f3e <_Z14get_cd_seek_msii+0xa2>
    1f96:	00279893          	slli	a7,a5,0x2
    1f9a:	6595                	lui	a1,0x5
    1f9c:	00f88333          	add	t1,a7,a5
    1fa0:	ad058593          	addi	a1,a1,-1328 # 4ad0 <sector_list>
    1fa4:	030a                	slli	t1,t1,0x2
    1fa6:	932e                	add	t1,t1,a1
    1fa8:	00032e83          	lw	t4,0(t1)
    1fac:	40a60833          	sub	a6,a2,a0
    1fb0:	fcf70be3          	beq	a4,a5,1f86 <_Z14get_cd_seek_msii+0xea>
    1fb4:	00271693          	slli	a3,a4,0x2
    1fb8:	00e68e33          	add	t3,a3,a4
    1fbc:	0e0a                	slli	t3,t3,0x2
    1fbe:	9e2e                	add	t3,t3,a1
    1fc0:	000e2f03          	lw	t5,0(t3)
    1fc4:	f4f750e3          	bge	a4,a5,1f04 <_Z14get_cd_seek_msii+0x68>
    1fc8:	00432883          	lw	a7,4(t1)
    1fcc:	008e2e03          	lw	t3,8(t3)
    1fd0:	40e786b3          	sub	a3,a5,a4
    1fd4:	411608b3          	sub	a7,a2,a7
    1fd8:	40ae0333          	sub	t1,t3,a0
    1fdc:	b7a1                	j	1f24 <_Z14get_cd_seek_msii+0x88>
    1fde:	05000713          	li	a4,80
    1fe2:	00f75963          	bge	a4,a5,1ff4 <_Z14get_cd_seek_msii+0x158>
    1fe6:	0a000693          	li	a3,160
    1fea:	00f6c863          	blt	a3,a5,1ffa <_Z14get_cd_seek_msii+0x15e>
    1fee:	16e40413          	addi	s0,s0,366
    1ff2:	bf8d                	j	1f64 <_Z14get_cd_seek_msii+0xc8>
    1ff4:	11b40413          	addi	s0,s0,283
    1ff8:	b7b5                	j	1f64 <_Z14get_cd_seek_msii+0xc8>
    1ffa:	28400693          	li	a3,644
    1ffe:	00f6cd63          	blt	a3,a5,2018 <_Z14get_cd_seek_msii+0x17c>
    2002:	f5f78793          	addi	a5,a5,-161
    2006:	00479693          	slli	a3,a5,0x4
    200a:	97b6                	add	a5,a5,a3
    200c:	02e7c7b3          	div	a5,a5,a4
    2010:	16e40413          	addi	s0,s0,366
    2014:	943e                	add	s0,s0,a5
    2016:	b7b9                	j	1f64 <_Z14get_cd_seek_msii+0xc8>
    2018:	d7c78793          	addi	a5,a5,-644
    201c:	00479713          	slli	a4,a5,0x4
    2020:	97ba                	add	a5,a5,a4
    2022:	0c300713          	li	a4,195
    2026:	02e7c7b3          	div	a5,a5,a4
    202a:	25840413          	addi	s0,s0,600
    202e:	943e                	add	s0,s0,a5
    2030:	bf15                	j	1f64 <_Z14get_cd_seek_msii+0xc8>

00002032 <_Z12HPS_EnableIOv>:
    2032:	fd000713          	li	a4,-48
    2036:	431c                	lw	a5,0(a4)
    2038:	0001                	nop
    203a:	0001                	nop
    203c:	0001                	nop
    203e:	801006b7          	lui	a3,0x80100
    2042:	8fd5                	or	a5,a5,a3
    2044:	c31c                	sw	a5,0(a4)
    2046:	8082                	ret

00002048 <_Z13HPS_DisableIOv>:
    2048:	fd000693          	li	a3,-48
    204c:	429c                	lw	a5,0(a3)
    204e:	0001                	nop
    2050:	0001                	nop
    2052:	0001                	nop
    2054:	fff00737          	lui	a4,0xfff00
    2058:	177d                	addi	a4,a4,-1 # ffefffff <_end+0xffef3247>
    205a:	8ff9                	and	a5,a5,a4
    205c:	80000737          	lui	a4,0x80000
    2060:	8fd9                	or	a5,a5,a4
    2062:	c29c                	sw	a5,0(a3)
    2064:	8082                	ret

00002066 <_Z12HPS_fpga_spit>:
    2066:	fd002683          	lw	a3,-48(zero) # ffffffd0 <_end+0xffff3218>
    206a:	0001                	nop
    206c:	0001                	nop
    206e:	fffd07b7          	lui	a5,0xfffd0
    2072:	8efd                	and	a3,a3,a5
    2074:	8ec9                	or	a3,a3,a0
    2076:	0001                	nop
    2078:	000207b7          	lui	a5,0x20
    207c:	fcd02823          	sw	a3,-48(zero) # ffffffd0 <_end+0xffff3218>
    2080:	8fd5                	or	a5,a5,a3
    2082:	fcf02823          	sw	a5,-48(zero) # ffffffd0 <_end+0xffff3218>
    2086:	00020737          	lui	a4,0x20
    208a:	fd402783          	lw	a5,-44(zero) # ffffffd4 <_end+0xffff321c>
    208e:	8ff9                	and	a5,a5,a4
    2090:	dfed                	beqz	a5,208a <_Z12HPS_fpga_spit+0x24>
    2092:	fcd02823          	sw	a3,-48(zero) # ffffffd0 <_end+0xffff3218>
    2096:	00020737          	lui	a4,0x20
    209a:	fd402503          	lw	a0,-44(zero) # ffffffd4 <_end+0xffff321c>
    209e:	00e577b3          	and	a5,a0,a4
    20a2:	ffe5                	bnez	a5,209a <_Z12HPS_fpga_spit+0x34>
    20a4:	0542                	slli	a0,a0,0x10
    20a6:	8141                	srli	a0,a0,0x10
    20a8:	8082                	ret

000020aa <_Z13HPS_spi_writePKhmi>:
    20aa:	1141                	addi	sp,sp,-16
    20ac:	c422                	sw	s0,8(sp)
    20ae:	c04a                	sw	s2,0(sp)
    20b0:	c606                	sw	ra,12(sp)
    20b2:	c226                	sw	s1,4(sp)
    20b4:	842a                	mv	s0,a0
    20b6:	892e                	mv	s2,a1
    20b8:	e205                	bnez	a2,20d8 <_Z13HPS_spi_writePKhmi+0x2e>
    20ba:	00b504b3          	add	s1,a0,a1
    20be:	c599                	beqz	a1,20cc <_Z13HPS_spi_writePKhmi+0x22>
    20c0:	00044503          	lbu	a0,0(s0)
    20c4:	0405                	addi	s0,s0,1
    20c6:	3745                	jal	2066 <_Z12HPS_fpga_spit>
    20c8:	fe941ce3          	bne	s0,s1,20c0 <_Z13HPS_spi_writePKhmi+0x16>
    20cc:	40b2                	lw	ra,12(sp)
    20ce:	4422                	lw	s0,8(sp)
    20d0:	4492                	lw	s1,4(sp)
    20d2:	4902                	lw	s2,0(sp)
    20d4:	0141                	addi	sp,sp,16
    20d6:	8082                	ret
    20d8:	0015d493          	srli	s1,a1,0x1
    20dc:	c48d                	beqz	s1,2106 <_Z13HPS_spi_writePKhmi+0x5c>
    20de:	0486                	slli	s1,s1,0x1
    20e0:	94aa                	add	s1,s1,a0
    20e2:	00045503          	lhu	a0,0(s0)
    20e6:	0409                	addi	s0,s0,2
    20e8:	3fbd                	jal	2066 <_Z12HPS_fpga_spit>
    20ea:	fe941ce3          	bne	s0,s1,20e2 <_Z13HPS_spi_writePKhmi+0x38>
    20ee:	00197913          	andi	s2,s2,1
    20f2:	fc090de3          	beqz	s2,20cc <_Z13HPS_spi_writePKhmi+0x22>
    20f6:	4422                	lw	s0,8(sp)
    20f8:	0004c503          	lbu	a0,0(s1)
    20fc:	40b2                	lw	ra,12(sp)
    20fe:	4492                	lw	s1,4(sp)
    2100:	4902                	lw	s2,0(sp)
    2102:	0141                	addi	sp,sp,16
    2104:	b78d                	j	2066 <_Z12HPS_fpga_spit>
    2106:	84aa                	mv	s1,a0
    2108:	b7dd                	j	20ee <_Z13HPS_spi_writePKhmi+0x44>

0000210a <_Z20HPS_spi_uio_cmd_contt>:
    210a:	fd000713          	li	a4,-48
    210e:	431c                	lw	a5,0(a4)
    2110:	0001                	nop
    2112:	0001                	nop
    2114:	0001                	nop
    2116:	801006b7          	lui	a3,0x80100
    211a:	8fd5                	or	a5,a5,a3
    211c:	c31c                	sw	a5,0(a4)
    211e:	0001                	nop
    2120:	0001                	nop
    2122:	b791                	j	2066 <_Z12HPS_fpga_spit>

00002124 <_Z21HPS_spi_uio_cmd8_conthh>:
    2124:	1141                	addi	sp,sp,-16
    2126:	fd000713          	li	a4,-48
    212a:	c422                	sw	s0,8(sp)
    212c:	c226                	sw	s1,4(sp)
    212e:	c606                	sw	ra,12(sp)
    2130:	431c                	lw	a5,0(a4)
    2132:	84aa                	mv	s1,a0
    2134:	842e                	mv	s0,a1
    2136:	0001                	nop
    2138:	0001                	nop
    213a:	0001                	nop
    213c:	801006b7          	lui	a3,0x80100
    2140:	8fd5                	or	a5,a5,a3
    2142:	c31c                	sw	a5,0(a4)
    2144:	4505                	li	a0,1
    2146:	316010ef          	jal	ra,345c <_Z10riscusleepi>
    214a:	8526                	mv	a0,s1
    214c:	3f29                	jal	2066 <_Z12HPS_fpga_spit>
    214e:	4505                	li	a0,1
    2150:	30c010ef          	jal	ra,345c <_Z10riscusleepi>
    2154:	8522                	mv	a0,s0
    2156:	3f01                	jal	2066 <_Z12HPS_fpga_spit>
    2158:	40b2                	lw	ra,12(sp)
    215a:	4422                	lw	s0,8(sp)
    215c:	4492                	lw	s1,4(sp)
    215e:	0ff57513          	zext.b	a0,a0
    2162:	0141                	addi	sp,sp,16
    2164:	8082                	ret

00002166 <_Z16HPS_spi_uio_cmd8hh>:
    2166:	1141                	addi	sp,sp,-16
    2168:	c422                	sw	s0,8(sp)
    216a:	fd000413          	li	s0,-48
    216e:	c226                	sw	s1,4(sp)
    2170:	c04a                	sw	s2,0(sp)
    2172:	c606                	sw	ra,12(sp)
    2174:	401c                	lw	a5,0(s0)
    2176:	892a                	mv	s2,a0
    2178:	84ae                	mv	s1,a1
    217a:	0001                	nop
    217c:	0001                	nop
    217e:	0001                	nop
    2180:	80100737          	lui	a4,0x80100
    2184:	8fd9                	or	a5,a5,a4
    2186:	c01c                	sw	a5,0(s0)
    2188:	4505                	li	a0,1
    218a:	2d2010ef          	jal	ra,345c <_Z10riscusleepi>
    218e:	854a                	mv	a0,s2
    2190:	3dd9                	jal	2066 <_Z12HPS_fpga_spit>
    2192:	4505                	li	a0,1
    2194:	2c8010ef          	jal	ra,345c <_Z10riscusleepi>
    2198:	8526                	mv	a0,s1
    219a:	35f1                	jal	2066 <_Z12HPS_fpga_spit>
    219c:	84aa                	mv	s1,a0
    219e:	4505                	li	a0,1
    21a0:	2bc010ef          	jal	ra,345c <_Z10riscusleepi>
    21a4:	401c                	lw	a5,0(s0)
    21a6:	0001                	nop
    21a8:	0001                	nop
    21aa:	0001                	nop
    21ac:	fff00737          	lui	a4,0xfff00
    21b0:	177d                	addi	a4,a4,-1 # ffefffff <_end+0xffef3247>
    21b2:	8ff9                	and	a5,a5,a4
    21b4:	80000737          	lui	a4,0x80000
    21b8:	8fd9                	or	a5,a5,a4
    21ba:	40b2                	lw	ra,12(sp)
    21bc:	c01c                	sw	a5,0(s0)
    21be:	4422                	lw	s0,8(sp)
    21c0:	4902                	lw	s2,0(sp)
    21c2:	0ff4f513          	zext.b	a0,s1
    21c6:	4492                	lw	s1,4(sp)
    21c8:	0141                	addi	sp,sp,16
    21ca:	8082                	ret

000021cc <_Z19HPS_io_file_tx_dataPKhmi>:
    21cc:	1101                	addi	sp,sp,-32
    21ce:	cc22                	sw	s0,24(sp)
    21d0:	fd000413          	li	s0,-48
    21d4:	ca26                	sw	s1,20(sp)
    21d6:	c84a                	sw	s2,16(sp)
    21d8:	c64e                	sw	s3,12(sp)
    21da:	ce06                	sw	ra,28(sp)
    21dc:	401c                	lw	a5,0(s0)
    21de:	84aa                	mv	s1,a0
    21e0:	892e                	mv	s2,a1
    21e2:	89b2                	mv	s3,a2
    21e4:	0001                	nop
    21e6:	0001                	nop
    21e8:	0001                	nop
    21ea:	80100737          	lui	a4,0x80100
    21ee:	8fd9                	or	a5,a5,a4
    21f0:	c01c                	sw	a5,0(s0)
    21f2:	4505                	li	a0,1
    21f4:	268010ef          	jal	ra,345c <_Z10riscusleepi>
    21f8:	0ff9f513          	zext.b	a0,s3
    21fc:	35ad                	jal	2066 <_Z12HPS_fpga_spit>
    21fe:	4605                	li	a2,1
    2200:	85ca                	mv	a1,s2
    2202:	8526                	mv	a0,s1
    2204:	355d                	jal	20aa <_Z13HPS_spi_writePKhmi>
    2206:	401c                	lw	a5,0(s0)
    2208:	0001                	nop
    220a:	0001                	nop
    220c:	0001                	nop
    220e:	fff00737          	lui	a4,0xfff00
    2212:	177d                	addi	a4,a4,-1 # ffefffff <_end+0xffef3247>
    2214:	8ff9                	and	a5,a5,a4
    2216:	80000737          	lui	a4,0x80000
    221a:	8fd9                	or	a5,a5,a4
    221c:	40f2                	lw	ra,28(sp)
    221e:	c01c                	sw	a5,0(s0)
    2220:	4462                	lw	s0,24(sp)
    2222:	44d2                	lw	s1,20(sp)
    2224:	4942                	lw	s2,16(sp)
    2226:	49b2                	lw	s3,12(sp)
    2228:	6105                	addi	sp,sp,32
    222a:	8082                	ret

0000222c <_Z14HPS_DisableOsdv>:
    222c:	fd000693          	li	a3,-48
    2230:	429c                	lw	a5,0(a3)
    2232:	0001                	nop
    2234:	0001                	nop
    2236:	0001                	nop
    2238:	ffe40737          	lui	a4,0xffe40
    223c:	177d                	addi	a4,a4,-1 # ffe3ffff <_end+0xffe33247>
    223e:	8ff9                	and	a5,a5,a4
    2240:	80000737          	lui	a4,0x80000
    2244:	8fd9                	or	a5,a5,a4
    2246:	c29c                	sw	a5,0(a3)
    2248:	8082                	ret

0000224a <_Z20HPS_spi_osd_cmd_conth>:
    224a:	fd000713          	li	a4,-48
    224e:	431c                	lw	a5,0(a4)
    2250:	0001                	nop
    2252:	0001                	nop
    2254:	0001                	nop
    2256:	801c06b7          	lui	a3,0x801c0
    225a:	8fd5                	or	a5,a5,a3
    225c:	c31c                	sw	a5,0(a4)
    225e:	0001                	nop
    2260:	b519                	j	2066 <_Z12HPS_fpga_spit>

00002262 <_Z15HPS_spi_osd_cmdh>:
    2262:	1141                	addi	sp,sp,-16
    2264:	c422                	sw	s0,8(sp)
    2266:	fd000413          	li	s0,-48
    226a:	c606                	sw	ra,12(sp)
    226c:	401c                	lw	a5,0(s0)
    226e:	0001                	nop
    2270:	0001                	nop
    2272:	0001                	nop
    2274:	801c0737          	lui	a4,0x801c0
    2278:	8fd9                	or	a5,a5,a4
    227a:	c01c                	sw	a5,0(s0)
    227c:	0001                	nop
    227e:	33e5                	jal	2066 <_Z12HPS_fpga_spit>
    2280:	0001                	nop
    2282:	0001                	nop
    2284:	0001                	nop
    2286:	401c                	lw	a5,0(s0)
    2288:	0001                	nop
    228a:	0001                	nop
    228c:	0001                	nop
    228e:	ffe40737          	lui	a4,0xffe40
    2292:	177d                	addi	a4,a4,-1 # ffe3ffff <_end+0xffe33247>
    2294:	8ff9                	and	a5,a5,a4
    2296:	80000737          	lui	a4,0x80000
    229a:	8fd9                	or	a5,a5,a4
    229c:	40b2                	lw	ra,12(sp)
    229e:	c01c                	sw	a5,0(s0)
    22a0:	4422                	lw	s0,8(sp)
    22a2:	0141                	addi	sp,sp,16
    22a4:	8082                	ret

000022a6 <_Z17OSD_HPS_spi_writePKhmi>:
    22a6:	1141                	addi	sp,sp,-16
    22a8:	c422                	sw	s0,8(sp)
    22aa:	c04a                	sw	s2,0(sp)
    22ac:	c606                	sw	ra,12(sp)
    22ae:	c226                	sw	s1,4(sp)
    22b0:	842a                	mv	s0,a0
    22b2:	892e                	mv	s2,a1
    22b4:	e205                	bnez	a2,22d4 <_Z17OSD_HPS_spi_writePKhmi+0x2e>
    22b6:	00b504b3          	add	s1,a0,a1
    22ba:	c599                	beqz	a1,22c8 <_Z17OSD_HPS_spi_writePKhmi+0x22>
    22bc:	00044503          	lbu	a0,0(s0)
    22c0:	0405                	addi	s0,s0,1
    22c2:	3355                	jal	2066 <_Z12HPS_fpga_spit>
    22c4:	fe849ce3          	bne	s1,s0,22bc <_Z17OSD_HPS_spi_writePKhmi+0x16>
    22c8:	40b2                	lw	ra,12(sp)
    22ca:	4422                	lw	s0,8(sp)
    22cc:	4492                	lw	s1,4(sp)
    22ce:	4902                	lw	s2,0(sp)
    22d0:	0141                	addi	sp,sp,16
    22d2:	8082                	ret
    22d4:	0015d493          	srli	s1,a1,0x1
    22d8:	c48d                	beqz	s1,2302 <_Z17OSD_HPS_spi_writePKhmi+0x5c>
    22da:	0486                	slli	s1,s1,0x1
    22dc:	94aa                	add	s1,s1,a0
    22de:	00045503          	lhu	a0,0(s0)
    22e2:	0409                	addi	s0,s0,2
    22e4:	3349                	jal	2066 <_Z12HPS_fpga_spit>
    22e6:	fe849ce3          	bne	s1,s0,22de <_Z17OSD_HPS_spi_writePKhmi+0x38>
    22ea:	00197913          	andi	s2,s2,1
    22ee:	fc090de3          	beqz	s2,22c8 <_Z17OSD_HPS_spi_writePKhmi+0x22>
    22f2:	4422                	lw	s0,8(sp)
    22f4:	0004c503          	lbu	a0,0(s1)
    22f8:	40b2                	lw	ra,12(sp)
    22fa:	4492                	lw	s1,4(sp)
    22fc:	4902                	lw	s2,0(sp)
    22fe:	0141                	addi	sp,sp,16
    2300:	b39d                	j	2066 <_Z12HPS_fpga_spit>
    2302:	84aa                	mv	s1,a0
    2304:	b7dd                	j	22ea <_Z17OSD_HPS_spi_writePKhmi+0x44>

00002306 <_Z14OsdWriteOffsethPKchhcccii>:
    2306:	715d                	addi	sp,sp,-80
    2308:	d466                	sw	s9,40(sp)
    230a:	67b5                	lui	a5,0xd
    230c:	c6a2                	sw	s0,76(sp)
    230e:	c4a6                	sw	s1,72(sp)
    2310:	c2ca                	sw	s2,68(sp)
    2312:	c0ce                	sw	s3,64(sp)
    2314:	de52                	sw	s4,60(sp)
    2316:	dc56                	sw	s5,56(sp)
    2318:	da5a                	sw	s6,52(sp)
    231a:	d85e                	sw	s7,48(sp)
    231c:	d662                	sw	s8,44(sp)
    231e:	d26a                	sw	s10,36(sp)
    2320:	d06e                	sw	s11,32(sp)
    2322:	4e46                	lw	t3,80(sp)
    2324:	9a47ac83          	lw	s9,-1628(a5) # c9a4 <_ZL5arrow>
    2328:	0ff00f93          	li	t6,255
    232c:	c689                	beqz	a3,2336 <_Z14OsdWriteOffsethPKchhcccii+0x30>
    232e:	05500f93          	li	t6,85
    2332:	0ff00693          	li	a3,255
    2336:	6435                	lui	s0,0xd
    2338:	99c42783          	lw	a5,-1636(s0) # c99c <_ZL6osdset>
    233c:	01f57f13          	andi	t5,a0,31
    2340:	4b05                	li	s6,1
    2342:	01eb1b33          	sll	s6,s6,t5
    2346:	00fb6b33          	or	s6,s6,a5
    234a:	0f22                	slli	t5,t5,0x8
    234c:	67b5                	lui	a5,0xd
    234e:	9be7a023          	sw	t5,-1632(a5) # c9a0 <_ZL9osdbufpos>
    2352:	6795                	lui	a5,0x5
    2354:	6315                	lui	t1,0x5
    2356:	be878793          	addi	a5,a5,-1048 # 4be8 <charfont>
    235a:	01032483          	lw	s1,16(t1) # 5010 <_ZL8osd_size>
    235e:	cc3e                	sw	a5,24(sp)
    2360:	67b1                	lui	a5,0xc
    2362:	73078c13          	addi	s8,a5,1840 # c730 <_ZL6osdbuf>
    2366:	67b5                	lui	a5,0xd
    2368:	4981                	li	s3,0
    236a:	83078793          	addi	a5,a5,-2000 # c830 <framebuffer>
    236e:	6a95                	lui	s5,0x5
    2370:	6a15                	lui	s4,0x5
    2372:	8d42                	mv	s10,a6
    2374:	99642e23          	sw	s6,-1636(s0)
    2378:	14fd                	addi	s1,s1,-1
    237a:	c602                	sw	zero,12(sp)
    237c:	4281                	li	t0,0
    237e:	4301                	li	t1,0
    2380:	4e81                	li	t4,0
    2382:	492d                	li	s2,11
    2384:	4bb1                	li	s7,12
    2386:	4db5                	li	s11,13
    2388:	ce3e                	sw	a5,28(sp)
    238a:	c70a8a93          	addi	s5,s5,-912 # 4c70 <charfont+0x88>
    238e:	c90a0a13          	addi	s4,s4,-880 # 4c90 <charfont+0xa8>
    2392:	884e                	mv	a6,s3
    2394:	ce09                	beqz	a2,23ae <_Z14OsdWriteOffsethPKchhcccii+0xa8>
    2396:	003ed793          	srli	a5,t4,0x3
    239a:	01c7c463          	blt	a5,t3,23a2 <_Z14OsdWriteOffsethPKchhcccii+0x9c>
    239e:	0ff00313          	li	t1,255
    23a2:	0117a7b3          	slt	a5,a5,a7
    23a6:	40f007b3          	neg	a5,a5
    23aa:	00f37333          	and	t1,t1,a5
    23ae:	08950763          	beq	a0,s1,243c <_Z14OsdWriteOffsethPKchhcccii+0x136>
    23b2:	0005c783          	lbu	a5,0(a1)
    23b6:	0585                	addi	a1,a1,1
    23b8:	16078263          	beqz	a5,251c <_Z14OsdWriteOffsethPKchhcccii+0x216>
    23bc:	13278563          	beq	a5,s2,24e6 <_Z14OsdWriteOffsethPKchhcccii+0x1e0>
    23c0:	15778963          	beq	a5,s7,2512 <_Z14OsdWriteOffsethPKchhcccii+0x20c>
    23c4:	13b78863          	beq	a5,s11,24f4 <_Z14OsdWriteOffsethPKchhcccii+0x1ee>
    23c8:	4429                	li	s0,10
    23ca:	12878563          	beq	a5,s0,24f4 <_Z14OsdWriteOffsethPKchhcccii+0x1ee>
    23ce:	0f700413          	li	s0,247
    23d2:	fdd461e3          	bltu	s0,t4,2394 <_Z14OsdWriteOffsethPKchhcccii+0x8e>
    23d6:	4462                	lw	s0,24(sp)
    23d8:	42f2                	lw	t0,28(sp)
    23da:	078e                	slli	a5,a5,0x3
    23dc:	97a2                	add	a5,a5,s0
    23de:	feae8413          	addi	s0,t4,-22
    23e2:	010349b3          	xor	s3,t1,a6
    23e6:	9416                	add	s0,s0,t0
    23e8:	00878293          	addi	t0,a5,8
    23ec:	c826                	sw	s1,16(sp)
    23ee:	0ff9f993          	zext.b	s3,s3
    23f2:	01ec03b3          	add	t2,s8,t5
    23f6:	ca76                	sw	t4,20(sp)
    23f8:	8496                	mv	s1,t0
    23fa:	0785                	addi	a5,a5,1
    23fc:	4281                	li	t0,0
    23fe:	000d0463          	beqz	s10,2406 <_Z14OsdWriteOffsethPKchhcccii+0x100>
    2402:	00044283          	lbu	t0,0(s0)
    2406:	fff7ce83          	lbu	t4,-1(a5)
    240a:	0385                	addi	t2,t2,1
    240c:	0405                	addi	s0,s0,1
    240e:	00ee9eb3          	sll	t4,t4,a4
    2412:	01dffeb3          	and	t4,t6,t4
    2416:	01d9ceb3          	xor	t4,s3,t4
    241a:	01d2e2b3          	or	t0,t0,t4
    241e:	fe538fa3          	sb	t0,-1(t2)
    2422:	01f6cfb3          	xor	t6,a3,t6
    2426:	fc979ae3          	bne	a5,s1,23fa <_Z14OsdWriteOffsethPKchhcccii+0xf4>
    242a:	4ed2                	lw	t4,20(sp)
    242c:	44c2                	lw	s1,16(sp)
    242e:	0f21                	addi	t5,t5,8
    2430:	0ea1                	addi	t4,t4,8
    2432:	0ec2                	slli	t4,t4,0x10
    2434:	010ede93          	srli	t4,t4,0x10
    2438:	4285                	li	t0,1
    243a:	bfa9                	j	2394 <_Z14OsdWriteOffsethPKchhcccii+0x8e>
    243c:	001cf793          	andi	a5,s9,1
    2440:	dbad                	beqz	a5,23b2 <_Z14OsdWriteOffsethPKchhcccii+0xac>
    2442:	01ec07b3          	add	a5,s8,t5
    2446:	003f0993          	addi	s3,t5,3
    244a:	00678023          	sb	t1,0(a5)
    244e:	006780a3          	sb	t1,1(a5)
    2452:	00678123          	sb	t1,2(a5)
    2456:	6795                	lui	a5,0x5
    2458:	6431                	lui	s0,0xc
    245a:	83e2                	mv	t2,s8
    245c:	99e2                	add	s3,s3,s8
    245e:	c6878293          	addi	t0,a5,-920 # 4c68 <charfont+0x80>
    2462:	0002c783          	lbu	a5,0(t0)
    2466:	0985                	addi	s3,s3,1
    2468:	0285                	addi	t0,t0,1
    246a:	00e797b3          	sll	a5,a5,a4
    246e:	00f347b3          	xor	a5,t1,a5
    2472:	fef98fa3          	sb	a5,-1(s3)
    2476:	ff5296e3          	bne	t0,s5,2462 <_Z14OsdWriteOffsethPKchhcccii+0x15c>
    247a:	00bf0993          	addi	s3,t5,11
    247e:	6795                	lui	a5,0x5
    2480:	99e2                	add	s3,s3,s8
    2482:	c8878293          	addi	t0,a5,-888 # 4c88 <charfont+0xa0>
    2486:	0002c783          	lbu	a5,0(t0)
    248a:	0985                	addi	s3,s3,1
    248c:	0285                	addi	t0,t0,1
    248e:	00e797b3          	sll	a5,a5,a4
    2492:	00f347b3          	xor	a5,t1,a5
    2496:	fef98fa3          	sb	a5,-1(s3)
    249a:	ff4296e3          	bne	t0,s4,2486 <_Z14OsdWriteOffsethPKchhcccii+0x180>
    249e:	01ec07b3          	add	a5,s8,t5
    24a2:	017f0293          	addi	t0,t5,23
    24a6:	006789a3          	sb	t1,19(a5)
    24aa:	00678a23          	sb	t1,20(a5)
    24ae:	00678aa3          	sb	t1,21(a5)
    24b2:	00678b23          	sb	t1,22(a5)
    24b6:	005c07b3          	add	a5,s8,t0
    24ba:	00678023          	sb	t1,0(a5)
    24be:	0005c783          	lbu	a5,0(a1)
    24c2:	0ee1                	addi	t4,t4,24
    24c4:	0ec2                	slli	t4,t4,0x10
    24c6:	0f61                	addi	t5,t5,24
    24c8:	010ede93          	srli	t4,t4,0x10
    24cc:	ffecfc93          	andi	s9,s9,-2
    24d0:	0e078b63          	beqz	a5,25c6 <_Z14OsdWriteOffsethPKchhcccii+0x2c0>
    24d4:	0015c783          	lbu	a5,1(a1)
    24d8:	c7fd                	beqz	a5,25c6 <_Z14OsdWriteOffsethPKchhcccii+0x2c0>
    24da:	0025c783          	lbu	a5,2(a1)
    24de:	058d                	addi	a1,a1,3
    24e0:	c3fd                	beqz	a5,25c6 <_Z14OsdWriteOffsethPKchhcccii+0x2c0>
    24e2:	4285                	li	t0,1
    24e4:	bd45                	j	2394 <_Z14OsdWriteOffsethPKchhcccii+0x8e>
    24e6:	fff6c693          	not	a3,a3
    24ea:	0aafcf93          	xori	t6,t6,170
    24ee:	0ff6f693          	zext.b	a3,a3
    24f2:	b54d                	j	2394 <_Z14OsdWriteOffsethPKchhcccii+0x8e>
    24f4:	0505                	addi	a0,a0,1
    24f6:	01f57f13          	andi	t5,a0,31
    24fa:	4785                	li	a5,1
    24fc:	01e797b3          	sll	a5,a5,t5
    2500:	00fb6b33          	or	s6,s6,a5
    2504:	4785                	li	a5,1
    2506:	0ff57513          	zext.b	a0,a0
    250a:	0f22                	slli	t5,t5,0x8
    250c:	c63e                	sw	a5,12(sp)
    250e:	4285                	li	t0,1
    2510:	b551                	j	2394 <_Z14OsdWriteOffsethPKchhcccii+0x8e>
    2512:	fff84793          	not	a5,a6
    2516:	0ff7f813          	zext.b	a6,a5
    251a:	bdad                	j	2394 <_Z14OsdWriteOffsethPKchhcccii+0x8e>
    251c:	47b2                	lw	a5,12(sp)
    251e:	886a                	mv	a6,s10
    2520:	c781                	beqz	a5,2528 <_Z14OsdWriteOffsethPKchhcccii+0x222>
    2522:	67b5                	lui	a5,0xd
    2524:	9967ae23          	sw	s6,-1636(a5) # c99c <_ZL6osdset>
    2528:	00028563          	beqz	t0,2532 <_Z14OsdWriteOffsethPKchhcccii+0x22c>
    252c:	67b5                	lui	a5,0xd
    252e:	9be7a023          	sw	t5,-1632(a5) # c9a0 <_ZL9osdbufpos>
    2532:	6431                	lui	s0,0xc
    2534:	0ff00793          	li	a5,255
    2538:	86f6                	mv	a3,t4
    253a:	73040393          	addi	t2,s0,1840 # c730 <_ZL6osdbuf>
    253e:	07d7e463          	bltu	a5,t4,25a6 <_Z14OsdWriteOffsethPKchhcccii+0x2a0>
    2542:	67b5                	lui	a5,0xd
    2544:	9a07a883          	lw	a7,-1632(a5) # c9a0 <_ZL9osdbufpos>
    2548:	0ff00793          	li	a5,255
    254c:	001e8613          	addi	a2,t4,1
    2550:	41d787b3          	sub	a5,a5,t4
    2554:	00138593          	addi	a1,t2,1
    2558:	73040413          	addi	s0,s0,1840
    255c:	01079e93          	slli	t4,a5,0x10
    2560:	0642                	slli	a2,a2,0x10
    2562:	010ede93          	srli	t4,t4,0x10
    2566:	95c6                	add	a1,a1,a7
    2568:	9446                	add	s0,s0,a7
    256a:	8241                	srli	a2,a2,0x10
    256c:	6e35                	lui	t3,0xd
    256e:	93c6                	add	t2,t2,a7
    2570:	95f6                	add	a1,a1,t4
    2572:	830e0e13          	addi	t3,t3,-2000 # c830 <framebuffer>
    2576:	8e01                	sub	a2,a2,s0
    2578:	00de0f33          	add	t5,t3,a3
    257c:	879a                	mv	a5,t1
    257e:	007606b3          	add	a3,a2,t2
    2582:	00080863          	beqz	a6,2592 <_Z14OsdWriteOffsethPKchhcccii+0x28c>
    2586:	feaf4783          	lbu	a5,-22(t5)
    258a:	00f367b3          	or	a5,t1,a5
    258e:	0ff7f793          	zext.b	a5,a5
    2592:	00f38023          	sb	a5,0(t2)
    2596:	0385                	addi	t2,t2,1
    2598:	fe7590e3          	bne	a1,t2,2578 <_Z14OsdWriteOffsethPKchhcccii+0x272>
    259c:	0885                	addi	a7,a7,1
    259e:	98f6                	add	a7,a7,t4
    25a0:	67b5                	lui	a5,0xd
    25a2:	9b17a023          	sw	a7,-1632(a5) # c9a0 <_ZL9osdbufpos>
    25a6:	02950e63          	beq	a0,s1,25e2 <_Z14OsdWriteOffsethPKchhcccii+0x2dc>
    25aa:	4436                	lw	s0,76(sp)
    25ac:	44a6                	lw	s1,72(sp)
    25ae:	4916                	lw	s2,68(sp)
    25b0:	4986                	lw	s3,64(sp)
    25b2:	5a72                	lw	s4,60(sp)
    25b4:	5ae2                	lw	s5,56(sp)
    25b6:	5b52                	lw	s6,52(sp)
    25b8:	5bc2                	lw	s7,48(sp)
    25ba:	5c32                	lw	s8,44(sp)
    25bc:	5ca2                	lw	s9,40(sp)
    25be:	5d12                	lw	s10,36(sp)
    25c0:	5d82                	lw	s11,32(sp)
    25c2:	6161                	addi	sp,sp,80
    25c4:	8082                	ret
    25c6:	47b2                	lw	a5,12(sp)
    25c8:	886a                	mv	a6,s10
    25ca:	c781                	beqz	a5,25d2 <_Z14OsdWriteOffsethPKchhcccii+0x2cc>
    25cc:	67b5                	lui	a5,0xd
    25ce:	9967ae23          	sw	s6,-1636(a5) # c99c <_ZL6osdset>
    25d2:	67b5                	lui	a5,0xd
    25d4:	9be7a023          	sw	t5,-1632(a5) # c9a0 <_ZL9osdbufpos>
    25d8:	0ff00793          	li	a5,255
    25dc:	86f6                	mv	a3,t4
    25de:	f7d7f2e3          	bgeu	a5,t4,2542 <_Z14OsdWriteOffsethPKchhcccii+0x23c>
    25e2:	002cfc93          	andi	s9,s9,2
    25e6:	fc0c82e3          	beqz	s9,25aa <_Z14OsdWriteOffsethPKchhcccii+0x2a4>
    25ea:	67b5                	lui	a5,0xd
    25ec:	9a07a503          	lw	a0,-1632(a5) # c9a0 <_ZL9osdbufpos>
    25f0:	6431                	lui	s0,0xc
    25f2:	73040393          	addi	t2,s0,1840 # c730 <_ZL6osdbuf>
    25f6:	00a387b3          	add	a5,t2,a0
    25fa:	00350613          	addi	a2,a0,3
    25fe:	6695                	lui	a3,0x5
    2600:	6595                	lui	a1,0x5
    2602:	00678023          	sb	t1,0(a5)
    2606:	006780a3          	sb	t1,1(a5)
    260a:	00678123          	sb	t1,2(a5)
    260e:	961e                	add	a2,a2,t2
    2610:	c9068693          	addi	a3,a3,-880 # 4c90 <charfont+0xa8>
    2614:	c9858593          	addi	a1,a1,-872 # 4c98 <charfont+0xb0>
    2618:	0006c783          	lbu	a5,0(a3)
    261c:	0605                	addi	a2,a2,1
    261e:	0685                	addi	a3,a3,1
    2620:	00e797b3          	sll	a5,a5,a4
    2624:	00f347b3          	xor	a5,t1,a5
    2628:	fef60fa3          	sb	a5,-1(a2)
    262c:	feb696e3          	bne	a3,a1,2618 <_Z14OsdWriteOffsethPKchhcccii+0x312>
    2630:	00b50613          	addi	a2,a0,11
    2634:	6695                	lui	a3,0x5
    2636:	6595                	lui	a1,0x5
    2638:	961e                	add	a2,a2,t2
    263a:	c7068693          	addi	a3,a3,-912 # 4c70 <charfont+0x88>
    263e:	c7858593          	addi	a1,a1,-904 # 4c78 <charfont+0x90>
    2642:	0006c783          	lbu	a5,0(a3)
    2646:	0605                	addi	a2,a2,1
    2648:	0685                	addi	a3,a3,1
    264a:	00e797b3          	sll	a5,a5,a4
    264e:	00f347b3          	xor	a5,t1,a5
    2652:	fef60fa3          	sb	a5,-1(a2)
    2656:	feb696e3          	bne	a3,a1,2642 <_Z14OsdWriteOffsethPKchhcccii+0x33c>
    265a:	93aa                	add	t2,t2,a0
    265c:	67b5                	lui	a5,0xd
    265e:	0559                	addi	a0,a0,22
    2660:	006389a3          	sb	t1,19(t2)
    2664:	00638a23          	sb	t1,20(t2)
    2668:	9aa7a023          	sw	a0,-1632(a5) # c9a0 <_ZL9osdbufpos>
    266c:	00638aa3          	sb	t1,21(t2)
    2670:	bf2d                	j	25aa <_Z14OsdWriteOffsethPKchhcccii+0x2a4>

00002672 <_Z8OsdWritePKchhcii>:
    2672:	1101                	addi	sp,sp,-32
    2674:	c03e                	sw	a5,0(sp)
    2676:	88ba                	mv	a7,a4
    2678:	8836                	mv	a6,a3
    267a:	4781                	li	a5,0
    267c:	86b2                	mv	a3,a2
    267e:	4701                	li	a4,0
    2680:	862e                	mv	a2,a1
    2682:	85aa                	mv	a1,a0
    2684:	4501                	li	a0,0
    2686:	ce06                	sw	ra,28(sp)
    2688:	c7fff0ef          	jal	ra,2306 <_Z14OsdWriteOffsethPKchhcccii>
    268c:	40f2                	lw	ra,28(sp)
    268e:	6105                	addi	sp,sp,32
    2690:	8082                	ret

00002692 <_Z8OsdClearv>:
    2692:	67b1                	lui	a5,0xc
    2694:	73078793          	addi	a5,a5,1840 # c730 <_ZL6osdbuf>
    2698:	10078713          	addi	a4,a5,256
    269c:	00078023          	sb	zero,0(a5)
    26a0:	0001                	nop
    26a2:	0785                	addi	a5,a5,1
    26a4:	fee79ce3          	bne	a5,a4,269c <_Z8OsdClearv+0xa>
    26a8:	8082                	ret

000026aa <_Z10InfoEnableiiiiii>:
    26aa:	1101                	addi	sp,sp,-32
    26ac:	c256                	sw	s5,4(sp)
    26ae:	8aaa                	mv	s5,a0
    26b0:	04500513          	li	a0,69
    26b4:	ce06                	sw	ra,28(sp)
    26b6:	cc22                	sw	s0,24(sp)
    26b8:	ca26                	sw	s1,20(sp)
    26ba:	c84a                	sw	s2,16(sp)
    26bc:	c64e                	sw	s3,12(sp)
    26be:	c452                	sw	s4,8(sp)
    26c0:	89b2                	mv	s3,a2
    26c2:	8a2e                	mv	s4,a1
    26c4:	8936                	mv	s2,a3
    26c6:	84ba                	mv	s1,a4
    26c8:	843e                	mv	s0,a5
    26ca:	b81ff0ef          	jal	ra,224a <_Z20HPS_spi_osd_cmd_conth>
    26ce:	010a9513          	slli	a0,s5,0x10
    26d2:	8141                	srli	a0,a0,0x10
    26d4:	993ff0ef          	jal	ra,2066 <_Z12HPS_fpga_spit>
    26d8:	010a1513          	slli	a0,s4,0x10
    26dc:	8141                	srli	a0,a0,0x10
    26de:	989ff0ef          	jal	ra,2066 <_Z12HPS_fpga_spit>
    26e2:	01099513          	slli	a0,s3,0x10
    26e6:	8141                	srli	a0,a0,0x10
    26e8:	97fff0ef          	jal	ra,2066 <_Z12HPS_fpga_spit>
    26ec:	01091513          	slli	a0,s2,0x10
    26f0:	8141                	srli	a0,a0,0x10
    26f2:	975ff0ef          	jal	ra,2066 <_Z12HPS_fpga_spit>
    26f6:	01049513          	slli	a0,s1,0x10
    26fa:	8141                	srli	a0,a0,0x10
    26fc:	96bff0ef          	jal	ra,2066 <_Z12HPS_fpga_spit>
    2700:	01041513          	slli	a0,s0,0x10
    2704:	8141                	srli	a0,a0,0x10
    2706:	961ff0ef          	jal	ra,2066 <_Z12HPS_fpga_spit>
    270a:	4462                	lw	s0,24(sp)
    270c:	40f2                	lw	ra,28(sp)
    270e:	44d2                	lw	s1,20(sp)
    2710:	4942                	lw	s2,16(sp)
    2712:	49b2                	lw	s3,12(sp)
    2714:	4a22                	lw	s4,8(sp)
    2716:	4a92                	lw	s5,4(sp)
    2718:	6105                	addi	sp,sp,32
    271a:	b13ff06f          	j	222c <_Z14HPS_DisableOsdv>

0000271e <_Z10OsdDisablev>:
    271e:	04000513          	li	a0,64
    2722:	b41ff06f          	j	2262 <_Z15HPS_spi_osd_cmdh>

00002726 <_Z9OsdUpdatei>:
    2726:	02056513          	ori	a0,a0,32
    272a:	1141                	addi	sp,sp,-16
    272c:	0ff57513          	zext.b	a0,a0
    2730:	c606                	sw	ra,12(sp)
    2732:	b19ff0ef          	jal	ra,224a <_Z20HPS_spi_osd_cmd_conth>
    2736:	0001                	nop
    2738:	0001                	nop
    273a:	6531                	lui	a0,0xc
    273c:	4601                	li	a2,0
    273e:	10000593          	li	a1,256
    2742:	73050513          	addi	a0,a0,1840 # c730 <_ZL6osdbuf>
    2746:	b61ff0ef          	jal	ra,22a6 <_Z17OSD_HPS_spi_writePKhmi>
    274a:	0001                	nop
    274c:	0001                	nop
    274e:	40b2                	lw	ra,12(sp)
    2750:	0141                	addi	sp,sp,16
    2752:	adbff06f          	j	222c <_Z14HPS_DisableOsdv>

00002756 <_Z16osd_display_infov>:
    2756:	67b5                	lui	a5,0xd
    2758:	9b07a783          	lw	a5,-1616(a5) # c9b0 <_ZL12error_system>
    275c:	e791                	bnez	a5,2768 <_Z16osd_display_infov+0x12>
    275e:	f0802703          	lw	a4,-248(zero) # ffffff08 <_end+0xffff3150>
    2762:	4785                	li	a5,1
    2764:	00f70363          	beq	a4,a5,276a <_Z16osd_display_infov+0x14>
    2768:	bf5d                	j	271e <_Z10OsdDisablev>
    276a:	1141                	addi	sp,sp,-16
    276c:	c226                	sw	s1,4(sp)
    276e:	64b5                	lui	s1,0xd
    2770:	9ac4a603          	lw	a2,-1620(s1) # c9ac <_ZL16timer_wait_value>
    2774:	c422                	sw	s0,8(sp)
    2776:	6591                	lui	a1,0x4
    2778:	6435                	lui	s0,0xd
    277a:	7b458593          	addi	a1,a1,1972 # 47b4 <stream_vscanf+0xbc8>
    277e:	93040513          	addi	a0,s0,-1744 # c930 <s>
    2782:	c606                	sw	ra,12(sp)
    2784:	356010ef          	jal	ra,3ada <sprintf>
    2788:	4781                	li	a5,0
    278a:	02000713          	li	a4,32
    278e:	4681                	li	a3,0
    2790:	4601                	li	a2,0
    2792:	4581                	li	a1,0
    2794:	93040513          	addi	a0,s0,-1744
    2798:	3de9                	jal	2672 <_Z8OsdWritePKchhcii>
    279a:	4505                	li	a0,1
    279c:	3769                	jal	2726 <_Z9OsdUpdatei>
    279e:	3dd5                	jal	2692 <_Z8OsdClearv>
    27a0:	67b5                	lui	a5,0xd
    27a2:	9a97c703          	lbu	a4,-1623(a5) # c9a9 <nstore3>
    27a6:	67b5                	lui	a5,0xd
    27a8:	9aa7c683          	lbu	a3,-1622(a5) # c9aa <nstore2>
    27ac:	67b5                	lui	a5,0xd
    27ae:	9ab7c603          	lbu	a2,-1621(a5) # c9ab <nstore1>
    27b2:	6591                	lui	a1,0x4
    27b4:	7c058593          	addi	a1,a1,1984 # 47c0 <stream_vscanf+0xbd4>
    27b8:	93040513          	addi	a0,s0,-1744
    27bc:	31e010ef          	jal	ra,3ada <sprintf>
    27c0:	4781                	li	a5,0
    27c2:	02000713          	li	a4,32
    27c6:	4681                	li	a3,0
    27c8:	4601                	li	a2,0
    27ca:	4581                	li	a1,0
    27cc:	93040513          	addi	a0,s0,-1744
    27d0:	354d                	jal	2672 <_Z8OsdWritePKchhcii>
    27d2:	4501                	li	a0,0
    27d4:	3f89                	jal	2726 <_Z9OsdUpdatei>
    27d6:	6435                	lui	s0,0xd
    27d8:	3d6d                	jal	2692 <_Z8OsdClearv>
    27da:	9a844783          	lbu	a5,-1624(s0) # c9a8 <frame_counter>
    27de:	cf95                	beqz	a5,281a <_Z16osd_display_infov+0xc4>
    27e0:	67a1                	lui	a5,0x8
    27e2:	c0078793          	addi	a5,a5,-1024 # 7c00 <sector_buffer1+0xbe8>
    27e6:	12300713          	li	a4,291
    27ea:	4689                	li	a3,2
    27ec:	4641                	li	a2,16
    27ee:	45a9                	li	a1,10
    27f0:	4529                	li	a0,10
    27f2:	3d65                	jal	26aa <_Z10InfoEnableiiiiii>
    27f4:	4d3000ef          	jal	ra,34c6 <_Z11ResetTimer2v>
    27f8:	08d9f5b7          	lui	a1,0x8d9f
    27fc:	e2058593          	addi	a1,a1,-480 # 8d9ee20 <_end+0x8d92068>
    2800:	4501                	li	a0,0
    2802:	491000ef          	jal	ra,3492 <_Z13RISCGetTimer2mi>
    2806:	9a844783          	lbu	a5,-1624(s0)
    280a:	17fd                	addi	a5,a5,-1
    280c:	9af40423          	sb	a5,-1624(s0)
    2810:	40b2                	lw	ra,12(sp)
    2812:	4422                	lw	s0,8(sp)
    2814:	4492                	lw	s1,4(sp)
    2816:	0141                	addi	sp,sp,16
    2818:	8082                	ret
    281a:	67c1                	lui	a5,0x10
    281c:	17fd                	addi	a5,a5,-1 # ffff <_end+0x3247>
    281e:	12300713          	li	a4,291
    2822:	4689                	li	a3,2
    2824:	4641                	li	a2,16
    2826:	45a9                	li	a1,10
    2828:	4529                	li	a0,10
    282a:	3541                	jal	26aa <_Z10InfoEnableiiiiii>
    282c:	9a04a623          	sw	zero,-1620(s1)
    2830:	b7c5                	j	2810 <_Z16osd_display_infov+0xba>

00002832 <_Z23osd_display_info_updatei>:
    2832:	67b5                	lui	a5,0xd
    2834:	9b07a783          	lw	a5,-1616(a5) # c9b0 <_ZL12error_system>
    2838:	e791                	bnez	a5,2844 <_Z23osd_display_info_updatei+0x12>
    283a:	f0802703          	lw	a4,-248(zero) # ffffff08 <_end+0xffff3150>
    283e:	4785                	li	a5,1
    2840:	00f70363          	beq	a4,a5,2846 <_Z23osd_display_info_updatei+0x14>
    2844:	8082                	ret
    2846:	6735                	lui	a4,0xd
    2848:	9ac72783          	lw	a5,-1620(a4) # c9ac <_ZL16timer_wait_value>
    284c:	97aa                	add	a5,a5,a0
    284e:	9af72623          	sw	a5,-1620(a4)
    2852:	fea059e3          	blez	a0,2844 <_Z23osd_display_info_updatei+0x12>
    2856:	67b5                	lui	a5,0xd
    2858:	4709                	li	a4,2
    285a:	9ae78423          	sb	a4,-1624(a5) # c9a8 <frame_counter>
    285e:	8082                	ret

00002860 <_Z18osd_display_timinghhh>:
    2860:	67b5                	lui	a5,0xd
    2862:	9b07a783          	lw	a5,-1616(a5) # c9b0 <_ZL12error_system>
    2866:	e791                	bnez	a5,2872 <_Z18osd_display_timinghhh+0x12>
    2868:	f0802703          	lw	a4,-248(zero) # ffffff08 <_end+0xffff3150>
    286c:	4785                	li	a5,1
    286e:	00f70363          	beq	a4,a5,2874 <_Z18osd_display_timinghhh+0x14>
    2872:	8082                	ret
    2874:	67b5                	lui	a5,0xd
    2876:	9aa785a3          	sb	a0,-1621(a5) # c9ab <nstore1>
    287a:	67b5                	lui	a5,0xd
    287c:	9ab78523          	sb	a1,-1622(a5) # c9aa <nstore2>
    2880:	67b5                	lui	a5,0xd
    2882:	9ac784a3          	sb	a2,-1623(a5) # c9a9 <nstore3>
    2886:	8082                	ret

00002888 <_Z26osd_display_error_datasloti>:
    2888:	1141                	addi	sp,sp,-16
    288a:	c422                	sw	s0,8(sp)
    288c:	6591                	lui	a1,0x4
    288e:	6435                	lui	s0,0xd
    2890:	c226                	sw	s1,4(sp)
    2892:	862a                	mv	a2,a0
    2894:	84aa                	mv	s1,a0
    2896:	67b5                	lui	a5,0xd
    2898:	4705                	li	a4,1
    289a:	7d458593          	addi	a1,a1,2004 # 47d4 <stream_vscanf+0xbe8>
    289e:	93040513          	addi	a0,s0,-1744 # c930 <s>
    28a2:	c606                	sw	ra,12(sp)
    28a4:	9ae7a823          	sw	a4,-1616(a5) # c9b0 <_ZL12error_system>
    28a8:	232010ef          	jal	ra,3ada <sprintf>
    28ac:	4781                	li	a5,0
    28ae:	02000713          	li	a4,32
    28b2:	4681                	li	a3,0
    28b4:	4601                	li	a2,0
    28b6:	4581                	li	a1,0
    28b8:	93040513          	addi	a0,s0,-1744
    28bc:	3b5d                	jal	2672 <_Z8OsdWritePKchhcii>
    28be:	4501                	li	a0,0
    28c0:	359d                	jal	2726 <_Z9OsdUpdatei>
    28c2:	3bc1                	jal	2692 <_Z8OsdClearv>
    28c4:	6511                	lui	a0,0x4
    28c6:	4781                	li	a5,0
    28c8:	02000713          	li	a4,32
    28cc:	4681                	li	a3,0
    28ce:	4601                	li	a2,0
    28d0:	4581                	li	a1,0
    28d2:	7f050513          	addi	a0,a0,2032 # 47f0 <stream_vscanf+0xc04>
    28d6:	d9dff0ef          	jal	ra,2672 <_Z8OsdWritePKchhcii>
    28da:	4505                	li	a0,1
    28dc:	35a9                	jal	2726 <_Z9OsdUpdatei>
    28de:	3b55                	jal	2692 <_Z8OsdClearv>
    28e0:	6515                	lui	a0,0x5
    28e2:	4781                	li	a5,0
    28e4:	02000713          	li	a4,32
    28e8:	4681                	li	a3,0
    28ea:	4601                	li	a2,0
    28ec:	4581                	li	a1,0
    28ee:	81050513          	addi	a0,a0,-2032 # 4810 <stream_vscanf+0xc24>
    28f2:	d81ff0ef          	jal	ra,2672 <_Z8OsdWritePKchhcii>
    28f6:	4509                	li	a0,2
    28f8:	353d                	jal	2726 <_Z9OsdUpdatei>
    28fa:	d99ff0ef          	jal	ra,2692 <_Z8OsdClearv>
    28fe:	6511                	lui	a0,0x4
    2900:	4781                	li	a5,0
    2902:	02000713          	li	a4,32
    2906:	4681                	li	a3,0
    2908:	4601                	li	a2,0
    290a:	4581                	li	a1,0
    290c:	6d850513          	addi	a0,a0,1752 # 46d8 <stream_vscanf+0xaec>
    2910:	d63ff0ef          	jal	ra,2672 <_Z8OsdWritePKchhcii>
    2914:	450d                	li	a0,3
    2916:	3d01                	jal	2726 <_Z9OsdUpdatei>
    2918:	d7bff0ef          	jal	ra,2692 <_Z8OsdClearv>
    291c:	6511                	lui	a0,0x4
    291e:	4781                	li	a5,0
    2920:	02000713          	li	a4,32
    2924:	4681                	li	a3,0
    2926:	4601                	li	a2,0
    2928:	4581                	li	a1,0
    292a:	6f850513          	addi	a0,a0,1784 # 46f8 <stream_vscanf+0xb0c>
    292e:	d45ff0ef          	jal	ra,2672 <_Z8OsdWritePKchhcii>
    2932:	4511                	li	a0,4
    2934:	3bcd                	jal	2726 <_Z9OsdUpdatei>
    2936:	d5dff0ef          	jal	ra,2692 <_Z8OsdClearv>
    293a:	6511                	lui	a0,0x4
    293c:	4781                	li	a5,0
    293e:	02000713          	li	a4,32
    2942:	4681                	li	a3,0
    2944:	4601                	li	a2,0
    2946:	4581                	li	a1,0
    2948:	71850513          	addi	a0,a0,1816 # 4718 <stream_vscanf+0xb2c>
    294c:	d27ff0ef          	jal	ra,2672 <_Z8OsdWritePKchhcii>
    2950:	4515                	li	a0,5
    2952:	3bd1                	jal	2726 <_Z9OsdUpdatei>
    2954:	d3fff0ef          	jal	ra,2692 <_Z8OsdClearv>
    2958:	6511                	lui	a0,0x4
    295a:	4781                	li	a5,0
    295c:	02000713          	li	a4,32
    2960:	4681                	li	a3,0
    2962:	4601                	li	a2,0
    2964:	4581                	li	a1,0
    2966:	73450513          	addi	a0,a0,1844 # 4734 <stream_vscanf+0xb48>
    296a:	d09ff0ef          	jal	ra,2672 <_Z8OsdWritePKchhcii>
    296e:	4519                	li	a0,6
    2970:	3b5d                	jal	2726 <_Z9OsdUpdatei>
    2972:	d21ff0ef          	jal	ra,2692 <_Z8OsdClearv>
    2976:	6511                	lui	a0,0x4
    2978:	4781                	li	a5,0
    297a:	02000713          	li	a4,32
    297e:	4681                	li	a3,0
    2980:	4581                	li	a1,0
    2982:	4601                	li	a2,0
    2984:	75450513          	addi	a0,a0,1876 # 4754 <stream_vscanf+0xb68>
    2988:	cebff0ef          	jal	ra,2672 <_Z8OsdWritePKchhcii>
    298c:	451d                	li	a0,7
    298e:	d99ff0ef          	jal	ra,2726 <_Z9OsdUpdatei>
    2992:	d01ff0ef          	jal	ra,2692 <_Z8OsdClearv>
    2996:	6591                	lui	a1,0x4
    2998:	8626                	mv	a2,s1
    299a:	77458593          	addi	a1,a1,1908 # 4774 <stream_vscanf+0xb88>
    299e:	93040513          	addi	a0,s0,-1744
    29a2:	138010ef          	jal	ra,3ada <sprintf>
    29a6:	4781                	li	a5,0
    29a8:	02000713          	li	a4,32
    29ac:	4681                	li	a3,0
    29ae:	4601                	li	a2,0
    29b0:	4581                	li	a1,0
    29b2:	93040513          	addi	a0,s0,-1744
    29b6:	cbdff0ef          	jal	ra,2672 <_Z8OsdWritePKchhcii>
    29ba:	4521                	li	a0,8
    29bc:	d6bff0ef          	jal	ra,2726 <_Z9OsdUpdatei>
    29c0:	cd3ff0ef          	jal	ra,2692 <_Z8OsdClearv>
    29c4:	6511                	lui	a0,0x4
    29c6:	4781                	li	a5,0
    29c8:	02000713          	li	a4,32
    29cc:	4681                	li	a3,0
    29ce:	4601                	li	a2,0
    29d0:	4581                	li	a1,0
    29d2:	79450513          	addi	a0,a0,1940 # 4794 <stream_vscanf+0xba8>
    29d6:	c9dff0ef          	jal	ra,2672 <_Z8OsdWritePKchhcii>
    29da:	4525                	li	a0,9
    29dc:	d4bff0ef          	jal	ra,2726 <_Z9OsdUpdatei>
    29e0:	cb3ff0ef          	jal	ra,2692 <_Z8OsdClearv>
    29e4:	4422                	lw	s0,8(sp)
    29e6:	40b2                	lw	ra,12(sp)
    29e8:	4492                	lw	s1,4(sp)
    29ea:	67c1                	lui	a5,0x10
    29ec:	17fd                	addi	a5,a5,-1 # ffff <_end+0x3247>
    29ee:	0c000713          	li	a4,192
    29f2:	46a9                	li	a3,10
    29f4:	4679                	li	a2,30
    29f6:	05000593          	li	a1,80
    29fa:	4515                	li	a0,5
    29fc:	0141                	addi	sp,sp,16
    29fe:	cadff06f          	j	26aa <_Z10InfoEnableiiiiii>

00002a02 <riscputchar>:
    2a02:	fc002783          	lw	a5,-64(zero) # ffffffc0 <_end+0xffff3208>
    2a06:	1007f793          	andi	a5,a5,256
    2a0a:	ffe5                	bnez	a5,2a02 <riscputchar>
    2a0c:	fca02023          	sw	a0,-64(zero) # ffffffc0 <_end+0xffff3208>
    2a10:	8082                	ret

00002a12 <SetUART>:
    2a12:	0a100793          	li	a5,161
    2a16:	f8f02a23          	sw	a5,-108(zero) # ffffff94 <_end+0xffff31dc>
    2a1a:	8082                	ret

00002a1c <_handle_trap>:
    2a1c:	6515                	lui	a0,0x5
    2a1e:	83050513          	addi	a0,a0,-2000 # 4830 <stream_vscanf+0xc44>
    2a22:	a1a9                	j	2e6c <riscprintf_>

00002a24 <_Z17DisableInterruptsv>:
    2a24:	fe002a23          	sw	zero,-12(zero) # fffffff4 <_end+0xffff323c>
    2a28:	8082                	ret

00002a2a <_ZL9_out_charcPvjj>:
    2a2a:	e111                	bnez	a0,2a2e <_ZL9_out_charcPvjj+0x4>
    2a2c:	8082                	ret
    2a2e:	bfd1                	j	2a02 <riscputchar>

00002a30 <_ZL10_ntoa_longPFvcPvjjEPcjjmbmjjj.constprop.0>:
    2a30:	715d                	addi	sp,sp,-80
    2a32:	4346                	lw	t1,80(sp)
    2a34:	c0ca                	sw	s2,64(sp)
    2a36:	de4e                	sw	s3,60(sp)
    2a38:	dc52                	sw	s4,56(sp)
    2a3a:	da56                	sw	s5,52(sp)
    2a3c:	c686                	sw	ra,76(sp)
    2a3e:	c4a2                	sw	s0,72(sp)
    2a40:	c2a6                	sw	s1,68(sp)
    2a42:	d85a                	sw	s6,48(sp)
    2a44:	d65e                	sw	s7,44(sp)
    2a46:	d462                	sw	s8,40(sp)
    2a48:	892a                	mv	s2,a0
    2a4a:	89ae                	mv	s3,a1
    2a4c:	8a32                	mv	s4,a2
    2a4e:	8ac6                	mv	s5,a7
    2a50:	40037f13          	andi	t5,t1,1024
    2a54:	cac5                	beqz	a3,2b04 <_ZL10_ntoa_longPFvcPvjjEPcjjmbmjjj.constprop.0+0xd4>
    2a56:	01037f93          	andi	t6,t1,16
    2a5a:	8e9a                	mv	t4,t1
    2a5c:	020ef613          	andi	a2,t4,32
    2a60:	06100513          	li	a0,97
    2a64:	12061263          	bnez	a2,2b88 <_ZL10_ntoa_longPFvcPvjjEPcjjmbmjjj.constprop.0+0x158>
    2a68:	4401                	li	s0,0
    2a6a:	848a                	mv	s1,sp
    2a6c:	48a5                	li	a7,9
    2a6e:	1559                	addi	a0,a0,-10
    2a70:	02000e13          	li	t3,32
    2a74:	a021                	j	2a7c <_ZL10_ntoa_longPFvcPvjjEPcjjmbmjjj.constprop.0+0x4c>
    2a76:	03c40963          	beq	s0,t3,2aa8 <_ZL10_ntoa_longPFvcPvjjEPcjjmbmjjj.constprop.0+0x78>
    2a7a:	86b2                	mv	a3,a2
    2a7c:	02f6f633          	remu	a2,a3,a5
    2a80:	0ff67313          	zext.b	t1,a2
    2a84:	03030593          	addi	a1,t1,48
    2a88:	932a                	add	t1,t1,a0
    2a8a:	0ff37313          	zext.b	t1,t1
    2a8e:	00c8e463          	bltu	a7,a2,2a96 <_ZL10_ntoa_longPFvcPvjjEPcjjmbmjjj.constprop.0+0x66>
    2a92:	0ff5f313          	zext.b	t1,a1
    2a96:	0405                	addi	s0,s0,1
    2a98:	00848633          	add	a2,s1,s0
    2a9c:	fe660fa3          	sb	t1,-1(a2)
    2aa0:	02f6d633          	divu	a2,a3,a5
    2aa4:	fcf6f9e3          	bgeu	a3,a5,2a76 <_ZL10_ntoa_longPFvcPvjjEPcjjmbmjjj.constprop.0+0x46>
    2aa8:	002efb93          	andi	s7,t4,2
    2aac:	060b8863          	beqz	s7,2b1c <_ZL10_ntoa_longPFvcPvjjEPcjjmbmjjj.constprop.0+0xec>
    2ab0:	003ef313          	andi	t1,t4,3
    2ab4:	100f8d63          	beqz	t6,2bce <_ZL10_ntoa_longPFvcPvjjEPcjjmbmjjj.constprop.0+0x19e>
    2ab8:	1e0f1163          	bnez	t5,2c9a <_ZL10_ntoa_longPFvcPvjjEPcjjmbmjjj.constprop.0+0x26a>
    2abc:	22041563          	bnez	s0,2ce6 <_ZL10_ntoa_longPFvcPvjjEPcjjmbmjjj.constprop.0+0x2b6>
    2ac0:	46c1                	li	a3,16
    2ac2:	30d78963          	beq	a5,a3,2dd4 <_ZL10_ntoa_longPFvcPvjjEPcjjmbmjjj.constprop.0+0x3a4>
    2ac6:	4689                	li	a3,2
    2ac8:	32d78763          	beq	a5,a3,2df6 <_ZL10_ntoa_longPFvcPvjjEPcjjmbmjjj.constprop.0+0x3c6>
    2acc:	03000793          	li	a5,48
    2ad0:	00f10023          	sb	a5,0(sp)
    2ad4:	4685                	li	a3,1
    2ad6:	003ef313          	andi	t1,t4,3
    2ada:	1e071163          	bnez	a4,2cbc <_ZL10_ntoa_longPFvcPvjjEPcjjmbmjjj.constprop.0+0x28c>
    2ade:	004ef793          	andi	a5,t4,4
    2ae2:	28078b63          	beqz	a5,2d78 <_ZL10_ntoa_longPFvcPvjjEPcjjmbmjjj.constprop.0+0x348>
    2ae6:	02068793          	addi	a5,a3,32
    2aea:	978a                	add	a5,a5,sp
    2aec:	02b00713          	li	a4,43
    2af0:	00168413          	addi	s0,a3,1
    2af4:	fee78023          	sb	a4,-32(a5)
    2af8:	8b52                	mv	s6,s4
    2afa:	10031d63          	bnez	t1,2c14 <_ZL10_ntoa_longPFvcPvjjEPcjjmbmjjj.constprop.0+0x1e4>
    2afe:	0f546063          	bltu	s0,s5,2bde <_ZL10_ntoa_longPFvcPvjjEPcjjmbmjjj.constprop.0+0x1ae>
    2b02:	aa09                	j	2c14 <_ZL10_ntoa_longPFvcPvjjEPcjjmbmjjj.constprop.0+0x1e4>
    2b04:	fef37e93          	andi	t4,t1,-17
    2b08:	160f0263          	beqz	t5,2c6c <_ZL10_ntoa_longPFvcPvjjEPcjjmbmjjj.constprop.0+0x23c>
    2b0c:	00237b93          	andi	s7,t1,2
    2b10:	00337313          	andi	t1,t1,3
    2b14:	fc0b93e3          	bnez	s7,2ada <_ZL10_ntoa_longPFvcPvjjEPcjjmbmjjj.constprop.0+0xaa>
    2b18:	4f81                	li	t6,0
    2b1a:	4401                	li	s0,0
    2b1c:	140a9a63          	bnez	s5,2c70 <_ZL10_ntoa_longPFvcPvjjEPcjjmbmjjj.constprop.0+0x240>
    2b20:	05047e63          	bgeu	s0,a6,2b7c <_ZL10_ntoa_longPFvcPvjjEPcjjmbmjjj.constprop.0+0x14c>
    2b24:	02000693          	li	a3,32
    2b28:	001efb93          	andi	s7,t4,1
    2b2c:	2cd40f63          	beq	s0,a3,2e0a <_ZL10_ntoa_longPFvcPvjjEPcjjmbmjjj.constprop.0+0x3da>
    2b30:	848a                	mv	s1,sp
    2b32:	03000613          	li	a2,48
    2b36:	02000593          	li	a1,32
    2b3a:	a019                	j	2b40 <_ZL10_ntoa_longPFvcPvjjEPcjjmbmjjj.constprop.0+0x110>
    2b3c:	04b40963          	beq	s0,a1,2b8e <_ZL10_ntoa_longPFvcPvjjEPcjjmbmjjj.constprop.0+0x15e>
    2b40:	0405                	addi	s0,s0,1
    2b42:	008486b3          	add	a3,s1,s0
    2b46:	fec68fa3          	sb	a2,-1(a3)
    2b4a:	ff0469e3          	bltu	s0,a6,2b3c <_ZL10_ntoa_longPFvcPvjjEPcjjmbmjjj.constprop.0+0x10c>
    2b4e:	f60b81e3          	beqz	s7,2ab0 <_ZL10_ntoa_longPFvcPvjjEPcjjmbmjjj.constprop.0+0x80>
    2b52:	03547563          	bgeu	s0,s5,2b7c <_ZL10_ntoa_longPFvcPvjjEPcjjmbmjjj.constprop.0+0x14c>
    2b56:	02000693          	li	a3,32
    2b5a:	848a                	mv	s1,sp
    2b5c:	03000613          	li	a2,48
    2b60:	02000593          	li	a1,32
    2b64:	00d41563          	bne	s0,a3,2b6e <_ZL10_ntoa_longPFvcPvjjEPcjjmbmjjj.constprop.0+0x13e>
    2b68:	a03d                	j	2b96 <_ZL10_ntoa_longPFvcPvjjEPcjjmbmjjj.constprop.0+0x166>
    2b6a:	1cb40f63          	beq	s0,a1,2d48 <_ZL10_ntoa_longPFvcPvjjEPcjjmbmjjj.constprop.0+0x318>
    2b6e:	0405                	addi	s0,s0,1
    2b70:	008486b3          	add	a3,s1,s0
    2b74:	fec68fa3          	sb	a2,-1(a3)
    2b78:	ff5419e3          	bne	s0,s5,2b6a <_ZL10_ntoa_longPFvcPvjjEPcjjmbmjjj.constprop.0+0x13a>
    2b7c:	4b81                	li	s7,0
    2b7e:	003ef313          	andi	t1,t4,3
    2b82:	f20f9be3          	bnez	t6,2ab8 <_ZL10_ntoa_longPFvcPvjjEPcjjmbmjjj.constprop.0+0x88>
    2b86:	a0a1                	j	2bce <_ZL10_ntoa_longPFvcPvjjEPcjjmbmjjj.constprop.0+0x19e>
    2b88:	04100513          	li	a0,65
    2b8c:	bdf1                	j	2a68 <_ZL10_ntoa_longPFvcPvjjEPcjjmbmjjj.constprop.0+0x38>
    2b8e:	2c0b8463          	beqz	s7,2e56 <_ZL10_ntoa_longPFvcPvjjEPcjjmbmjjj.constprop.0+0x426>
    2b92:	1b547b63          	bgeu	s0,s5,2d48 <_ZL10_ntoa_longPFvcPvjjEPcjjmbmjjj.constprop.0+0x318>
    2b96:	1e0f8c63          	beqz	t6,2d8e <_ZL10_ntoa_longPFvcPvjjEPcjjmbmjjj.constprop.0+0x35e>
    2b9a:	1a0f1b63          	bnez	t5,2d50 <_ZL10_ntoa_longPFvcPvjjEPcjjmbmjjj.constprop.0+0x320>
    2b9e:	02000693          	li	a3,32
    2ba2:	4b81                	li	s7,0
    2ba4:	02000413          	li	s0,32
    2ba8:	14d81163          	bne	a6,a3,2cea <_ZL10_ntoa_longPFvcPvjjEPcjjmbmjjj.constprop.0+0x2ba>
    2bac:	46fd                	li	a3,31
    2bae:	4641                	li	a2,16
    2bb0:	26c78763          	beq	a5,a2,2e1e <_ZL10_ntoa_longPFvcPvjjEPcjjmbmjjj.constprop.0+0x3ee>
    2bb4:	4609                	li	a2,2
    2bb6:	003ef313          	andi	t1,t4,3
    2bba:	16c78863          	beq	a5,a2,2d2a <_ZL10_ntoa_longPFvcPvjjEPcjjmbmjjj.constprop.0+0x2fa>
    2bbe:	02068793          	addi	a5,a3,32
    2bc2:	002786b3          	add	a3,a5,sp
    2bc6:	03000793          	li	a5,48
    2bca:	fef68023          	sb	a5,-32(a3)
    2bce:	02000793          	li	a5,32
    2bd2:	16f41563          	bne	s0,a5,2d3c <_ZL10_ntoa_longPFvcPvjjEPcjjmbmjjj.constprop.0+0x30c>
    2bd6:	0e031163          	bnez	t1,2cb8 <_ZL10_ntoa_longPFvcPvjjEPcjjmbmjjj.constprop.0+0x288>
    2bda:	0d547f63          	bgeu	s0,s5,2cb8 <_ZL10_ntoa_longPFvcPvjjEPcjjmbmjjj.constprop.0+0x288>
    2bde:	84d2                	mv	s1,s4
    2be0:	41440b33          	sub	s6,s0,s4
    2be4:	8626                	mv	a2,s1
    2be6:	56fd                	li	a3,-1
    2be8:	85ce                	mv	a1,s3
    2bea:	02000513          	li	a0,32
    2bee:	0485                	addi	s1,s1,1
    2bf0:	9902                	jalr	s2
    2bf2:	009b07b3          	add	a5,s6,s1
    2bf6:	ff57e7e3          	bltu	a5,s5,2be4 <_ZL10_ntoa_longPFvcPvjjEPcjjmbmjjj.constprop.0+0x1b4>
    2bfa:	00140793          	addi	a5,s0,1
    2bfe:	4b01                	li	s6,0
    2c00:	00fae663          	bltu	s5,a5,2c0c <_ZL10_ntoa_longPFvcPvjjEPcjjmbmjjj.constprop.0+0x1dc>
    2c04:	fffa8b13          	addi	s6,s5,-1
    2c08:	408b0b33          	sub	s6,s6,s0
    2c0c:	001a0793          	addi	a5,s4,1
    2c10:	9b3e                	add	s6,s6,a5
    2c12:	c005                	beqz	s0,2c32 <_ZL10_ntoa_longPFvcPvjjEPcjjmbmjjj.constprop.0+0x202>
    2c14:	848a                	mv	s1,sp
    2c16:	008b0c33          	add	s8,s6,s0
    2c1a:	008487b3          	add	a5,s1,s0
    2c1e:	fff7c503          	lbu	a0,-1(a5)
    2c22:	408c0633          	sub	a2,s8,s0
    2c26:	56fd                	li	a3,-1
    2c28:	147d                	addi	s0,s0,-1
    2c2a:	85ce                	mv	a1,s3
    2c2c:	8b62                	mv	s6,s8
    2c2e:	9902                	jalr	s2
    2c30:	f46d                	bnez	s0,2c1a <_ZL10_ntoa_longPFvcPvjjEPcjjmbmjjj.constprop.0+0x1ea>
    2c32:	020b8063          	beqz	s7,2c52 <_ZL10_ntoa_longPFvcPvjjEPcjjmbmjjj.constprop.0+0x222>
    2c36:	414b0a33          	sub	s4,s6,s4
    2c3a:	015a7c63          	bgeu	s4,s5,2c52 <_ZL10_ntoa_longPFvcPvjjEPcjjmbmjjj.constprop.0+0x222>
    2c3e:	865a                	mv	a2,s6
    2c40:	0a05                	addi	s4,s4,1
    2c42:	56fd                	li	a3,-1
    2c44:	85ce                	mv	a1,s3
    2c46:	02000513          	li	a0,32
    2c4a:	0b05                	addi	s6,s6,1
    2c4c:	9902                	jalr	s2
    2c4e:	ff5a68e3          	bltu	s4,s5,2c3e <_ZL10_ntoa_longPFvcPvjjEPcjjmbmjjj.constprop.0+0x20e>
    2c52:	40b6                	lw	ra,76(sp)
    2c54:	4426                	lw	s0,72(sp)
    2c56:	4496                	lw	s1,68(sp)
    2c58:	4906                	lw	s2,64(sp)
    2c5a:	59f2                	lw	s3,60(sp)
    2c5c:	5a62                	lw	s4,56(sp)
    2c5e:	5ad2                	lw	s5,52(sp)
    2c60:	5bb2                	lw	s7,44(sp)
    2c62:	5c22                	lw	s8,40(sp)
    2c64:	855a                	mv	a0,s6
    2c66:	5b42                	lw	s6,48(sp)
    2c68:	6161                	addi	sp,sp,80
    2c6a:	8082                	ret
    2c6c:	4f81                	li	t6,0
    2c6e:	b3fd                	j	2a5c <_ZL10_ntoa_longPFvcPvjjEPcjjmbmjjj.constprop.0+0x2c>
    2c70:	001efb93          	andi	s7,t4,1
    2c74:	040b8e63          	beqz	s7,2cd0 <_ZL10_ntoa_longPFvcPvjjEPcjjmbmjjj.constprop.0+0x2a0>
    2c78:	e771                	bnez	a4,2d44 <_ZL10_ntoa_longPFvcPvjjEPcjjmbmjjj.constprop.0+0x314>
    2c7a:	00cef693          	andi	a3,t4,12
    2c7e:	e2f9                	bnez	a3,2d44 <_ZL10_ntoa_longPFvcPvjjEPcjjmbmjjj.constprop.0+0x314>
    2c80:	ed0479e3          	bgeu	s0,a6,2b52 <_ZL10_ntoa_longPFvcPvjjEPcjjmbmjjj.constprop.0+0x122>
    2c84:	02000693          	li	a3,32
    2c88:	ead414e3          	bne	s0,a3,2b30 <_ZL10_ntoa_longPFvcPvjjEPcjjmbmjjj.constprop.0+0x100>
    2c8c:	f15465e3          	bltu	s0,s5,2b96 <_ZL10_ntoa_longPFvcPvjjEPcjjmbmjjj.constprop.0+0x166>
    2c90:	1c0f8a63          	beqz	t6,2e64 <_ZL10_ntoa_longPFvcPvjjEPcjjmbmjjj.constprop.0+0x434>
    2c94:	4b81                	li	s7,0
    2c96:	e20f03e3          	beqz	t5,2abc <_ZL10_ntoa_longPFvcPvjjEPcjjmbmjjj.constprop.0+0x8c>
    2c9a:	46c1                	li	a3,16
    2c9c:	003ef313          	andi	t1,t4,3
    2ca0:	0ad78c63          	beq	a5,a3,2d58 <_ZL10_ntoa_longPFvcPvjjEPcjjmbmjjj.constprop.0+0x328>
    2ca4:	4689                	li	a3,2
    2ca6:	06d78c63          	beq	a5,a3,2d1e <_ZL10_ntoa_longPFvcPvjjEPcjjmbmjjj.constprop.0+0x2ee>
    2caa:	02000793          	li	a5,32
    2cae:	f2f404e3          	beq	s0,a5,2bd6 <_ZL10_ntoa_longPFvcPvjjEPcjjmbmjjj.constprop.0+0x1a6>
    2cb2:	86a2                	mv	a3,s0
    2cb4:	0405                	addi	s0,s0,1
    2cb6:	b721                	j	2bbe <_ZL10_ntoa_longPFvcPvjjEPcjjmbmjjj.constprop.0+0x18e>
    2cb8:	8b52                	mv	s6,s4
    2cba:	bfa9                	j	2c14 <_ZL10_ntoa_longPFvcPvjjEPcjjmbmjjj.constprop.0+0x1e4>
    2cbc:	02068793          	addi	a5,a3,32
    2cc0:	978a                	add	a5,a5,sp
    2cc2:	02d00713          	li	a4,45
    2cc6:	00168413          	addi	s0,a3,1
    2cca:	fee78023          	sb	a4,-32(a5)
    2cce:	b52d                	j	2af8 <_ZL10_ntoa_longPFvcPvjjEPcjjmbmjjj.constprop.0+0xc8>
    2cd0:	df0470e3          	bgeu	s0,a6,2ab0 <_ZL10_ntoa_longPFvcPvjjEPcjjmbmjjj.constprop.0+0x80>
    2cd4:	02000693          	li	a3,32
    2cd8:	e4d41ce3          	bne	s0,a3,2b30 <_ZL10_ntoa_longPFvcPvjjEPcjjmbmjjj.constprop.0+0x100>
    2cdc:	180f8463          	beqz	t6,2e64 <_ZL10_ntoa_longPFvcPvjjEPcjjmbmjjj.constprop.0+0x434>
    2ce0:	4b81                	li	s7,0
    2ce2:	fa0f1ce3          	bnez	t5,2c9a <_ZL10_ntoa_longPFvcPvjjEPcjjmbmjjj.constprop.0+0x26a>
    2ce6:	00880463          	beq	a6,s0,2cee <_ZL10_ntoa_longPFvcPvjjEPcjjmbmjjj.constprop.0+0x2be>
    2cea:	fa8a98e3          	bne	s5,s0,2c9a <_ZL10_ntoa_longPFvcPvjjEPcjjmbmjjj.constprop.0+0x26a>
    2cee:	fff40693          	addi	a3,s0,-1
    2cf2:	ea069ee3          	bnez	a3,2bae <_ZL10_ntoa_longPFvcPvjjEPcjjmbmjjj.constprop.0+0x17e>
    2cf6:	46c1                	li	a3,16
    2cf8:	10d78c63          	beq	a5,a3,2e10 <_ZL10_ntoa_longPFvcPvjjEPcjjmbmjjj.constprop.0+0x3e0>
    2cfc:	4689                	li	a3,2
    2cfe:	dcd797e3          	bne	a5,a3,2acc <_ZL10_ntoa_longPFvcPvjjEPcjjmbmjjj.constprop.0+0x9c>
    2d02:	06200793          	li	a5,98
    2d06:	00f10023          	sb	a5,0(sp)
    2d0a:	03000793          	li	a5,48
    2d0e:	00f100a3          	sb	a5,1(sp)
    2d12:	4689                	li	a3,2
    2d14:	003ef313          	andi	t1,t4,3
    2d18:	dc0703e3          	beqz	a4,2ade <_ZL10_ntoa_longPFvcPvjjEPcjjmbmjjj.constprop.0+0xae>
    2d1c:	b745                	j	2cbc <_ZL10_ntoa_longPFvcPvjjEPcjjmbmjjj.constprop.0+0x28c>
    2d1e:	02000793          	li	a5,32
    2d22:	eaf40ae3          	beq	s0,a5,2bd6 <_ZL10_ntoa_longPFvcPvjjEPcjjmbmjjj.constprop.0+0x1a6>
    2d26:	86a2                	mv	a3,s0
    2d28:	0405                	addi	s0,s0,1
    2d2a:	02068793          	addi	a5,a3,32
    2d2e:	002786b3          	add	a3,a5,sp
    2d32:	06200793          	li	a5,98
    2d36:	fef68023          	sb	a5,-32(a3)
    2d3a:	bf85                	j	2caa <_ZL10_ntoa_longPFvcPvjjEPcjjmbmjjj.constprop.0+0x27a>
    2d3c:	86a2                	mv	a3,s0
    2d3e:	da0700e3          	beqz	a4,2ade <_ZL10_ntoa_longPFvcPvjjEPcjjmbmjjj.constprop.0+0xae>
    2d42:	bfad                	j	2cbc <_ZL10_ntoa_longPFvcPvjjEPcjjmbmjjj.constprop.0+0x28c>
    2d44:	1afd                	addi	s5,s5,-1
    2d46:	bf2d                	j	2c80 <_ZL10_ntoa_longPFvcPvjjEPcjjmbmjjj.constprop.0+0x250>
    2d48:	040f8363          	beqz	t6,2d8e <_ZL10_ntoa_longPFvcPvjjEPcjjmbmjjj.constprop.0+0x35e>
    2d4c:	060f0e63          	beqz	t5,2dc8 <_ZL10_ntoa_longPFvcPvjjEPcjjmbmjjj.constprop.0+0x398>
    2d50:	4b81                	li	s7,0
    2d52:	02000413          	li	s0,32
    2d56:	b791                	j	2c9a <_ZL10_ntoa_longPFvcPvjjEPcjjmbmjjj.constprop.0+0x26a>
    2d58:	020ef793          	andi	a5,t4,32
    2d5c:	cf9d                	beqz	a5,2d9a <_ZL10_ntoa_longPFvcPvjjEPcjjmbmjjj.constprop.0+0x36a>
    2d5e:	02000793          	li	a5,32
    2d62:	e6f40ae3          	beq	s0,a5,2bd6 <_ZL10_ntoa_longPFvcPvjjEPcjjmbmjjj.constprop.0+0x1a6>
    2d66:	02040793          	addi	a5,s0,32
    2d6a:	978a                	add	a5,a5,sp
    2d6c:	05800693          	li	a3,88
    2d70:	fed78023          	sb	a3,-32(a5)
    2d74:	0405                	addi	s0,s0,1
    2d76:	bf15                	j	2caa <_ZL10_ntoa_longPFvcPvjjEPcjjmbmjjj.constprop.0+0x27a>
    2d78:	008efe93          	andi	t4,t4,8
    2d7c:	020e9c63          	bnez	t4,2db4 <_ZL10_ntoa_longPFvcPvjjEPcjjmbmjjj.constprop.0+0x384>
    2d80:	8436                	mv	s0,a3
    2d82:	00031463          	bnez	t1,2d8a <_ZL10_ntoa_longPFvcPvjjEPcjjmbmjjj.constprop.0+0x35a>
    2d86:	e556ece3          	bltu	a3,s5,2bde <_ZL10_ntoa_longPFvcPvjjEPcjjmbmjjj.constprop.0+0x1ae>
    2d8a:	8b52                	mv	s6,s4
    2d8c:	b559                	j	2c12 <_ZL10_ntoa_longPFvcPvjjEPcjjmbmjjj.constprop.0+0x1e2>
    2d8e:	4b81                	li	s7,0
    2d90:	02000413          	li	s0,32
    2d94:	003ef313          	andi	t1,t4,3
    2d98:	bd3d                	j	2bd6 <_ZL10_ntoa_longPFvcPvjjEPcjjmbmjjj.constprop.0+0x1a6>
    2d9a:	02000793          	li	a5,32
    2d9e:	e2f40ce3          	beq	s0,a5,2bd6 <_ZL10_ntoa_longPFvcPvjjEPcjjmbmjjj.constprop.0+0x1a6>
    2da2:	02040793          	addi	a5,s0,32
    2da6:	978a                	add	a5,a5,sp
    2da8:	07800693          	li	a3,120
    2dac:	fed78023          	sb	a3,-32(a5)
    2db0:	0405                	addi	s0,s0,1
    2db2:	bde5                	j	2caa <_ZL10_ntoa_longPFvcPvjjEPcjjmbmjjj.constprop.0+0x27a>
    2db4:	02068793          	addi	a5,a3,32
    2db8:	978a                	add	a5,a5,sp
    2dba:	02000713          	li	a4,32
    2dbe:	00168413          	addi	s0,a3,1
    2dc2:	fee78023          	sb	a4,-32(a5)
    2dc6:	bb0d                	j	2af8 <_ZL10_ntoa_longPFvcPvjjEPcjjmbmjjj.constprop.0+0xc8>
    2dc8:	02000413          	li	s0,32
    2dcc:	4b81                	li	s7,0
    2dce:	f0881ee3          	bne	a6,s0,2cea <_ZL10_ntoa_longPFvcPvjjEPcjjmbmjjj.constprop.0+0x2ba>
    2dd2:	bf31                	j	2cee <_ZL10_ntoa_longPFvcPvjjEPcjjmbmjjj.constprop.0+0x2be>
    2dd4:	020ef793          	andi	a5,t4,32
    2dd8:	c785                	beqz	a5,2e00 <_ZL10_ntoa_longPFvcPvjjEPcjjmbmjjj.constprop.0+0x3d0>
    2dda:	05800793          	li	a5,88
    2dde:	00f10023          	sb	a5,0(sp)
    2de2:	03000793          	li	a5,48
    2de6:	00f100a3          	sb	a5,1(sp)
    2dea:	4689                	li	a3,2
    2dec:	003ef313          	andi	t1,t4,3
    2df0:	ce0707e3          	beqz	a4,2ade <_ZL10_ntoa_longPFvcPvjjEPcjjmbmjjj.constprop.0+0xae>
    2df4:	b5e1                	j	2cbc <_ZL10_ntoa_longPFvcPvjjEPcjjmbmjjj.constprop.0+0x28c>
    2df6:	06200793          	li	a5,98
    2dfa:	00f10023          	sb	a5,0(sp)
    2dfe:	b7d5                	j	2de2 <_ZL10_ntoa_longPFvcPvjjEPcjjmbmjjj.constprop.0+0x3b2>
    2e00:	07800793          	li	a5,120
    2e04:	00f10023          	sb	a5,0(sp)
    2e08:	bfe9                	j	2de2 <_ZL10_ntoa_longPFvcPvjjEPcjjmbmjjj.constprop.0+0x3b2>
    2e0a:	e80b93e3          	bnez	s7,2c90 <_ZL10_ntoa_longPFvcPvjjEPcjjmbmjjj.constprop.0+0x260>
    2e0e:	b5f9                	j	2cdc <_ZL10_ntoa_longPFvcPvjjEPcjjmbmjjj.constprop.0+0x2ac>
    2e10:	fffec793          	not	a5,t4
    2e14:	0207f793          	andi	a5,a5,32
    2e18:	05878793          	addi	a5,a5,88
    2e1c:	b5ed                	j	2d06 <_ZL10_ntoa_longPFvcPvjjEPcjjmbmjjj.constprop.0+0x2d6>
    2e1e:	020ef793          	andi	a5,t4,32
    2e22:	1479                	addi	s0,s0,-2
    2e24:	ef89                	bnez	a5,2e3e <_ZL10_ntoa_longPFvcPvjjEPcjjmbmjjj.constprop.0+0x40e>
    2e26:	02040793          	addi	a5,s0,32
    2e2a:	00278433          	add	s0,a5,sp
    2e2e:	07800793          	li	a5,120
    2e32:	fef40023          	sb	a5,-32(s0)
    2e36:	003ef313          	andi	t1,t4,3
    2e3a:	8436                	mv	s0,a3
    2e3c:	bd9d                	j	2cb2 <_ZL10_ntoa_longPFvcPvjjEPcjjmbmjjj.constprop.0+0x282>
    2e3e:	02040793          	addi	a5,s0,32
    2e42:	00278433          	add	s0,a5,sp
    2e46:	05800793          	li	a5,88
    2e4a:	fef40023          	sb	a5,-32(s0)
    2e4e:	003ef313          	andi	t1,t4,3
    2e52:	8436                	mv	s0,a3
    2e54:	bdb9                	j	2cb2 <_ZL10_ntoa_longPFvcPvjjEPcjjmbmjjj.constprop.0+0x282>
    2e56:	f20f8fe3          	beqz	t6,2d94 <_ZL10_ntoa_longPFvcPvjjEPcjjmbmjjj.constprop.0+0x364>
    2e5a:	e40f10e3          	bnez	t5,2c9a <_ZL10_ntoa_longPFvcPvjjEPcjjmbmjjj.constprop.0+0x26a>
    2e5e:	e28a9ee3          	bne	s5,s0,2c9a <_ZL10_ntoa_longPFvcPvjjEPcjjmbmjjj.constprop.0+0x26a>
    2e62:	b571                	j	2cee <_ZL10_ntoa_longPFvcPvjjEPcjjmbmjjj.constprop.0+0x2be>
    2e64:	4b81                	li	s7,0
    2e66:	003ef313          	andi	t1,t4,3
    2e6a:	b3b5                	j	2bd6 <_ZL10_ntoa_longPFvcPvjjEPcjjmbmjjj.constprop.0+0x1a6>

00002e6c <riscprintf_>:
    2e6c:	7175                	addi	sp,sp,-144
    2e6e:	cece                	sw	s3,92(sp)
    2e70:	c6de                	sw	s7,76(sp)
    2e72:	d686                	sw	ra,108(sp)
    2e74:	d4a2                	sw	s0,104(sp)
    2e76:	d2a6                	sw	s1,100(sp)
    2e78:	d0ca                	sw	s2,96(sp)
    2e7a:	ccd2                	sw	s4,88(sp)
    2e7c:	cad6                	sw	s5,84(sp)
    2e7e:	c8da                	sw	s6,80(sp)
    2e80:	c4e2                	sw	s8,72(sp)
    2e82:	c2e6                	sw	s9,68(sp)
    2e84:	c0ea                	sw	s10,64(sp)
    2e86:	de6e                	sw	s11,60(sp)
    2e88:	daae                	sw	a1,116(sp)
    2e8a:	dcb2                	sw	a2,120(sp)
    2e8c:	deb6                	sw	a3,124(sp)
    2e8e:	c13a                	sw	a4,128(sp)
    2e90:	c33e                	sw	a5,132(sp)
    2e92:	c542                	sw	a6,136(sp)
    2e94:	c746                	sw	a7,140(sp)
    2e96:	8baa                	mv	s7,a0
    2e98:	00054503          	lbu	a0,0(a0)
    2e9c:	07410993          	addi	s3,sp,116
    2ea0:	d64e                	sw	s3,44(sp)
    2ea2:	42050163          	beqz	a0,32c4 <riscprintf_+0x458>
    2ea6:	001217b7          	lui	a5,0x121
    2eaa:	6915                	lui	s2,0x5
    2eac:	82178793          	addi	a5,a5,-2015 # 120821 <_end+0x113a69>
    2eb0:	4b01                	li	s6,0
    2eb2:	1024                	addi	s1,sp,40
    2eb4:	02500a13          	li	s4,37
    2eb8:	4441                	li	s0,16
    2eba:	84490913          	addi	s2,s2,-1980 # 4844 <stream_vscanf+0xc58>
    2ebe:	4aa5                	li	s5,9
    2ec0:	ca3e                	sw	a5,20(sp)
    2ec2:	a811                	j	2ed6 <riscprintf_+0x6a>
    2ec4:	865a                	mv	a2,s6
    2ec6:	56fd                	li	a3,-1
    2ec8:	85a6                	mv	a1,s1
    2eca:	0b05                	addi	s6,s6,1
    2ecc:	b5fff0ef          	jal	ra,2a2a <_ZL9_out_charcPvjj>
    2ed0:	000bc503          	lbu	a0,0(s7)
    2ed4:	c579                	beqz	a0,2fa2 <riscprintf_+0x136>
    2ed6:	0b85                	addi	s7,s7,1
    2ed8:	ff4516e3          	bne	a0,s4,2ec4 <riscprintf_+0x58>
    2edc:	4c01                	li	s8,0
    2ede:	000bc503          	lbu	a0,0(s7)
    2ee2:	001b8713          	addi	a4,s7,1
    2ee6:	fe050793          	addi	a5,a0,-32
    2eea:	0ff7f793          	zext.b	a5,a5
    2eee:	00f46663          	bltu	s0,a5,2efa <riscprintf_+0x8e>
    2ef2:	078a                	slli	a5,a5,0x2
    2ef4:	97ca                	add	a5,a5,s2
    2ef6:	439c                	lw	a5,0(a5)
    2ef8:	8782                	jr	a5
    2efa:	fd050793          	addi	a5,a0,-48
    2efe:	0ff7f793          	zext.b	a5,a5
    2f02:	1cfaf263          	bgeu	s5,a5,30c6 <riscprintf_+0x25a>
    2f06:	02a00793          	li	a5,42
    2f0a:	4d81                	li	s11,0
    2f0c:	22f50b63          	beq	a0,a5,3142 <riscprintf_+0x2d6>
    2f10:	02e00793          	li	a5,46
    2f14:	4d01                	li	s10,0
    2f16:	1cf50f63          	beq	a0,a5,30f4 <riscprintf_+0x288>
    2f1a:	06c00793          	li	a5,108
    2f1e:	86ba                	mv	a3,a4
    2f20:	20f50163          	beq	a0,a5,3122 <riscprintf_+0x2b6>
    2f24:	20a7e663          	bltu	a5,a0,3130 <riscprintf_+0x2c4>
    2f28:	06800793          	li	a5,104
    2f2c:	24f50063          	beq	a0,a5,316c <riscprintf_+0x300>
    2f30:	06a00793          	li	a5,106
    2f34:	4ef51663          	bne	a0,a5,3420 <riscprintf_+0x5b4>
    2f38:	001bc503          	lbu	a0,1(s7)
    2f3c:	200c6c13          	ori	s8,s8,512
    2f40:	07800793          	li	a5,120
    2f44:	00168b93          	addi	s7,a3,1
    2f48:	f6a7eee3          	bltu	a5,a0,2ec4 <riscprintf_+0x58>
    2f4c:	06300793          	li	a5,99
    2f50:	0aa7ec63          	bltu	a5,a0,3008 <riscprintf_+0x19c>
    2f54:	06200713          	li	a4,98
    2f58:	3ce50c63          	beq	a0,a4,3330 <riscprintf_+0x4c4>
    2f5c:	0ef51b63          	bne	a0,a5,3052 <riscprintf_+0x1e6>
    2f60:	002c7c13          	andi	s8,s8,2
    2f64:	00498d13          	addi	s10,s3,4
    2f68:	001b0c93          	addi	s9,s6,1
    2f6c:	2e0c0363          	beqz	s8,3252 <riscprintf_+0x3e6>
    2f70:	0009c503          	lbu	a0,0(s3)
    2f74:	865a                	mv	a2,s6
    2f76:	56fd                	li	a3,-1
    2f78:	85a6                	mv	a1,s1
    2f7a:	ab1ff0ef          	jal	ra,2a2a <_ZL9_out_charcPvjj>
    2f7e:	4785                	li	a5,1
    2f80:	9b6e                	add	s6,s6,s11
    2f82:	3bb7f463          	bgeu	a5,s11,332a <riscprintf_+0x4be>
    2f86:	8666                	mv	a2,s9
    2f88:	56fd                	li	a3,-1
    2f8a:	0c85                	addi	s9,s9,1
    2f8c:	85a6                	mv	a1,s1
    2f8e:	02000513          	li	a0,32
    2f92:	a99ff0ef          	jal	ra,2a2a <_ZL9_out_charcPvjj>
    2f96:	ff9b18e3          	bne	s6,s9,2f86 <riscprintf_+0x11a>
    2f9a:	89ea                	mv	s3,s10
    2f9c:	000bc503          	lbu	a0,0(s7)
    2fa0:	f91d                	bnez	a0,2ed6 <riscprintf_+0x6a>
    2fa2:	57f9                	li	a5,-2
    2fa4:	845a                	mv	s0,s6
    2fa6:	865a                	mv	a2,s6
    2fa8:	1b67e763          	bltu	a5,s6,3156 <riscprintf_+0x2ea>
    2fac:	85a6                	mv	a1,s1
    2fae:	4501                	li	a0,0
    2fb0:	56fd                	li	a3,-1
    2fb2:	a79ff0ef          	jal	ra,2a2a <_ZL9_out_charcPvjj>
    2fb6:	50b6                	lw	ra,108(sp)
    2fb8:	8522                	mv	a0,s0
    2fba:	5426                	lw	s0,104(sp)
    2fbc:	5496                	lw	s1,100(sp)
    2fbe:	5906                	lw	s2,96(sp)
    2fc0:	49f6                	lw	s3,92(sp)
    2fc2:	4a66                	lw	s4,88(sp)
    2fc4:	4ad6                	lw	s5,84(sp)
    2fc6:	4b46                	lw	s6,80(sp)
    2fc8:	4bb6                	lw	s7,76(sp)
    2fca:	4c26                	lw	s8,72(sp)
    2fcc:	4c96                	lw	s9,68(sp)
    2fce:	4d06                	lw	s10,64(sp)
    2fd0:	5df2                	lw	s11,60(sp)
    2fd2:	6149                	addi	sp,sp,144
    2fd4:	8082                	ret
    2fd6:	001c6c13          	ori	s8,s8,1
    2fda:	8bba                	mv	s7,a4
    2fdc:	b709                	j	2ede <riscprintf_+0x72>
    2fde:	002c6c13          	ori	s8,s8,2
    2fe2:	8bba                	mv	s7,a4
    2fe4:	bded                	j	2ede <riscprintf_+0x72>
    2fe6:	004c6c13          	ori	s8,s8,4
    2fea:	8bba                	mv	s7,a4
    2fec:	bdcd                	j	2ede <riscprintf_+0x72>
    2fee:	010c6c13          	ori	s8,s8,16
    2ff2:	8bba                	mv	s7,a4
    2ff4:	b5ed                	j	2ede <riscprintf_+0x72>
    2ff6:	008c6c13          	ori	s8,s8,8
    2ffa:	8bba                	mv	s7,a4
    2ffc:	b5cd                	j	2ede <riscprintf_+0x72>
    2ffe:	07800793          	li	a5,120
    3002:	8bba                	mv	s7,a4
    3004:	eca7e0e3          	bltu	a5,a0,2ec4 <riscprintf_+0x58>
    3008:	f9c50793          	addi	a5,a0,-100
    300c:	4c85                	li	s9,1
    300e:	00fc9cb3          	sll	s9,s9,a5
    3012:	47d2                	lw	a5,20(sp)
    3014:	00fcfcb3          	and	s9,s9,a5
    3018:	320c9663          	bnez	s9,3344 <riscprintf_+0x4d8>
    301c:	07300793          	li	a5,115
    3020:	14f50d63          	beq	a0,a5,317a <riscprintf_+0x30e>
    3024:	07000793          	li	a5,112
    3028:	e8f51ee3          	bne	a0,a5,2ec4 <riscprintf_+0x58>
    302c:	0009a683          	lw	a3,0(s3)
    3030:	021c6c13          	ori	s8,s8,33
    3034:	650d                	lui	a0,0x3
    3036:	865a                	mv	a2,s6
    3038:	c062                	sw	s8,0(sp)
    303a:	48a1                	li	a7,8
    303c:	886a                	mv	a6,s10
    303e:	47c1                	li	a5,16
    3040:	4701                	li	a4,0
    3042:	85a6                	mv	a1,s1
    3044:	a2a50513          	addi	a0,a0,-1494 # 2a2a <_ZL9_out_charcPvjj>
    3048:	9e9ff0ef          	jal	ra,2a30 <_ZL10_ntoa_longPFvcPvjjEPcjjmbmjjj.constprop.0>
    304c:	0991                	addi	s3,s3,4
    304e:	8b2a                	mv	s6,a0
    3050:	b541                	j	2ed0 <riscprintf_+0x64>
    3052:	01451b63          	bne	a0,s4,3068 <riscprintf_+0x1fc>
    3056:	865a                	mv	a2,s6
    3058:	56fd                	li	a3,-1
    305a:	85a6                	mv	a1,s1
    305c:	02500513          	li	a0,37
    3060:	0b05                	addi	s6,s6,1
    3062:	9c9ff0ef          	jal	ra,2a2a <_ZL9_out_charcPvjj>
    3066:	b5ad                	j	2ed0 <riscprintf_+0x64>
    3068:	05800793          	li	a5,88
    306c:	e4f51ce3          	bne	a0,a5,2ec4 <riscprintf_+0x58>
    3070:	400c7793          	andi	a5,s8,1024
    3074:	28078963          	beqz	a5,3306 <riscprintf_+0x49a>
    3078:	ff2c7713          	andi	a4,s8,-14
    307c:	02076713          	ori	a4,a4,32
    3080:	47c1                	li	a5,16
    3082:	20077693          	andi	a3,a4,512
    3086:	e40695e3          	bnez	a3,2ed0 <riscprintf_+0x64>
    308a:	10077693          	andi	a3,a4,256
    308e:	00498c13          	addi	s8,s3,4
    3092:	28069063          	bnez	a3,3312 <riscprintf_+0x4a6>
    3096:	04077693          	andi	a3,a4,64
    309a:	26069363          	bnez	a3,3300 <riscprintf_+0x494>
    309e:	08077693          	andi	a3,a4,128
    30a2:	26068863          	beqz	a3,3312 <riscprintf_+0x4a6>
    30a6:	0009d683          	lhu	a3,0(s3)
    30aa:	c03a                	sw	a4,0(sp)
    30ac:	865a                	mv	a2,s6
    30ae:	88ee                	mv	a7,s11
    30b0:	886a                	mv	a6,s10
    30b2:	4701                	li	a4,0
    30b4:	650d                	lui	a0,0x3
    30b6:	85a6                	mv	a1,s1
    30b8:	a2a50513          	addi	a0,a0,-1494 # 2a2a <_ZL9_out_charcPvjj>
    30bc:	975ff0ef          	jal	ra,2a30 <_ZL10_ntoa_longPFvcPvjjEPcjjmbmjjj.constprop.0>
    30c0:	8b2a                	mv	s6,a0
    30c2:	89e2                	mv	s3,s8
    30c4:	b531                	j	2ed0 <riscprintf_+0x64>
    30c6:	4d81                	li	s11,0
    30c8:	002d9793          	slli	a5,s11,0x2
    30cc:	97ee                	add	a5,a5,s11
    30ce:	0786                	slli	a5,a5,0x1
    30d0:	97aa                	add	a5,a5,a0
    30d2:	00074503          	lbu	a0,0(a4)
    30d6:	fd078d93          	addi	s11,a5,-48
    30da:	8bba                	mv	s7,a4
    30dc:	fd050793          	addi	a5,a0,-48
    30e0:	0ff7f793          	zext.b	a5,a5
    30e4:	0705                	addi	a4,a4,1
    30e6:	fefaf1e3          	bgeu	s5,a5,30c8 <riscprintf_+0x25c>
    30ea:	02e00793          	li	a5,46
    30ee:	4d01                	li	s10,0
    30f0:	e2f515e3          	bne	a0,a5,2f1a <riscprintf_+0xae>
    30f4:	001bc503          	lbu	a0,1(s7)
    30f8:	4625                	li	a2,9
    30fa:	86ba                	mv	a3,a4
    30fc:	fd050793          	addi	a5,a0,-48
    3100:	0ff7f793          	zext.b	a5,a5
    3104:	400c6c13          	ori	s8,s8,1024
    3108:	0ef67763          	bgeu	a2,a5,31f6 <riscprintf_+0x38a>
    310c:	02a00793          	li	a5,42
    3110:	10f50c63          	beq	a0,a5,3228 <riscprintf_+0x3bc>
    3114:	8bba                	mv	s7,a4
    3116:	06c00793          	li	a5,108
    311a:	0705                	addi	a4,a4,1
    311c:	86ba                	mv	a3,a4
    311e:	e0f513e3          	bne	a0,a5,2f24 <riscprintf_+0xb8>
    3122:	001bc503          	lbu	a0,1(s7)
    3126:	10f50f63          	beq	a0,a5,3244 <riscprintf_+0x3d8>
    312a:	100c6c13          	ori	s8,s8,256
    312e:	bd09                	j	2f40 <riscprintf_+0xd4>
    3130:	07a00793          	li	a5,122
    3134:	ecf515e3          	bne	a0,a5,2ffe <riscprintf_+0x192>
    3138:	001bc503          	lbu	a0,1(s7)
    313c:	100c6c13          	ori	s8,s8,256
    3140:	b501                	j	2f40 <riscprintf_+0xd4>
    3142:	0009ad83          	lw	s11,0(s3)
    3146:	0991                	addi	s3,s3,4
    3148:	000dc963          	bltz	s11,315a <riscprintf_+0x2ee>
    314c:	001bc503          	lbu	a0,1(s7)
    3150:	8bba                	mv	s7,a4
    3152:	0705                	addi	a4,a4,1
    3154:	bb75                	j	2f10 <riscprintf_+0xa4>
    3156:	5679                	li	a2,-2
    3158:	bd91                	j	2fac <riscprintf_+0x140>
    315a:	001bc503          	lbu	a0,1(s7)
    315e:	002c6c13          	ori	s8,s8,2
    3162:	8bba                	mv	s7,a4
    3164:	41b00db3          	neg	s11,s11
    3168:	0705                	addi	a4,a4,1
    316a:	b35d                	j	2f10 <riscprintf_+0xa4>
    316c:	001bc503          	lbu	a0,1(s7)
    3170:	14f50363          	beq	a0,a5,32b6 <riscprintf_+0x44a>
    3174:	080c6c13          	ori	s8,s8,128
    3178:	b3e1                	j	2f40 <riscprintf_+0xd4>
    317a:	0009a783          	lw	a5,0(s3)
    317e:	00498713          	addi	a4,s3,4
    3182:	cc3a                	sw	a4,24(sp)
    3184:	0007c683          	lbu	a3,0(a5)
    3188:	c83e                	sw	a5,16(sp)
    318a:	8536                	mv	a0,a3
    318c:	080d1a63          	bnez	s10,3220 <riscprintf_+0x3b4>
    3190:	5779                	li	a4,-2
    3192:	ce91                	beqz	a3,31ae <riscprintf_+0x342>
    3194:	4cc2                	lw	s9,16(sp)
    3196:	0705                	addi	a4,a4,1
    3198:	9766                	add	a4,a4,s9
    319a:	a019                	j	31a0 <riscprintf_+0x334>
    319c:	00ec8663          	beq	s9,a4,31a8 <riscprintf_+0x33c>
    31a0:	001cc783          	lbu	a5,1(s9)
    31a4:	0c85                	addi	s9,s9,1
    31a6:	fbfd                	bnez	a5,319c <riscprintf_+0x330>
    31a8:	47c2                	lw	a5,16(sp)
    31aa:	40fc8cb3          	sub	s9,s9,a5
    31ae:	400c7993          	andi	s3,s8,1024
    31b2:	00098563          	beqz	s3,31bc <riscprintf_+0x350>
    31b6:	019d7363          	bgeu	s10,s9,31bc <riscprintf_+0x350>
    31ba:	8cea                	mv	s9,s10
    31bc:	002c7793          	andi	a5,s8,2
    31c0:	ce3e                	sw	a5,28(sp)
    31c2:	10078563          	beqz	a5,32cc <riscprintf_+0x460>
    31c6:	c6e9                	beqz	a3,3290 <riscprintf_+0x424>
    31c8:	865a                	mv	a2,s6
    31ca:	00098763          	beqz	s3,31d8 <riscprintf_+0x36c>
    31ce:	fffd0793          	addi	a5,s10,-1
    31d2:	0a0d0b63          	beqz	s10,3288 <riscprintf_+0x41c>
    31d6:	8d3e                	mv	s10,a5
    31d8:	56fd                	li	a3,-1
    31da:	85a6                	mv	a1,s1
    31dc:	00160c13          	addi	s8,a2,1
    31e0:	84bff0ef          	jal	ra,2a2a <_ZL9_out_charcPvjj>
    31e4:	4742                	lw	a4,16(sp)
    31e6:	416c07b3          	sub	a5,s8,s6
    31ea:	97ba                	add	a5,a5,a4
    31ec:	0007c503          	lbu	a0,0(a5)
    31f0:	cd49                	beqz	a0,328a <riscprintf_+0x41e>
    31f2:	8662                	mv	a2,s8
    31f4:	bfd9                	j	31ca <riscprintf_+0x35e>
    31f6:	4725                	li	a4,9
    31f8:	002d1793          	slli	a5,s10,0x2
    31fc:	97ea                	add	a5,a5,s10
    31fe:	0685                	addi	a3,a3,1
    3200:	0786                	slli	a5,a5,0x1
    3202:	97aa                	add	a5,a5,a0
    3204:	0006c503          	lbu	a0,0(a3)
    3208:	fd078d13          	addi	s10,a5,-48
    320c:	fd050793          	addi	a5,a0,-48
    3210:	0ff7f793          	zext.b	a5,a5
    3214:	fef772e3          	bgeu	a4,a5,31f8 <riscprintf_+0x38c>
    3218:	8bb6                	mv	s7,a3
    321a:	00168713          	addi	a4,a3,1
    321e:	b9f5                	j	2f1a <riscprintf_+0xae>
    3220:	d6d9                	beqz	a3,31ae <riscprintf_+0x342>
    3222:	fffd0713          	addi	a4,s10,-1
    3226:	b7bd                	j	3194 <riscprintf_+0x328>
    3228:	0009ad03          	lw	s10,0(s3)
    322c:	002bc503          	lbu	a0,2(s7)
    3230:	0b89                	addi	s7,s7,2
    3232:	fffd4793          	not	a5,s10
    3236:	87fd                	srai	a5,a5,0x1f
    3238:	00fd7d33          	and	s10,s10,a5
    323c:	0991                	addi	s3,s3,4
    323e:	001b8713          	addi	a4,s7,1
    3242:	b9e1                	j	2f1a <riscprintf_+0xae>
    3244:	002bc503          	lbu	a0,2(s7)
    3248:	300c6c13          	ori	s8,s8,768
    324c:	002b8693          	addi	a3,s7,2
    3250:	b9c5                	j	2f40 <riscprintf_+0xd4>
    3252:	4785                	li	a5,1
    3254:	0db7f463          	bgeu	a5,s11,331c <riscprintf_+0x4b0>
    3258:	fffb0c13          	addi	s8,s6,-1
    325c:	9c6e                	add	s8,s8,s11
    325e:	8cda                	mv	s9,s6
    3260:	8666                	mv	a2,s9
    3262:	56fd                	li	a3,-1
    3264:	0c85                	addi	s9,s9,1
    3266:	85a6                	mv	a1,s1
    3268:	02000513          	li	a0,32
    326c:	fbeff0ef          	jal	ra,2a2a <_ZL9_out_charcPvjj>
    3270:	ff9c18e3          	bne	s8,s9,3260 <riscprintf_+0x3f4>
    3274:	0009c503          	lbu	a0,0(s3)
    3278:	56fd                	li	a3,-1
    327a:	8662                	mv	a2,s8
    327c:	85a6                	mv	a1,s1
    327e:	9b6e                	add	s6,s6,s11
    3280:	faaff0ef          	jal	ra,2a2a <_ZL9_out_charcPvjj>
    3284:	89ea                	mv	s3,s10
    3286:	bb19                	j	2f9c <riscprintf_+0x130>
    3288:	8c32                	mv	s8,a2
    328a:	47f2                	lw	a5,28(sp)
    328c:	c395                	beqz	a5,32b0 <riscprintf_+0x444>
    328e:	8b62                	mv	s6,s8
    3290:	07bcf663          	bgeu	s9,s11,32fc <riscprintf_+0x490>
    3294:	016d8733          	add	a4,s11,s6
    3298:	41970c33          	sub	s8,a4,s9
    329c:	865a                	mv	a2,s6
    329e:	56fd                	li	a3,-1
    32a0:	0b05                	addi	s6,s6,1
    32a2:	85a6                	mv	a1,s1
    32a4:	02000513          	li	a0,32
    32a8:	f82ff0ef          	jal	ra,2a2a <_ZL9_out_charcPvjj>
    32ac:	ff8b18e3          	bne	s6,s8,329c <riscprintf_+0x430>
    32b0:	49e2                	lw	s3,24(sp)
    32b2:	8b62                	mv	s6,s8
    32b4:	b931                	j	2ed0 <riscprintf_+0x64>
    32b6:	002bc503          	lbu	a0,2(s7)
    32ba:	0c0c6c13          	ori	s8,s8,192
    32be:	002b8693          	addi	a3,s7,2
    32c2:	b9bd                	j	2f40 <riscprintf_+0xd4>
    32c4:	4601                	li	a2,0
    32c6:	4401                	li	s0,0
    32c8:	1024                	addi	s1,sp,40
    32ca:	b1cd                	j	2fac <riscprintf_+0x140>
    32cc:	05bcf663          	bgeu	s9,s11,3318 <riscprintf_+0x4ac>
    32d0:	016d87b3          	add	a5,s11,s6
    32d4:	41978cb3          	sub	s9,a5,s9
    32d8:	865a                	mv	a2,s6
    32da:	56fd                	li	a3,-1
    32dc:	0b05                	addi	s6,s6,1
    32de:	85a6                	mv	a1,s1
    32e0:	02000513          	li	a0,32
    32e4:	f46ff0ef          	jal	ra,2a2a <_ZL9_out_charcPvjj>
    32e8:	ff6c98e3          	bne	s9,s6,32d8 <riscprintf_+0x46c>
    32ec:	47c2                	lw	a5,16(sp)
    32ee:	001d8c93          	addi	s9,s11,1
    32f2:	0007c683          	lbu	a3,0(a5)
    32f6:	8536                	mv	a0,a3
    32f8:	ec0698e3          	bnez	a3,31c8 <riscprintf_+0x35c>
    32fc:	8c5a                	mv	s8,s6
    32fe:	bf4d                	j	32b0 <riscprintf_+0x444>
    3300:	0009c683          	lbu	a3,0(s3)
    3304:	b35d                	j	30aa <riscprintf_+0x23e>
    3306:	020c6c13          	ori	s8,s8,32
    330a:	ff3c7713          	andi	a4,s8,-13
    330e:	47c1                	li	a5,16
    3310:	bb8d                	j	3082 <riscprintf_+0x216>
    3312:	0009a683          	lw	a3,0(s3)
    3316:	bb51                	j	30aa <riscprintf_+0x23e>
    3318:	0c85                	addi	s9,s9,1
    331a:	bff1                	j	32f6 <riscprintf_+0x48a>
    331c:	0009c503          	lbu	a0,0(s3)
    3320:	56fd                	li	a3,-1
    3322:	865a                	mv	a2,s6
    3324:	85a6                	mv	a1,s1
    3326:	f04ff0ef          	jal	ra,2a2a <_ZL9_out_charcPvjj>
    332a:	8b66                	mv	s6,s9
    332c:	89ea                	mv	s3,s10
    332e:	b1bd                	j	2f9c <riscprintf_+0x130>
    3330:	400c7713          	andi	a4,s8,1024
    3334:	4789                	li	a5,2
    3336:	c701                	beqz	a4,333e <riscprintf_+0x4d2>
    3338:	ff2c7713          	andi	a4,s8,-14
    333c:	b399                	j	3082 <riscprintf_+0x216>
    333e:	ff3c7713          	andi	a4,s8,-13
    3342:	b381                	j	3082 <riscprintf_+0x216>
    3344:	07800793          	li	a5,120
    3348:	0af50663          	beq	a0,a5,33f4 <riscprintf_+0x588>
    334c:	06f00793          	li	a5,111
    3350:	04f50363          	beq	a0,a5,3396 <riscprintf_+0x52a>
    3354:	06900793          	li	a5,105
    3358:	fefc7593          	andi	a1,s8,-17
    335c:	0af51363          	bne	a0,a5,3402 <riscprintf_+0x596>
    3360:	400c7793          	andi	a5,s8,1024
    3364:	c399                	beqz	a5,336a <riscprintf_+0x4fe>
    3366:	feec7593          	andi	a1,s8,-18
    336a:	2005f793          	andi	a5,a1,512
    336e:	b60791e3          	bnez	a5,2ed0 <riscprintf_+0x64>
    3372:	1005f793          	andi	a5,a1,256
    3376:	00498c13          	addi	s8,s3,4
    337a:	e3b1                	bnez	a5,33be <riscprintf_+0x552>
    337c:	0405f793          	andi	a5,a1,64
    3380:	c395                	beqz	a5,33a4 <riscprintf_+0x538>
    3382:	0009c703          	lbu	a4,0(s3)
    3386:	86ba                	mv	a3,a4
    3388:	865a                	mv	a2,s6
    338a:	c02e                	sw	a1,0(sp)
    338c:	88ee                	mv	a7,s11
    338e:	886a                	mv	a6,s10
    3390:	47a9                	li	a5,10
    3392:	837d                	srli	a4,a4,0x1f
    3394:	b305                	j	30b4 <riscprintf_+0x248>
    3396:	400c7793          	andi	a5,s8,1024
    339a:	c3a9                	beqz	a5,33dc <riscprintf_+0x570>
    339c:	ff2c7713          	andi	a4,s8,-14
    33a0:	47a1                	li	a5,8
    33a2:	b1c5                	j	3082 <riscprintf_+0x216>
    33a4:	0805f793          	andi	a5,a1,128
    33a8:	cf95                	beqz	a5,33e4 <riscprintf_+0x578>
    33aa:	00099703          	lh	a4,0(s3)
    33ae:	40f75793          	srai	a5,a4,0xf
    33b2:	00f746b3          	xor	a3,a4,a5
    33b6:	8e9d                	sub	a3,a3,a5
    33b8:	06c2                	slli	a3,a3,0x10
    33ba:	82c1                	srli	a3,a3,0x10
    33bc:	b7f1                	j	3388 <riscprintf_+0x51c>
    33be:	0009a703          	lw	a4,0(s3)
    33c2:	865a                	mv	a2,s6
    33c4:	c02e                	sw	a1,0(sp)
    33c6:	41f75693          	srai	a3,a4,0x1f
    33ca:	00e6c533          	xor	a0,a3,a4
    33ce:	88ee                	mv	a7,s11
    33d0:	886a                	mv	a6,s10
    33d2:	47a9                	li	a5,10
    33d4:	837d                	srli	a4,a4,0x1f
    33d6:	40d506b3          	sub	a3,a0,a3
    33da:	b9e9                	j	30b4 <riscprintf_+0x248>
    33dc:	ff3c7713          	andi	a4,s8,-13
    33e0:	47a1                	li	a5,8
    33e2:	b145                	j	3082 <riscprintf_+0x216>
    33e4:	0009a703          	lw	a4,0(s3)
    33e8:	41f75793          	srai	a5,a4,0x1f
    33ec:	00e7c6b3          	xor	a3,a5,a4
    33f0:	8e9d                	sub	a3,a3,a5
    33f2:	bf59                	j	3388 <riscprintf_+0x51c>
    33f4:	400c7793          	andi	a5,s8,1024
    33f8:	db89                	beqz	a5,330a <riscprintf_+0x49e>
    33fa:	ff2c7713          	andi	a4,s8,-14
    33fe:	47c1                	li	a5,16
    3400:	b149                	j	3082 <riscprintf_+0x216>
    3402:	06400793          	li	a5,100
    3406:	f4f50de3          	beq	a0,a5,3360 <riscprintf_+0x4f4>
    340a:	400c7693          	andi	a3,s8,1024
    340e:	fe3c7713          	andi	a4,s8,-29
    3412:	47a9                	li	a5,10
    3414:	8c2e                	mv	s8,a1
    3416:	c60686e3          	beqz	a3,3082 <riscprintf_+0x216>
    341a:	ff2c7713          	andi	a4,s8,-14
    341e:	b195                	j	3082 <riscprintf_+0x216>
    3420:	8bba                	mv	s7,a4
    3422:	b62d                	j	2f4c <riscprintf_+0xe0>

00003424 <riscprintff_>:
    3424:	1101                	addi	sp,sp,-32
    3426:	c22e                	sw	a1,4(sp)
    3428:	c432                	sw	a2,8(sp)
    342a:	c636                	sw	a3,12(sp)
    342c:	c83a                	sw	a4,16(sp)
    342e:	ca3e                	sw	a5,20(sp)
    3430:	cc42                	sw	a6,24(sp)
    3432:	ce46                	sw	a7,28(sp)
    3434:	4501                	li	a0,0
    3436:	6105                	addi	sp,sp,32
    3438:	8082                	ret

0000343a <_Z10ResetTimerv>:
    343a:	4785                	li	a5,1
    343c:	fcf02223          	sw	a5,-60(zero) # ffffffc4 <_end+0xffff320c>
    3440:	06500793          	li	a5,101
    3444:	17fd                	addi	a5,a5,-1
    3446:	fffd                	bnez	a5,3444 <_Z10ResetTimerv+0xa>
    3448:	fc002223          	sw	zero,-60(zero) # ffffffc4 <_end+0xffff320c>
    344c:	8082                	ret

0000344e <_Z8SetTimerv>:
    344e:	000b57b7          	lui	a5,0xb5
    3452:	46478793          	addi	a5,a5,1124 # b5464 <_end+0xa86ac>
    3456:	f8f02c23          	sw	a5,-104(zero) # ffffff98 <_end+0xffff31e0>
    345a:	8082                	ret

0000345c <_Z10riscusleepi>:
    345c:	00a05663          	blez	a0,3468 <_Z10riscusleepi+0xc>
    3460:	4781                	li	a5,0
    3462:	0785                	addi	a5,a5,1
    3464:	fef51fe3          	bne	a0,a5,3462 <_Z10riscusleepi+0x6>
    3468:	8082                	ret

0000346a <_Z13RISCGetTimer1mi>:
    346a:	67c9                	lui	a5,0x12
    346c:	20a78793          	addi	a5,a5,522 # 1220a <_end+0x5452>
    3470:	02f50533          	mul	a0,a0,a5
    3474:	ff802783          	lw	a5,-8(zero) # fffffff8 <_end+0xffff3240>
    3478:	95be                	add	a1,a1,a5
    347a:	952e                	add	a0,a0,a1
    347c:	8082                	ret

0000347e <_Z15RISCCheckTimer1m>:
    347e:	c901                	beqz	a0,348e <_Z15RISCCheckTimer1m+0x10>
    3480:	ff802783          	lw	a5,-8(zero) # fffffff8 <_end+0xffff3240>
    3484:	00a7b533          	sltu	a0,a5,a0
    3488:	00154513          	xori	a0,a0,1
    348c:	8082                	ret
    348e:	4505                	li	a0,1
    3490:	8082                	ret

00003492 <_Z13RISCGetTimer2mi>:
    3492:	67c9                	lui	a5,0x12
    3494:	20a78793          	addi	a5,a5,522 # 1220a <_end+0x5452>
    3498:	02f50533          	mul	a0,a0,a5
    349c:	ffc02783          	lw	a5,-4(zero) # fffffffc <_end+0xffff3244>
    34a0:	95be                	add	a1,a1,a5
    34a2:	952e                	add	a0,a0,a1
    34a4:	8082                	ret

000034a6 <_Z15RISCCheckTimer2m>:
    34a6:	ffc02783          	lw	a5,-4(zero) # fffffffc <_end+0xffff3244>
    34aa:	00a7b533          	sltu	a0,a5,a0
    34ae:	00154513          	xori	a0,a0,1
    34b2:	8082                	ret

000034b4 <_Z11ResetTimer1v>:
    34b4:	4785                	li	a5,1
    34b6:	fcf02223          	sw	a5,-60(zero) # ffffffc4 <_end+0xffff320c>
    34ba:	47ad                	li	a5,11
    34bc:	17fd                	addi	a5,a5,-1
    34be:	fffd                	bnez	a5,34bc <_Z11ResetTimer1v+0x8>
    34c0:	fc002223          	sw	zero,-60(zero) # ffffffc4 <_end+0xffff320c>
    34c4:	8082                	ret

000034c6 <_Z11ResetTimer2v>:
    34c6:	4785                	li	a5,1
    34c8:	fcf02623          	sw	a5,-52(zero) # ffffffcc <_end+0xffff3214>
    34cc:	47ad                	li	a5,11
    34ce:	17fd                	addi	a5,a5,-1
    34d0:	fffd                	bnez	a5,34ce <_Z11ResetTimer2v+0x8>
    34d2:	fc002623          	sw	zero,-52(zero) # ffffffcc <_end+0xffff3214>
    34d6:	8082                	ret

000034d8 <memcpy>:
    34d8:	4791                	li	a5,4
    34da:	02c7f163          	bgeu	a5,a2,34fc <memcpy+0x24>
    34de:	00b567b3          	or	a5,a0,a1
    34e2:	8b8d                	andi	a5,a5,3
    34e4:	cf99                	beqz	a5,3502 <memcpy+0x2a>
    34e6:	87aa                	mv	a5,a0
    34e8:	963e                	add	a2,a2,a5
    34ea:	0005c703          	lbu	a4,0(a1)
    34ee:	0785                	addi	a5,a5,1
    34f0:	0585                	addi	a1,a1,1
    34f2:	fee78fa3          	sb	a4,-1(a5)
    34f6:	fef61ae3          	bne	a2,a5,34ea <memcpy+0x12>
    34fa:	8082                	ret
    34fc:	87aa                	mv	a5,a0
    34fe:	f66d                	bnez	a2,34e8 <memcpy+0x10>
    3500:	8082                	ret
    3502:	ffc60893          	addi	a7,a2,-4
    3506:	ffc8f893          	andi	a7,a7,-4
    350a:	0891                	addi	a7,a7,4
    350c:	011507b3          	add	a5,a0,a7
    3510:	86ae                	mv	a3,a1
    3512:	872a                	mv	a4,a0
    3514:	0006a803          	lw	a6,0(a3)
    3518:	0711                	addi	a4,a4,4
    351a:	0691                	addi	a3,a3,4
    351c:	ff072e23          	sw	a6,-4(a4)
    3520:	fee79ae3          	bne	a5,a4,3514 <memcpy+0x3c>
    3524:	8a0d                	andi	a2,a2,3
    3526:	95c6                	add	a1,a1,a7
    3528:	f261                	bnez	a2,34e8 <memcpy+0x10>
    352a:	bfd9                	j	3500 <memcpy+0x28>

0000352c <outnum>:
    352c:	6715                	lui	a4,0x5
    352e:	6795                	lui	a5,0x5
    3530:	88870713          	addi	a4,a4,-1912 # 4888 <stream_vscanf+0xc9c>
    3534:	89c78793          	addi	a5,a5,-1892 # 489c <stream_vscanf+0xcb0>
    3538:	0047a883          	lw	a7,4(a5)
    353c:	00072283          	lw	t0,0(a4)
    3540:	00472f83          	lw	t6,4(a4)
    3544:	00872f03          	lw	t5,8(a4)
    3548:	00c72e83          	lw	t4,12(a4)
    354c:	01074e03          	lbu	t3,16(a4)
    3550:	0007a303          	lw	t1,0(a5)
    3554:	0087a803          	lw	a6,8(a5)
    3558:	47d8                	lw	a4,12(a5)
    355a:	0107c783          	lbu	a5,16(a5)
    355e:	7159                	addi	sp,sp,-112
    3560:	d0ca                	sw	s2,96(sp)
    3562:	cece                	sw	s3,92(sp)
    3564:	d046                	sw	a7,32(sp)
    3566:	02f10623          	sb	a5,44(sp)
    356a:	d686                	sw	ra,108(sp)
    356c:	d4a2                	sw	s0,104(sp)
    356e:	d2a6                	sw	s1,100(sp)
    3570:	ccd2                	sw	s4,88(sp)
    3572:	c416                	sw	t0,8(sp)
    3574:	c67e                	sw	t6,12(sp)
    3576:	c87a                	sw	t5,16(sp)
    3578:	ca76                	sw	t4,20(sp)
    357a:	01c10c23          	sb	t3,24(sp)
    357e:	ce1a                	sw	t1,28(sp)
    3580:	d242                	sw	a6,36(sp)
    3582:	d43a                	sw	a4,40(sp)
    3584:	47a9                	li	a5,10
    3586:	01c6a883          	lw	a7,28(a3)
    358a:	89b6                	mv	s3,a3
    358c:	892a                	mv	s2,a0
    358e:	14f60763          	beq	a2,a5,36dc <outnum+0x1b0>
    3592:	0030                	addi	a2,sp,8
    3594:	0e088c63          	beqz	a7,368c <outnum+0x160>
    3598:	03010a13          	addi	s4,sp,48
    359c:	87d2                	mv	a5,s4
    359e:	453d                	li	a0,15
    35a0:	00f5f713          	andi	a4,a1,15
    35a4:	9732                	add	a4,a4,a2
    35a6:	00074683          	lbu	a3,0(a4)
    35aa:	872e                	mv	a4,a1
    35ac:	0785                	addi	a5,a5,1
    35ae:	fed78fa3          	sb	a3,-1(a5)
    35b2:	8191                	srli	a1,a1,0x4
    35b4:	fee566e3          	bltu	a0,a4,35a0 <outnum+0x74>
    35b8:	fff78493          	addi	s1,a5,-1
    35bc:	00078023          	sb	zero,0(a5)
    35c0:	8552                	mv	a0,s4
    35c2:	2341                	jal	3b42 <strlen>
    35c4:	0109a783          	lw	a5,16(s3)
    35c8:	00a9a023          	sw	a0,0(s3)
    35cc:	0189a703          	lw	a4,24(s3)
    35d0:	842a                	mv	s0,a0
    35d2:	c791                	beqz	a5,35de <outnum+0xb2>
    35d4:	ef55                	bnez	a4,3690 <outnum+0x164>
    35d6:	0049a783          	lw	a5,4(s3)
    35da:	0cf54463          	blt	a0,a5,36a2 <outnum+0x176>
    35de:	0344ee63          	bltu	s1,s4,361a <outnum+0xee>
    35e2:	8426                	mv	s0,s1
    35e4:	0209a703          	lw	a4,32(s3)
    35e8:	408487b3          	sub	a5,s1,s0
    35ec:	147d                	addi	s0,s0,-1
    35ee:	00e7da63          	bge	a5,a4,3602 <outnum+0xd6>
    35f2:	00092783          	lw	a5,0(s2)
    35f6:	00144503          	lbu	a0,1(s0)
    35fa:	cb85                	beqz	a5,362a <outnum+0xfe>
    35fc:	9782                	jalr	a5
    35fe:	ff4473e3          	bgeu	s0,s4,35e4 <outnum+0xb8>
    3602:	0109a783          	lw	a5,16(s3)
    3606:	cb91                	beqz	a5,361a <outnum+0xee>
    3608:	0189a783          	lw	a5,24(s3)
    360c:	c799                	beqz	a5,361a <outnum+0xee>
    360e:	0009a403          	lw	s0,0(s3)
    3612:	0049a783          	lw	a5,4(s3)
    3616:	04f44363          	blt	s0,a5,365c <outnum+0x130>
    361a:	50b6                	lw	ra,108(sp)
    361c:	5426                	lw	s0,104(sp)
    361e:	5496                	lw	s1,100(sp)
    3620:	5906                	lw	s2,96(sp)
    3622:	49f6                	lw	s3,92(sp)
    3624:	4a66                	lw	s4,88(sp)
    3626:	6165                	addi	sp,sp,112
    3628:	8082                	ret
    362a:	00492783          	lw	a5,4(s2)
    362e:	dbe1                	beqz	a5,35fe <outnum+0xd2>
    3630:	00892703          	lw	a4,8(s2)
    3634:	00c92683          	lw	a3,12(s2)
    3638:	00170613          	addi	a2,a4,1
    363c:	97ba                	add	a5,a5,a4
    363e:	fcd750e3          	bge	a4,a3,35fe <outnum+0xd2>
    3642:	00c92423          	sw	a2,8(s2)
    3646:	00a78023          	sb	a0,0(a5)
    364a:	f9447de3          	bgeu	s0,s4,35e4 <outnum+0xb8>
    364e:	bf55                	j	3602 <outnum+0xd6>
    3650:	9702                	jalr	a4
    3652:	0049a783          	lw	a5,4(s3)
    3656:	0405                	addi	s0,s0,1
    3658:	fcf451e3          	bge	s0,a5,361a <outnum+0xee>
    365c:	00092703          	lw	a4,0(s2)
    3660:	00c9c503          	lbu	a0,12(s3)
    3664:	f775                	bnez	a4,3650 <outnum+0x124>
    3666:	00492703          	lw	a4,4(s2)
    366a:	d775                	beqz	a4,3656 <outnum+0x12a>
    366c:	00892683          	lw	a3,8(s2)
    3670:	00c92603          	lw	a2,12(s2)
    3674:	00168593          	addi	a1,a3,1
    3678:	9736                	add	a4,a4,a3
    367a:	fcc6dee3          	bge	a3,a2,3656 <outnum+0x12a>
    367e:	00b92423          	sw	a1,8(s2)
    3682:	00a70023          	sb	a0,0(a4)
    3686:	0049a783          	lw	a5,4(s3)
    368a:	b7f1                	j	3656 <outnum+0x12a>
    368c:	0870                	addi	a2,sp,28
    368e:	b729                	j	3598 <outnum+0x6c>
    3690:	f544f9e3          	bgeu	s1,s4,35e2 <outnum+0xb6>
    3694:	bfbd                	j	3612 <outnum+0xe6>
    3696:	9702                	jalr	a4
    3698:	0049a783          	lw	a5,4(s3)
    369c:	0405                	addi	s0,s0,1
    369e:	02f45c63          	bge	s0,a5,36d6 <outnum+0x1aa>
    36a2:	00092703          	lw	a4,0(s2)
    36a6:	00c9c503          	lbu	a0,12(s3)
    36aa:	f775                	bnez	a4,3696 <outnum+0x16a>
    36ac:	00492703          	lw	a4,4(s2)
    36b0:	d775                	beqz	a4,369c <outnum+0x170>
    36b2:	00892683          	lw	a3,8(s2)
    36b6:	00c92603          	lw	a2,12(s2)
    36ba:	00168593          	addi	a1,a3,1
    36be:	9736                	add	a4,a4,a3
    36c0:	fcc6dee3          	bge	a3,a2,369c <outnum+0x170>
    36c4:	00b92423          	sw	a1,8(s2)
    36c8:	00a70023          	sb	a0,0(a4)
    36cc:	0049a783          	lw	a5,4(s3)
    36d0:	0405                	addi	s0,s0,1
    36d2:	fcf448e3          	blt	s0,a5,36a2 <outnum+0x176>
    36d6:	f144f6e3          	bgeu	s1,s4,35e2 <outnum+0xb6>
    36da:	b725                	j	3602 <outnum+0xd6>
    36dc:	0405c363          	bltz	a1,3722 <outnum+0x1f6>
    36e0:	0868                	addi	a0,sp,28
    36e2:	02089d63          	bnez	a7,371c <outnum+0x1f0>
    36e6:	03010a13          	addi	s4,sp,48
    36ea:	84d2                	mv	s1,s4
    36ec:	46a9                	li	a3,10
    36ee:	4825                	li	a6,9
    36f0:	02d5f733          	remu	a4,a1,a3
    36f4:	87a6                	mv	a5,s1
    36f6:	0485                	addi	s1,s1,1
    36f8:	862e                	mv	a2,a1
    36fa:	972a                	add	a4,a4,a0
    36fc:	00074703          	lbu	a4,0(a4)
    3700:	02d5d5b3          	divu	a1,a1,a3
    3704:	fee48fa3          	sb	a4,-1(s1)
    3708:	fec864e3          	bltu	a6,a2,36f0 <outnum+0x1c4>
    370c:	02088763          	beqz	a7,373a <outnum+0x20e>
    3710:	02d00713          	li	a4,45
    3714:	0789                	addi	a5,a5,2
    3716:	00e48023          	sb	a4,0(s1)
    371a:	b54d                	j	35bc <outnum+0x90>
    371c:	0028                	addi	a0,sp,8
    371e:	4881                	li	a7,0
    3720:	b7d9                	j	36e6 <outnum+0x1ba>
    3722:	4adc                	lw	a5,20(a3)
    3724:	ffd5                	bnez	a5,36e0 <outnum+0x1b4>
    3726:	40b005b3          	neg	a1,a1
    372a:	00088563          	beqz	a7,3734 <outnum+0x208>
    372e:	0028                	addi	a0,sp,8
    3730:	4885                	li	a7,1
    3732:	bf55                	j	36e6 <outnum+0x1ba>
    3734:	0868                	addi	a0,sp,28
    3736:	4885                	li	a7,1
    3738:	b77d                	j	36e6 <outnum+0x1ba>
    373a:	87a6                	mv	a5,s1
    373c:	bdb5                	j	35b8 <outnum+0x8c>

0000373e <vbuf_printf>:
    373e:	0005c783          	lbu	a5,0(a1)
    3742:	34078c63          	beqz	a5,3a9a <vbuf_printf+0x35c>
    3746:	7119                	addi	sp,sp,-128
    3748:	d4d2                	sw	s4,104(sp)
    374a:	d2d6                	sw	s5,100(sp)
    374c:	d0da                	sw	s6,96(sp)
    374e:	6a21                	lui	s4,0x8
    3750:	6a95                	lui	s5,0x5
    3752:	6b15                	lui	s6,0x5
    3754:	dca2                	sw	s0,120(sp)
    3756:	d8ca                	sw	s2,112(sp)
    3758:	d6ce                	sw	s3,108(sp)
    375a:	cede                	sw	s7,92(sp)
    375c:	de86                	sw	ra,124(sp)
    375e:	daa6                	sw	s1,116(sp)
    3760:	cce2                	sw	s8,88(sp)
    3762:	cae6                	sw	s9,84(sp)
    3764:	c8ea                	sw	s10,80(sp)
    3766:	c6ee                	sw	s11,76(sp)
    3768:	842e                	mv	s0,a1
    376a:	8baa                	mv	s7,a0
    376c:	8932                	mv	s2,a2
    376e:	1a7d                	addi	s4,s4,-1 # 7fff <sector_buffer1+0xfe7>
    3770:	49e5                	li	s3,25
    3772:	908a8a93          	addi	s5,s5,-1784 # 4908 <stream_vscanf+0xd1c>
    3776:	8b0b0b13          	addi	s6,s6,-1872 # 48b0 <stream_vscanf+0xcc4>
    377a:	02500713          	li	a4,37
    377e:	02e78e63          	beq	a5,a4,37ba <vbuf_printf+0x7c>
    3782:	000ba703          	lw	a4,0(s7)
    3786:	1e070e63          	beqz	a4,3982 <vbuf_printf+0x244>
    378a:	853e                	mv	a0,a5
    378c:	9702                	jalr	a4
    378e:	84a2                	mv	s1,s0
    3790:	0014c783          	lbu	a5,1(s1)
    3794:	00148413          	addi	s0,s1,1
    3798:	f3ed                	bnez	a5,377a <vbuf_printf+0x3c>
    379a:	50f6                	lw	ra,124(sp)
    379c:	5466                	lw	s0,120(sp)
    379e:	54d6                	lw	s1,116(sp)
    37a0:	5946                	lw	s2,112(sp)
    37a2:	59b6                	lw	s3,108(sp)
    37a4:	5a26                	lw	s4,104(sp)
    37a6:	5a96                	lw	s5,100(sp)
    37a8:	5b06                	lw	s6,96(sp)
    37aa:	4bf6                	lw	s7,92(sp)
    37ac:	4c66                	lw	s8,88(sp)
    37ae:	4cd6                	lw	s9,84(sp)
    37b0:	4d46                	lw	s10,80(sp)
    37b2:	4db6                	lw	s11,76(sp)
    37b4:	4501                	li	a0,0
    37b6:	6109                	addi	sp,sp,128
    37b8:	8082                	ret
    37ba:	02000793          	li	a5,32
    37be:	02f10423          	sb	a5,40(sp)
    37c2:	47a9                	li	a5,10
    37c4:	d602                	sw	zero,44(sp)
    37c6:	da02                	sw	zero,52(sp)
    37c8:	d802                	sw	zero,48(sp)
    37ca:	d252                	sw	s4,36(sp)
    37cc:	de3e                	sw	a5,60(sp)
    37ce:	4c81                	li	s9,0
    37d0:	4c25                	li	s8,9
    37d2:	00144783          	lbu	a5,1(s0)
    37d6:	00140493          	addi	s1,s0,1
    37da:	fd078713          	addi	a4,a5,-48
    37de:	0ff77693          	zext.b	a3,a4
    37e2:	10dc7163          	bgeu	s8,a3,38e4 <vbuf_printf+0x1a6>
    37e6:	fbf78713          	addi	a4,a5,-65
    37ea:	0ff77713          	zext.b	a4,a4
    37ee:	01a73693          	sltiu	a3,a4,26
    37f2:	dc36                	sw	a3,56(sp)
    37f4:	10e9ee63          	bltu	s3,a4,3910 <vbuf_printf+0x1d2>
    37f8:	fbd78793          	addi	a5,a5,-67
    37fc:	0ff7f793          	zext.b	a5,a5
    3800:	4755                	li	a4,21
    3802:	f8f767e3          	bltu	a4,a5,3790 <vbuf_printf+0x52>
    3806:	078a                	slli	a5,a5,0x2
    3808:	97da                	add	a5,a5,s6
    380a:	439c                	lw	a5,0(a5)
    380c:	8782                	jr	a5
    380e:	000ba783          	lw	a5,0(s7)
    3812:	00094503          	lbu	a0,0(s2)
    3816:	20078063          	beqz	a5,3a16 <vbuf_printf+0x2d8>
    381a:	9782                	jalr	a5
    381c:	0911                	addi	s2,s2,4
    381e:	0014c783          	lbu	a5,1(s1)
    3822:	00148413          	addi	s0,s1,1
    3826:	fbb1                	bnez	a5,377a <vbuf_printf+0x3c>
    3828:	bf8d                	j	379a <vbuf_printf+0x5c>
    382a:	00092c03          	lw	s8,0(s2)
    382e:	8562                	mv	a0,s8
    3830:	2e09                	jal	3b42 <strlen>
    3832:	5d32                	lw	s10,44(sp)
    3834:	ce2a                	sw	a0,28(sp)
    3836:	5dd2                	lw	s11,52(sp)
    3838:	842a                	mv	s0,a0
    383a:	87aa                	mv	a5,a0
    383c:	160d1663          	bnez	s10,39a8 <vbuf_printf+0x26a>
    3840:	000c4503          	lbu	a0,0(s8)
    3844:	dd61                	beqz	a0,381c <vbuf_printf+0xde>
    3846:	5792                	lw	a5,36(sp)
    3848:	8462                	mv	s0,s8
    384a:	fff78c93          	addi	s9,a5,-1
    384e:	9c3e                	add	s8,s8,a5
    3850:	9ca2                	add	s9,s9,s0
    3852:	a029                	j	385c <vbuf_printf+0x11e>
    3854:	9782                	jalr	a5
    3856:	00044503          	lbu	a0,0(s0)
    385a:	cd0d                	beqz	a0,3894 <vbuf_printf+0x156>
    385c:	408c87b3          	sub	a5,s9,s0
    3860:	d23e                	sw	a5,36(sp)
    3862:	03840a63          	beq	s0,s8,3896 <vbuf_printf+0x158>
    3866:	000ba783          	lw	a5,0(s7)
    386a:	0405                	addi	s0,s0,1
    386c:	f7e5                	bnez	a5,3854 <vbuf_printf+0x116>
    386e:	004ba783          	lw	a5,4(s7)
    3872:	d3f5                	beqz	a5,3856 <vbuf_printf+0x118>
    3874:	008ba703          	lw	a4,8(s7)
    3878:	00cba683          	lw	a3,12(s7)
    387c:	fcd75de3          	bge	a4,a3,3856 <vbuf_printf+0x118>
    3880:	00170693          	addi	a3,a4,1
    3884:	00dba423          	sw	a3,8(s7)
    3888:	97ba                	add	a5,a5,a4
    388a:	00a78023          	sb	a0,0(a5)
    388e:	00044503          	lbu	a0,0(s0)
    3892:	f569                	bnez	a0,385c <vbuf_printf+0x11e>
    3894:	8c22                	mv	s8,s0
    3896:	8562                	mv	a0,s8
    3898:	246d                	jal	3b42 <strlen>
    389a:	ce2a                	sw	a0,28(sp)
    389c:	842a                	mv	s0,a0
    389e:	f60d0fe3          	beqz	s10,381c <vbuf_printf+0xde>
    38a2:	f60d8de3          	beqz	s11,381c <vbuf_printf+0xde>
    38a6:	5c02                	lw	s8,32(sp)
    38a8:	f7845ae3          	bge	s0,s8,381c <vbuf_printf+0xde>
    38ac:	02814c83          	lbu	s9,40(sp)
    38b0:	a031                	j	38bc <vbuf_printf+0x17e>
    38b2:	8566                	mv	a0,s9
    38b4:	9782                	jalr	a5
    38b6:	0405                	addi	s0,s0,1
    38b8:	f68c02e3          	beq	s8,s0,381c <vbuf_printf+0xde>
    38bc:	000ba783          	lw	a5,0(s7)
    38c0:	fbed                	bnez	a5,38b2 <vbuf_printf+0x174>
    38c2:	004ba783          	lw	a5,4(s7)
    38c6:	dbe5                	beqz	a5,38b6 <vbuf_printf+0x178>
    38c8:	008ba703          	lw	a4,8(s7)
    38cc:	00cba683          	lw	a3,12(s7)
    38d0:	fed753e3          	bge	a4,a3,38b6 <vbuf_printf+0x178>
    38d4:	00170693          	addi	a3,a4,1
    38d8:	00dba423          	sw	a3,8(s7)
    38dc:	97ba                	add	a5,a5,a4
    38de:	01978023          	sb	s9,0(a5)
    38e2:	bfd1                	j	38b6 <vbuf_printf+0x178>
    38e4:	060c8363          	beqz	s9,394a <vbuf_printf+0x20c>
    38e8:	4601                	li	a2,0
    38ea:	45a5                	li	a1,9
    38ec:	0014c783          	lbu	a5,1(s1)
    38f0:	00261693          	slli	a3,a2,0x2
    38f4:	96b2                	add	a3,a3,a2
    38f6:	0686                	slli	a3,a3,0x1
    38f8:	00d70633          	add	a2,a4,a3
    38fc:	fd078713          	addi	a4,a5,-48
    3900:	0ff77793          	zext.b	a5,a4
    3904:	8426                	mv	s0,s1
    3906:	0485                	addi	s1,s1,1
    3908:	fef5f2e3          	bgeu	a1,a5,38ec <vbuf_printf+0x1ae>
    390c:	d232                	sw	a2,36(sp)
    390e:	b5d1                	j	37d2 <vbuf_printf+0x94>
    3910:	fdb78713          	addi	a4,a5,-37
    3914:	0ff77713          	zext.b	a4,a4
    3918:	05300693          	li	a3,83
    391c:	e6e6eae3          	bltu	a3,a4,3790 <vbuf_printf+0x52>
    3920:	070a                	slli	a4,a4,0x2
    3922:	9756                	add	a4,a4,s5
    3924:	4318                	lw	a4,0(a4)
    3926:	8702                	jr	a4
    3928:	4785                	li	a5,1
    392a:	da3e                	sw	a5,52(sp)
    392c:	8426                	mv	s0,s1
    392e:	b555                	j	37d2 <vbuf_printf+0x94>
    3930:	000ba783          	lw	a5,0(s7)
    3934:	cfcd                	beqz	a5,39ee <vbuf_printf+0x2b0>
    3936:	02500513          	li	a0,37
    393a:	9782                	jalr	a5
    393c:	0014c783          	lbu	a5,1(s1)
    3940:	00148413          	addi	s0,s1,1
    3944:	e2079be3          	bnez	a5,377a <vbuf_printf+0x3c>
    3948:	bd89                	j	379a <vbuf_printf+0x5c>
    394a:	03000693          	li	a3,48
    394e:	00d79463          	bne	a5,a3,3956 <vbuf_printf+0x218>
    3952:	02f10423          	sb	a5,40(sp)
    3956:	4601                	li	a2,0
    3958:	45a5                	li	a1,9
    395a:	0014c783          	lbu	a5,1(s1)
    395e:	00261693          	slli	a3,a2,0x2
    3962:	96b2                	add	a3,a3,a2
    3964:	0686                	slli	a3,a3,0x1
    3966:	00d70633          	add	a2,a4,a3
    396a:	fd078713          	addi	a4,a5,-48
    396e:	0ff77793          	zext.b	a5,a4
    3972:	8426                	mv	s0,s1
    3974:	0485                	addi	s1,s1,1
    3976:	fef5f2e3          	bgeu	a1,a5,395a <vbuf_printf+0x21c>
    397a:	4785                	li	a5,1
    397c:	d032                	sw	a2,32(sp)
    397e:	d63e                	sw	a5,44(sp)
    3980:	bd89                	j	37d2 <vbuf_printf+0x94>
    3982:	004ba703          	lw	a4,4(s7)
    3986:	e00704e3          	beqz	a4,378e <vbuf_printf+0x50>
    398a:	008ba683          	lw	a3,8(s7)
    398e:	00cba603          	lw	a2,12(s7)
    3992:	dec6dee3          	bge	a3,a2,378e <vbuf_printf+0x50>
    3996:	00168613          	addi	a2,a3,1
    399a:	00cba423          	sw	a2,8(s7)
    399e:	9736                	add	a4,a4,a3
    39a0:	00f70023          	sb	a5,0(a4)
    39a4:	84a2                	mv	s1,s0
    39a6:	b3ed                	j	3790 <vbuf_printf+0x52>
    39a8:	080d9a63          	bnez	s11,3a3c <vbuf_printf+0x2fe>
    39ac:	5c82                	lw	s9,32(sp)
    39ae:	e99559e3          	bge	a0,s9,3840 <vbuf_printf+0x102>
    39b2:	02814783          	lbu	a5,40(sp)
    39b6:	c63e                	sw	a5,12(sp)
    39b8:	a031                	j	39c4 <vbuf_printf+0x286>
    39ba:	4532                	lw	a0,12(sp)
    39bc:	9782                	jalr	a5
    39be:	0405                	addi	s0,s0,1
    39c0:	0c8c8f63          	beq	s9,s0,3a9e <vbuf_printf+0x360>
    39c4:	000ba783          	lw	a5,0(s7)
    39c8:	fbed                	bnez	a5,39ba <vbuf_printf+0x27c>
    39ca:	004ba783          	lw	a5,4(s7)
    39ce:	dbe5                	beqz	a5,39be <vbuf_printf+0x280>
    39d0:	008ba683          	lw	a3,8(s7)
    39d4:	00cba603          	lw	a2,12(s7)
    39d8:	fec6d3e3          	bge	a3,a2,39be <vbuf_printf+0x280>
    39dc:	4732                	lw	a4,12(sp)
    39de:	00168613          	addi	a2,a3,1
    39e2:	00cba423          	sw	a2,8(s7)
    39e6:	97b6                	add	a5,a5,a3
    39e8:	00e78023          	sb	a4,0(a5)
    39ec:	bfc9                	j	39be <vbuf_printf+0x280>
    39ee:	004ba783          	lw	a5,4(s7)
    39f2:	d8078fe3          	beqz	a5,3790 <vbuf_printf+0x52>
    39f6:	008ba703          	lw	a4,8(s7)
    39fa:	00cba683          	lw	a3,12(s7)
    39fe:	d8d759e3          	bge	a4,a3,3790 <vbuf_printf+0x52>
    3a02:	00170693          	addi	a3,a4,1
    3a06:	97ba                	add	a5,a5,a4
    3a08:	00dba423          	sw	a3,8(s7)
    3a0c:	02500713          	li	a4,37
    3a10:	00e78023          	sb	a4,0(a5)
    3a14:	bbb5                	j	3790 <vbuf_printf+0x52>
    3a16:	004ba783          	lw	a5,4(s7)
    3a1a:	e00781e3          	beqz	a5,381c <vbuf_printf+0xde>
    3a1e:	008ba703          	lw	a4,8(s7)
    3a22:	00cba683          	lw	a3,12(s7)
    3a26:	ded75be3          	bge	a4,a3,381c <vbuf_printf+0xde>
    3a2a:	00170693          	addi	a3,a4,1
    3a2e:	00dba423          	sw	a3,8(s7)
    3a32:	97ba                	add	a5,a5,a4
    3a34:	00a78023          	sb	a0,0(a5)
    3a38:	0911                	addi	s2,s2,4
    3a3a:	b3d5                	j	381e <vbuf_printf+0xe0>
    3a3c:	000c4503          	lbu	a0,0(s8)
    3a40:	e00513e3          	bnez	a0,3846 <vbuf_printf+0x108>
    3a44:	843e                	mv	s0,a5
    3a46:	b585                	j	38a6 <vbuf_printf+0x168>
    3a48:	00092583          	lw	a1,0(s2)
    3a4c:	47a1                	li	a5,8
    3a4e:	00490413          	addi	s0,s2,4
    3a52:	0874                	addi	a3,sp,28
    3a54:	4641                	li	a2,16
    3a56:	855e                	mv	a0,s7
    3a58:	de3e                	sw	a5,60(sp)
    3a5a:	8922                	mv	s2,s0
    3a5c:	ad1ff0ef          	jal	ra,352c <outnum>
    3a60:	0014c783          	lbu	a5,1(s1)
    3a64:	00148413          	addi	s0,s1,1
    3a68:	d00799e3          	bnez	a5,377a <vbuf_printf+0x3c>
    3a6c:	b33d                	j	379a <vbuf_printf+0x5c>
    3a6e:	4785                	li	a5,1
    3a70:	d83e                	sw	a5,48(sp)
    3a72:	00092583          	lw	a1,0(s2)
    3a76:	00490413          	addi	s0,s2,4
    3a7a:	0874                	addi	a3,sp,28
    3a7c:	4629                	li	a2,10
    3a7e:	855e                	mv	a0,s7
    3a80:	aadff0ef          	jal	ra,352c <outnum>
    3a84:	8922                	mv	s2,s0
    3a86:	bfe9                	j	3a60 <vbuf_printf+0x322>
    3a88:	8426                	mv	s0,s1
    3a8a:	b3a1                	j	37d2 <vbuf_printf+0x94>
    3a8c:	000ba703          	lw	a4,0(s7)
    3a90:	c31d                	beqz	a4,3ab6 <vbuf_printf+0x378>
    3a92:	853e                	mv	a0,a5
    3a94:	9702                	jalr	a4
    3a96:	0409                	addi	s0,s0,2
    3a98:	bb2d                	j	37d2 <vbuf_printf+0x94>
    3a9a:	4501                	li	a0,0
    3a9c:	8082                	ret
    3a9e:	000c4503          	lbu	a0,0(s8)
    3aa2:	da0512e3          	bnez	a0,3846 <vbuf_printf+0x108>
    3aa6:	8562                	mv	a0,s8
    3aa8:	2869                	jal	3b42 <strlen>
    3aaa:	ce2a                	sw	a0,28(sp)
    3aac:	0911                	addi	s2,s2,4
    3aae:	bb85                	j	381e <vbuf_printf+0xe0>
    3ab0:	8426                	mv	s0,s1
    3ab2:	4c85                	li	s9,1
    3ab4:	bb39                	j	37d2 <vbuf_printf+0x94>
    3ab6:	004ba703          	lw	a4,4(s7)
    3aba:	df71                	beqz	a4,3a96 <vbuf_printf+0x358>
    3abc:	008ba683          	lw	a3,8(s7)
    3ac0:	00cba603          	lw	a2,12(s7)
    3ac4:	fcc6d9e3          	bge	a3,a2,3a96 <vbuf_printf+0x358>
    3ac8:	00168613          	addi	a2,a3,1
    3acc:	00cba423          	sw	a2,8(s7)
    3ad0:	9736                	add	a4,a4,a3
    3ad2:	00f70023          	sb	a5,0(a4)
    3ad6:	0409                	addi	s0,s0,2
    3ad8:	b9ed                	j	37d2 <vbuf_printf+0x94>

00003ada <sprintf>:
    3ada:	715d                	addi	sp,sp,-80
    3adc:	03810313          	addi	t1,sp,56
    3ae0:	8e2a                	mv	t3,a0
    3ae2:	dc32                	sw	a2,56(sp)
    3ae4:	c2be                	sw	a5,68(sp)
    3ae6:	0808                	addi	a0,sp,16
    3ae8:	67a1                	lui	a5,0x8
    3aea:	861a                	mv	a2,t1
    3aec:	d606                	sw	ra,44(sp)
    3aee:	ce3e                	sw	a5,28(sp)
    3af0:	de36                	sw	a3,60(sp)
    3af2:	c0ba                	sw	a4,64(sp)
    3af4:	c4c2                	sw	a6,72(sp)
    3af6:	c6c6                	sw	a7,76(sp)
    3af8:	c61a                	sw	t1,12(sp)
    3afa:	c802                	sw	zero,16(sp)
    3afc:	ca72                	sw	t3,20(sp)
    3afe:	cc02                	sw	zero,24(sp)
    3b00:	c3fff0ef          	jal	ra,373e <vbuf_printf>
    3b04:	4562                	lw	a0,24(sp)
    3b06:	47d2                	lw	a5,20(sp)
    3b08:	97aa                	add	a5,a5,a0
    3b0a:	00078023          	sb	zero,0(a5) # 8000 <MEM_SIZE>
    3b0e:	50b2                	lw	ra,44(sp)
    3b10:	6161                	addi	sp,sp,80
    3b12:	8082                	ret

00003b14 <sscanf>:
    3b14:	7139                	addi	sp,sp,-64
    3b16:	cc22                	sw	s0,24(sp)
    3b18:	d432                	sw	a2,40(sp)
    3b1a:	842e                	mv	s0,a1
    3b1c:	4601                	li	a2,0
    3b1e:	85aa                	mv	a1,a0
    3b20:	0048                	addi	a0,sp,4
    3b22:	ce06                	sw	ra,28(sp)
    3b24:	d636                	sw	a3,44(sp)
    3b26:	d83a                	sw	a4,48(sp)
    3b28:	da3e                	sw	a5,52(sp)
    3b2a:	dc42                	sw	a6,56(sp)
    3b2c:	de46                	sw	a7,60(sp)
    3b2e:	28a5                	jal	3ba6 <stropen>
    3b30:	1030                	addi	a2,sp,40
    3b32:	85a2                	mv	a1,s0
    3b34:	0048                	addi	a0,sp,4
    3b36:	c032                	sw	a2,0(sp)
    3b38:	2855                	jal	3bec <stream_vscanf>
    3b3a:	40f2                	lw	ra,28(sp)
    3b3c:	4462                	lw	s0,24(sp)
    3b3e:	6121                	addi	sp,sp,64
    3b40:	8082                	ret

00003b42 <strlen>:
    3b42:	00054783          	lbu	a5,0(a0)
    3b46:	cb89                	beqz	a5,3b58 <strlen+0x16>
    3b48:	87aa                	mv	a5,a0
    3b4a:	0017c703          	lbu	a4,1(a5)
    3b4e:	0785                	addi	a5,a5,1
    3b50:	ff6d                	bnez	a4,3b4a <strlen+0x8>
    3b52:	40a78533          	sub	a0,a5,a0
    3b56:	8082                	ret
    3b58:	4501                	li	a0,0
    3b5a:	8082                	ret

00003b5c <buf_getchar>:
    3b5c:	4158                	lw	a4,4(a0)
    3b5e:	00074783          	lbu	a5,0(a4)
    3b62:	c789                	beqz	a5,3b6c <buf_getchar+0x10>
    3b64:	0705                	addi	a4,a4,1
    3b66:	c158                	sw	a4,4(a0)
    3b68:	853e                	mv	a0,a5
    3b6a:	8082                	ret
    3b6c:	4501                	li	a0,0
    3b6e:	8082                	ret

00003b70 <buf_peekchar>:
    3b70:	415c                	lw	a5,4(a0)
    3b72:	0007c503          	lbu	a0,0(a5)
    3b76:	c111                	beqz	a0,3b7a <buf_peekchar+0xa>
    3b78:	8082                	ret
    3b7a:	557d                	li	a0,-1
    3b7c:	8082                	ret

00003b7e <buf_feof>:
    3b7e:	415c                	lw	a5,4(a0)
    3b80:	0007c503          	lbu	a0,0(a5)
    3b84:	00153513          	seqz	a0,a0
    3b88:	8082                	ret

00003b8a <buf_putchar>:
    3b8a:	4518                	lw	a4,8(a0)
    3b8c:	4785                	li	a5,1
    3b8e:	00e7db63          	bge	a5,a4,3ba4 <buf_putchar+0x1a>
    3b92:	415c                	lw	a5,4(a0)
    3b94:	00178713          	addi	a4,a5,1
    3b98:	c158                	sw	a4,4(a0)
    3b9a:	00b78023          	sb	a1,0(a5)
    3b9e:	451c                	lw	a5,8(a0)
    3ba0:	17fd                	addi	a5,a5,-1
    3ba2:	c51c                	sw	a5,8(a0)
    3ba4:	8082                	ret

00003ba6 <stropen>:
    3ba6:	6715                	lui	a4,0x5
    3ba8:	fe870713          	addi	a4,a4,-24 # 4fe8 <buf_interface>
    3bac:	c118                	sw	a4,0(a0)
    3bae:	c14c                	sw	a1,4(a0)
    3bb0:	c510                	sw	a2,8(a0)
    3bb2:	8082                	ret

00003bb4 <strstr>:
    3bb4:	0005c803          	lbu	a6,0(a1)
    3bb8:	00080c63          	beqz	a6,3bd0 <strstr+0x1c>
    3bbc:	00054783          	lbu	a5,0(a0)
    3bc0:	c799                	beqz	a5,3bce <strstr+0x1a>
    3bc2:	00f80863          	beq	a6,a5,3bd2 <strstr+0x1e>
    3bc6:	00154783          	lbu	a5,1(a0)
    3bca:	0505                	addi	a0,a0,1
    3bcc:	fbfd                	bnez	a5,3bc2 <strstr+0xe>
    3bce:	4501                	li	a0,0
    3bd0:	8082                	ret
    3bd2:	87ae                	mv	a5,a1
    3bd4:	872a                	mv	a4,a0
    3bd6:	a029                	j	3be0 <strstr+0x2c>
    3bd8:	fff74603          	lbu	a2,-1(a4)
    3bdc:	fed615e3          	bne	a2,a3,3bc6 <strstr+0x12>
    3be0:	0007c683          	lbu	a3,0(a5)
    3be4:	0705                	addi	a4,a4,1
    3be6:	0785                	addi	a5,a5,1
    3be8:	fae5                	bnez	a3,3bd8 <strstr+0x24>
    3bea:	8082                	ret

00003bec <stream_vscanf>:
    3bec:	711d                	addi	sp,sp,-96
    3bee:	caa6                	sw	s1,84(sp)
    3bf0:	c8ca                	sw	s2,80(sp)
    3bf2:	c6ce                	sw	s3,76(sp)
    3bf4:	c2d6                	sw	s5,68(sp)
    3bf6:	d66e                	sw	s11,44(sp)
    3bf8:	ce86                	sw	ra,92(sp)
    3bfa:	cca2                	sw	s0,88(sp)
    3bfc:	c4d2                	sw	s4,72(sp)
    3bfe:	c0da                	sw	s6,64(sp)
    3c00:	de5e                	sw	s7,60(sp)
    3c02:	dc62                	sw	s8,56(sp)
    3c04:	da66                	sw	s9,52(sp)
    3c06:	d86a                	sw	s10,48(sp)
    3c08:	8daa                	mv	s11,a0
    3c0a:	89b2                	mv	s3,a2
    3c0c:	c802                	sw	zero,16(sp)
    3c0e:	c602                	sw	zero,12(sp)
    3c10:	02000493          	li	s1,32
    3c14:	4905                	li	s2,1
    3c16:	02500a93          	li	s5,37
    3c1a:	0005cd03          	lbu	s10,0(a1)
    3c1e:	00158413          	addi	s0,a1,1
    3c22:	029d0b63          	beq	s10,s1,3c58 <stream_vscanf+0x6c>
    3c26:	09a4e363          	bltu	s1,s10,3cac <stream_vscanf+0xc0>
    3c2a:	040d1963          	bnez	s10,3c7c <stream_vscanf+0x90>
    3c2e:	40f6                	lw	ra,92(sp)
    3c30:	4466                	lw	s0,88(sp)
    3c32:	4532                	lw	a0,12(sp)
    3c34:	44d6                	lw	s1,84(sp)
    3c36:	4946                	lw	s2,80(sp)
    3c38:	49b6                	lw	s3,76(sp)
    3c3a:	4a26                	lw	s4,72(sp)
    3c3c:	4a96                	lw	s5,68(sp)
    3c3e:	4b06                	lw	s6,64(sp)
    3c40:	5bf2                	lw	s7,60(sp)
    3c42:	5c62                	lw	s8,56(sp)
    3c44:	5cd2                	lw	s9,52(sp)
    3c46:	5d42                	lw	s10,48(sp)
    3c48:	5db2                	lw	s11,44(sp)
    3c4a:	6125                	addi	sp,sp,96
    3c4c:	8082                	ret
    3c4e:	000da703          	lw	a4,0(s11)
    3c52:	856e                	mv	a0,s11
    3c54:	4358                	lw	a4,4(a4)
    3c56:	9702                	jalr	a4
    3c58:	000da703          	lw	a4,0(s11)
    3c5c:	856e                	mv	a0,s11
    3c5e:	4718                	lw	a4,8(a4)
    3c60:	9702                	jalr	a4
    3c62:	00054b63          	bltz	a0,3c78 <stream_vscanf+0x8c>
    3c66:	0ff57513          	zext.b	a0,a0
    3c6a:	fe9502e3          	beq	a0,s1,3c4e <stream_vscanf+0x62>
    3c6e:	155d                	addi	a0,a0,-9
    3c70:	0ff57513          	zext.b	a0,a0
    3c74:	fca97de3          	bgeu	s2,a0,3c4e <stream_vscanf+0x62>
    3c78:	85a2                	mv	a1,s0
    3c7a:	b745                	j	3c1a <stream_vscanf+0x2e>
    3c7c:	ff7d0693          	addi	a3,s10,-9
    3c80:	0ff6f693          	zext.b	a3,a3
    3c84:	fcd97ae3          	bgeu	s2,a3,3c58 <stream_vscanf+0x6c>
    3c88:	000da683          	lw	a3,0(s11)
    3c8c:	856e                	mv	a0,s11
    3c8e:	4694                	lw	a3,8(a3)
    3c90:	9682                	jalr	a3
    3c92:	3c054763          	bltz	a0,4060 <stream_vscanf+0x474>
    3c96:	0ff57513          	zext.b	a0,a0
    3c9a:	f9a51ae3          	bne	a0,s10,3c2e <stream_vscanf+0x42>
    3c9e:	000da703          	lw	a4,0(s11)
    3ca2:	856e                	mv	a0,s11
    3ca4:	4358                	lw	a4,4(a4)
    3ca6:	9702                	jalr	a4
    3ca8:	85a2                	mv	a1,s0
    3caa:	bf85                	j	3c1a <stream_vscanf+0x2e>
    3cac:	fd5d1ee3          	bne	s10,s5,3c88 <stream_vscanf+0x9c>
    3cb0:	0015cd03          	lbu	s10,1(a1)
    3cb4:	00258413          	addi	s0,a1,2
    3cb8:	fd5d08e3          	beq	s10,s5,3c88 <stream_vscanf+0x9c>
    3cbc:	02a00693          	li	a3,42
    3cc0:	0add0e63          	beq	s10,a3,3d7c <stream_vscanf+0x190>
    3cc4:	0009a783          	lw	a5,0(s3)
    3cc8:	ca3e                	sw	a5,20(sp)
    3cca:	00498793          	addi	a5,s3,4
    3cce:	cc3e                	sw	a5,24(sp)
    3cd0:	fd0d0693          	addi	a3,s10,-48
    3cd4:	0ff6f693          	zext.b	a3,a3
    3cd8:	4625                	li	a2,9
    3cda:	08d66563          	bltu	a2,a3,3d64 <stream_vscanf+0x178>
    3cde:	4c01                	li	s8,0
    3ce0:	45a5                	li	a1,9
    3ce2:	002c1693          	slli	a3,s8,0x2
    3ce6:	96e2                	add	a3,a3,s8
    3ce8:	0686                	slli	a3,a3,0x1
    3cea:	0405                	addi	s0,s0,1
    3cec:	96ea                	add	a3,a3,s10
    3cee:	fff44d03          	lbu	s10,-1(s0)
    3cf2:	fd068693          	addi	a3,a3,-48
    3cf6:	01069c13          	slli	s8,a3,0x10
    3cfa:	fd0d0693          	addi	a3,s10,-48
    3cfe:	0ff6f693          	zext.b	a3,a3
    3d02:	010c5c13          	srli	s8,s8,0x10
    3d06:	fcd5fee3          	bgeu	a1,a3,3ce2 <stream_vscanf+0xf6>
    3d0a:	040c0d63          	beqz	s8,3d64 <stream_vscanf+0x178>
    3d0e:	06800693          	li	a3,104
    3d12:	06dd0063          	beq	s10,a3,3d72 <stream_vscanf+0x186>
    3d16:	05b00693          	li	a3,91
    3d1a:	4b05                	li	s6,1
    3d1c:	06dd0763          	beq	s10,a3,3d8a <stream_vscanf+0x19e>
    3d20:	340d0063          	beqz	s10,4060 <stream_vscanf+0x474>
    3d24:	fa5d0693          	addi	a3,s10,-91
    3d28:	0ff6f693          	zext.b	a3,a3
    3d2c:	45f5                	li	a1,29
    3d2e:	02d5e063          	bltu	a1,a3,3d4e <stream_vscanf+0x162>
    3d32:	6595                	lui	a1,0x5
    3d34:	068a                	slli	a3,a3,0x2
    3d36:	a5858593          	addi	a1,a1,-1448 # 4a58 <stream_vscanf+0xe6c>
    3d3a:	96ae                	add	a3,a3,a1
    3d3c:	4294                	lw	a3,0(a3)
    3d3e:	8682                	jr	a3
    3d40:	02000593          	li	a1,32
    3d44:	0cbc9c63          	bne	s9,a1,3e1c <stream_vscanf+0x230>
    3d48:	47d2                	lw	a5,20(sp)
    3d4a:	29379b63          	bne	a5,s3,3fe0 <stream_vscanf+0x3f4>
    3d4e:	000da703          	lw	a4,0(s11)
    3d52:	4b18                	lw	a4,16(a4)
    3d54:	c709                	beqz	a4,3d5e <stream_vscanf+0x172>
    3d56:	856e                	mv	a0,s11
    3d58:	9702                	jalr	a4
    3d5a:	30051063          	bnez	a0,405a <stream_vscanf+0x46e>
    3d5e:	49e2                	lw	s3,24(sp)
    3d60:	85a2                	mv	a1,s0
    3d62:	bd65                	j	3c1a <stream_vscanf+0x2e>
    3d64:	661d                	lui	a2,0x7
    3d66:	06800693          	li	a3,104
    3d6a:	53060c13          	addi	s8,a2,1328 # 7530 <sector_buffer1+0x518>
    3d6e:	fadd14e3          	bne	s10,a3,3d16 <stream_vscanf+0x12a>
    3d72:	00044d03          	lbu	s10,0(s0)
    3d76:	4b01                	li	s6,0
    3d78:	0405                	addi	s0,s0,1
    3d7a:	b75d                	j	3d20 <stream_vscanf+0x134>
    3d7c:	0025cd03          	lbu	s10,2(a1)
    3d80:	00358413          	addi	s0,a1,3
    3d84:	cc4e                	sw	s3,24(sp)
    3d86:	ca02                	sw	zero,20(sp)
    3d88:	b7a1                	j	3cd0 <stream_vscanf+0xe4>
    3d8a:	00044583          	lbu	a1,0(s0)
    3d8e:	05e00513          	li	a0,94
    3d92:	86a2                	mv	a3,s0
    3d94:	2aa58e63          	beq	a1,a0,4050 <stream_vscanf+0x464>
    3d98:	c989                	beqz	a1,3daa <stream_vscanf+0x1be>
    3d9a:	05d00513          	li	a0,93
    3d9e:	2ea58c63          	beq	a1,a0,4096 <stream_vscanf+0x4aa>
    3da2:	0016c583          	lbu	a1,1(a3)
    3da6:	0685                	addi	a3,a3,1
    3da8:	f9fd                	bnez	a1,3d9e <stream_vscanf+0x1b2>
    3daa:	c822                	sw	s0,16(sp)
    3dac:	8436                	mv	s0,a3
    3dae:	4c81                	li	s9,0
    3db0:	07300993          	li	s3,115
    3db4:	4ba9                	li	s7,10
    3db6:	02000b13          	li	s6,32
    3dba:	4a25                	li	s4,9
    3dbc:	000da583          	lw	a1,0(s11)
    3dc0:	0105a803          	lw	a6,16(a1)
    3dc4:	00080763          	beqz	a6,3dd2 <stream_vscanf+0x1e6>
    3dc8:	856e                	mv	a0,s11
    3dca:	9802                	jalr	a6
    3dcc:	e105                	bnez	a0,3dec <stream_vscanf+0x200>
    3dce:	000da583          	lw	a1,0(s11)
    3dd2:	41d4                	lw	a3,4(a1)
    3dd4:	856e                	mv	a0,s11
    3dd6:	9682                	jalr	a3
    3dd8:	0ff57c93          	zext.b	s9,a0
    3ddc:	013d1863          	bne	s10,s3,3dec <stream_vscanf+0x200>
    3de0:	fd7c8ee3          	beq	s9,s7,3dbc <stream_vscanf+0x1d0>
    3de4:	fd6c8ce3          	beq	s9,s6,3dbc <stream_vscanf+0x1d0>
    3de8:	fd4c8ae3          	beq	s9,s4,3dbc <stream_vscanf+0x1d0>
    3dec:	47c2                	lw	a5,16(sp)
    3dee:	49d2                	lw	s3,20(sp)
    3df0:	07300b93          	li	s7,115
    3df4:	0785                	addi	a5,a5,1
    3df6:	02d00b13          	li	s6,45
    3dfa:	05d00a13          	li	s4,93
    3dfe:	ce3e                	sw	a5,28(sp)
    3e00:	000da583          	lw	a1,0(s11)
    3e04:	498c                	lw	a1,16(a1)
    3e06:	c589                	beqz	a1,3e10 <stream_vscanf+0x224>
    3e08:	856e                	mv	a0,s11
    3e0a:	9582                	jalr	a1
    3e0c:	1c051363          	bnez	a0,3fd2 <stream_vscanf+0x3e6>
    3e10:	1b7d0a63          	beq	s10,s7,3fc4 <stream_vscanf+0x3d8>
    3e14:	05b00793          	li	a5,91
    3e18:	02fd0763          	beq	s10,a5,3e46 <stream_vscanf+0x25a>
    3e1c:	00098563          	beqz	s3,3e26 <stream_vscanf+0x23a>
    3e20:	01998023          	sb	s9,0(s3)
    3e24:	0985                	addi	s3,s3,1
    3e26:	fffc0613          	addi	a2,s8,-1
    3e2a:	01061c13          	slli	s8,a2,0x10
    3e2e:	010c5c13          	srli	s8,s8,0x10
    3e32:	1a0c0063          	beqz	s8,3fd2 <stream_vscanf+0x3e6>
    3e36:	000da683          	lw	a3,0(s11)
    3e3a:	856e                	mv	a0,s11
    3e3c:	42d4                	lw	a3,4(a3)
    3e3e:	9682                	jalr	a3
    3e40:	0ff57c93          	zext.b	s9,a0
    3e44:	bf75                	j	3e00 <stream_vscanf+0x214>
    3e46:	47c2                	lw	a5,16(sp)
    3e48:	0007c803          	lbu	a6,0(a5)
    3e4c:	05e00793          	li	a5,94
    3e50:	1af80163          	beq	a6,a5,3ff2 <stream_vscanf+0x406>
    3e54:	ef480ae3          	beq	a6,s4,3d48 <stream_vscanf+0x15c>
    3e58:	4572                	lw	a0,28(sp)
    3e5a:	4e81                	li	t4,0
    3e5c:	ee0806e3          	beqz	a6,3d48 <stream_vscanf+0x15c>
    3e60:	00054583          	lbu	a1,0(a0)
    3e64:	00150893          	addi	a7,a0,1
    3e68:	8342                	mv	t1,a6
    3e6a:	03658163          	beq	a1,s6,3e8c <stream_vscanf+0x2a0>
    3e6e:	046cfc63          	bgeu	s9,t1,3ec6 <stream_vscanf+0x2da>
    3e72:	05458e63          	beq	a1,s4,3ece <stream_vscanf+0x2e2>
    3e76:	ec0589e3          	beqz	a1,3d48 <stream_vscanf+0x15c>
    3e7a:	8546                	mv	a0,a7
    3e7c:	882e                	mv	a6,a1
    3e7e:	00054583          	lbu	a1,0(a0)
    3e82:	00150893          	addi	a7,a0,1
    3e86:	8342                	mv	t1,a6
    3e88:	ff6593e3          	bne	a1,s6,3e6e <stream_vscanf+0x282>
    3e8c:	00154e03          	lbu	t3,1(a0)
    3e90:	014e0d63          	beq	t3,s4,3eaa <stream_vscanf+0x2be>
    3e94:	ea0e0ae3          	beqz	t3,3d48 <stream_vscanf+0x15c>
    3e98:	8342                	mv	t1,a6
    3e9a:	00254583          	lbu	a1,2(a0)
    3e9e:	00350893          	addi	a7,a0,3
    3ea2:	8872                	mv	a6,t3
    3ea4:	fc6ce7e3          	bltu	s9,t1,3e72 <stream_vscanf+0x286>
    3ea8:	a839                	j	3ec6 <stream_vscanf+0x2da>
    3eaa:	fd0ce8e3          	bltu	s9,a6,3e7a <stream_vscanf+0x28e>
    3eae:	019a7e63          	bgeu	s4,s9,3eca <stream_vscanf+0x2de>
    3eb2:	0008c803          	lbu	a6,0(a7)
    3eb6:	00188313          	addi	t1,a7,1
    3eba:	15680763          	beq	a6,s6,4008 <stream_vscanf+0x41c>
    3ebe:	8542                	mv	a0,a6
    3ec0:	889a                	mv	a7,t1
    3ec2:	882e                	mv	a6,a1
    3ec4:	85aa                	mv	a1,a0
    3ec6:	fb9866e3          	bltu	a6,s9,3e72 <stream_vscanf+0x286>
    3eca:	001ece93          	xori	t4,t4,1
    3ece:	f40e97e3          	bnez	t4,3e1c <stream_vscanf+0x230>
    3ed2:	bd9d                	j	3d48 <stream_vscanf+0x15c>
    3ed4:	4a41                	li	s4,16
    3ed6:	02000993          	li	s3,32
    3eda:	4b85                	li	s7,1
    3edc:	000da703          	lw	a4,0(s11)
    3ee0:	856e                	mv	a0,s11
    3ee2:	4718                	lw	a4,8(a4)
    3ee4:	9702                	jalr	a4
    3ee6:	e60544e3          	bltz	a0,3d4e <stream_vscanf+0x162>
    3eea:	0ff57713          	zext.b	a4,a0
    3eee:	0d370563          	beq	a4,s3,3fb8 <stream_vscanf+0x3cc>
    3ef2:	175d                	addi	a4,a4,-9
    3ef4:	0ff77713          	zext.b	a4,a4
    3ef8:	0cebf063          	bgeu	s7,a4,3fb8 <stream_vscanf+0x3cc>
    3efc:	02d00713          	li	a4,45
    3f00:	10e50b63          	beq	a0,a4,4016 <stream_vscanf+0x42a>
    3f04:	02b00713          	li	a4,43
    3f08:	ce02                	sw	zero,28(sp)
    3f0a:	10e50863          	beq	a0,a4,401a <stream_vscanf+0x42e>
    3f0e:	fd050713          	addi	a4,a0,-48
    3f12:	46a5                	li	a3,9
    3f14:	00e6fc63          	bgeu	a3,a4,3f2c <stream_vscanf+0x340>
    3f18:	46c1                	li	a3,16
    3f1a:	e2da1ae3          	bne	s4,a3,3d4e <stream_vscanf+0x162>
    3f1e:	fdf57693          	andi	a3,a0,-33
    3f22:	fbf68693          	addi	a3,a3,-65
    3f26:	4595                	li	a1,5
    3f28:	e2d5e3e3          	bltu	a1,a3,3d4e <stream_vscanf+0x162>
    3f2c:	4ba5                	li	s7,9
    3f2e:	4981                	li	s3,0
    3f30:	4d41                	li	s10,16
    3f32:	4c95                	li	s9,5
    3f34:	04ebfc63          	bgeu	s7,a4,3f8c <stream_vscanf+0x3a0>
    3f38:	13aa1f63          	bne	s4,s10,4076 <stream_vscanf+0x48a>
    3f3c:	f9f50713          	addi	a4,a0,-97
    3f40:	12ecf363          	bgeu	s9,a4,4066 <stream_vscanf+0x47a>
    3f44:	fbf50713          	addi	a4,a0,-65
    3f48:	12ece763          	bltu	s9,a4,4076 <stream_vscanf+0x48a>
    3f4c:	47d2                	lw	a5,20(sp)
    3f4e:	c799                	beqz	a5,3f5c <stream_vscanf+0x370>
    3f50:	00499693          	slli	a3,s3,0x4
    3f54:	fc950713          	addi	a4,a0,-55
    3f58:	00d709b3          	add	s3,a4,a3
    3f5c:	000da703          	lw	a4,0(s11)
    3f60:	856e                	mv	a0,s11
    3f62:	4358                	lw	a4,4(a4)
    3f64:	9702                	jalr	a4
    3f66:	000da703          	lw	a4,0(s11)
    3f6a:	856e                	mv	a0,s11
    3f6c:	4718                	lw	a4,8(a4)
    3f6e:	9702                	jalr	a4
    3f70:	fffc0613          	addi	a2,s8,-1
    3f74:	01061c13          	slli	s8,a2,0x10
    3f78:	010c5c13          	srli	s8,s8,0x10
    3f7c:	0e054d63          	bltz	a0,4076 <stream_vscanf+0x48a>
    3f80:	0e0c0b63          	beqz	s8,4076 <stream_vscanf+0x48a>
    3f84:	fd050713          	addi	a4,a0,-48
    3f88:	faebe8e3          	bltu	s7,a4,3f38 <stream_vscanf+0x34c>
    3f8c:	47d2                	lw	a5,20(sp)
    3f8e:	d7f9                	beqz	a5,3f5c <stream_vscanf+0x370>
    3f90:	47a1                	li	a5,8
    3f92:	00399693          	slli	a3,s3,0x3
    3f96:	fcfa01e3          	beq	s4,a5,3f58 <stream_vscanf+0x36c>
    3f9a:	47a9                	li	a5,10
    3f9c:	10fa1463          	bne	s4,a5,40a4 <stream_vscanf+0x4b8>
    3fa0:	00299693          	slli	a3,s3,0x2
    3fa4:	96ce                	add	a3,a3,s3
    3fa6:	0686                	slli	a3,a3,0x1
    3fa8:	bf45                	j	3f58 <stream_vscanf+0x36c>
    3faa:	669d                	lui	a3,0x7
    3fac:	53068693          	addi	a3,a3,1328 # 7530 <sector_buffer1+0x518>
    3fb0:	dedc1fe3          	bne	s8,a3,3dae <stream_vscanf+0x1c2>
    3fb4:	4c05                	li	s8,1
    3fb6:	bbe5                	j	3dae <stream_vscanf+0x1c2>
    3fb8:	000da703          	lw	a4,0(s11)
    3fbc:	856e                	mv	a0,s11
    3fbe:	4358                	lw	a4,4(a4)
    3fc0:	9702                	jalr	a4
    3fc2:	bf29                	j	3edc <stream_vscanf+0x2f0>
    3fc4:	45a9                	li	a1,10
    3fc6:	d795ede3          	bltu	a1,s9,3d40 <stream_vscanf+0x154>
    3fca:	45a1                	li	a1,8
    3fcc:	e595f8e3          	bgeu	a1,s9,3e1c <stream_vscanf+0x230>
    3fd0:	bba5                	j	3d48 <stream_vscanf+0x15c>
    3fd2:	47d2                	lw	a5,20(sp)
    3fd4:	d7378de3          	beq	a5,s3,3d4e <stream_vscanf+0x162>
    3fd8:	06300693          	li	a3,99
    3fdc:	00dd0463          	beq	s10,a3,3fe4 <stream_vscanf+0x3f8>
    3fe0:	00098023          	sb	zero,0(s3)
    3fe4:	47d2                	lw	a5,20(sp)
    3fe6:	4732                	lw	a4,12(sp)
    3fe8:	00f037b3          	snez	a5,a5
    3fec:	97ba                	add	a5,a5,a4
    3fee:	c63e                	sw	a5,12(sp)
    3ff0:	bbb9                	j	3d4e <stream_vscanf+0x162>
    3ff2:	47c2                	lw	a5,16(sp)
    3ff4:	05d00593          	li	a1,93
    3ff8:	4e85                	li	t4,1
    3ffa:	0017c803          	lbu	a6,1(a5)
    3ffe:	00278513          	addi	a0,a5,2
    4002:	e4b81de3          	bne	a6,a1,3e5c <stream_vscanf+0x270>
    4006:	bd19                	j	3e1c <stream_vscanf+0x230>
    4008:	8546                	mv	a0,a7
    400a:	889a                	mv	a7,t1
    400c:	b541                	j	3e8c <stream_vscanf+0x2a0>
    400e:	4a21                	li	s4,8
    4010:	b5d9                	j	3ed6 <stream_vscanf+0x2ea>
    4012:	4a29                	li	s4,10
    4014:	b5c9                	j	3ed6 <stream_vscanf+0x2ea>
    4016:	4785                	li	a5,1
    4018:	ce3e                	sw	a5,28(sp)
    401a:	000da703          	lw	a4,0(s11)
    401e:	856e                	mv	a0,s11
    4020:	4358                	lw	a4,4(a4)
    4022:	9702                	jalr	a4
    4024:	fffc0613          	addi	a2,s8,-1
    4028:	01061c13          	slli	s8,a2,0x10
    402c:	010c5c13          	srli	s8,s8,0x10
    4030:	d00c0fe3          	beqz	s8,3d4e <stream_vscanf+0x162>
    4034:	000da703          	lw	a4,0(s11)
    4038:	4b14                	lw	a3,16(a4)
    403a:	c699                	beqz	a3,4048 <stream_vscanf+0x45c>
    403c:	856e                	mv	a0,s11
    403e:	9682                	jalr	a3
    4040:	d00517e3          	bnez	a0,3d4e <stream_vscanf+0x162>
    4044:	000da703          	lw	a4,0(s11)
    4048:	4718                	lw	a4,8(a4)
    404a:	856e                	mv	a0,s11
    404c:	9702                	jalr	a4
    404e:	b5c1                	j	3f0e <stream_vscanf+0x322>
    4050:	00144583          	lbu	a1,1(s0)
    4054:	00140693          	addi	a3,s0,1
    4058:	b381                	j	3d98 <stream_vscanf+0x1ac>
    405a:	47b2                	lw	a5,12(sp)
    405c:	bc0799e3          	bnez	a5,3c2e <stream_vscanf+0x42>
    4060:	57fd                	li	a5,-1
    4062:	c63e                	sw	a5,12(sp)
    4064:	b6e9                	j	3c2e <stream_vscanf+0x42>
    4066:	47d2                	lw	a5,20(sp)
    4068:	ee078ae3          	beqz	a5,3f5c <stream_vscanf+0x370>
    406c:	00499693          	slli	a3,s3,0x4
    4070:	fa950713          	addi	a4,a0,-87
    4074:	b5d5                	j	3f58 <stream_vscanf+0x36c>
    4076:	47d2                	lw	a5,20(sp)
    4078:	cc078be3          	beqz	a5,3d4e <stream_vscanf+0x162>
    407c:	47f2                	lw	a5,28(sp)
    407e:	c399                	beqz	a5,4084 <stream_vscanf+0x498>
    4080:	413009b3          	neg	s3,s3
    4084:	47d2                	lw	a5,20(sp)
    4086:	000b1c63          	bnez	s6,409e <stream_vscanf+0x4b2>
    408a:	01379023          	sh	s3,0(a5)
    408e:	47b2                	lw	a5,12(sp)
    4090:	0785                	addi	a5,a5,1
    4092:	c63e                	sw	a5,12(sp)
    4094:	b96d                	j	3d4e <stream_vscanf+0x162>
    4096:	c822                	sw	s0,16(sp)
    4098:	00168413          	addi	s0,a3,1
    409c:	bb09                	j	3dae <stream_vscanf+0x1c2>
    409e:	0137a023          	sw	s3,0(a5)
    40a2:	b7f5                	j	408e <stream_vscanf+0x4a2>
    40a4:	00499693          	slli	a3,s3,0x4
    40a8:	bd45                	j	3f58 <stream_vscanf+0x36c>
    40aa:	0000                	unimp
    40ac:	6572                	.2byte	0x6572
    40ae:	20746573          	csrrsi	a0,0x207,8
    40b2:	6425                	lui	s0,0x9
    40b4:	0a0d                	addi	s4,s4,3
    40b6:	0000                	unimp
    40b8:	72617473          	csrrci	s0,mhpmevent6h,2
    40bc:	6974                	.2byte	0x6974
    40be:	676e                	.2byte	0x676e
    40c0:	7420                	.2byte	0x7420
    40c2:	6568                	.2byte	0x6568
    40c4:	7220                	.2byte	0x7220
    40c6:	7365                	lui	t1,0xffff9
    40c8:	7465                	lui	s0,0xffff9
    40ca:	0a0d                	addi	s4,s4,3
    40cc:	0000                	unimp
    40ce:	0000                	unimp
    40d0:	5055                	c.li	zero,-11
    40d2:	4f4c                	lw	a1,28(a4)
    40d4:	4441                	li	s0,16
    40d6:	000a0d53          	.4byte	0xa0d53
    40da:	0000                	unimp
    40dc:	706d6f43          	.4byte	0x706d6f43
    40e0:	656c                	.2byte	0x656c
    40e2:	6574                	.2byte	0x6574
    40e4:	2064                	.2byte	0x2064
    40e6:	6874                	.2byte	0x6874
    40e8:	2065                	jal	4190 <stream_vscanf+0x5a4>
    40ea:	6572                	.2byte	0x6572
    40ec:	0d746573          	csrrsi	a0,0xd7,8
    40f0:	000a                	c.slli	zero,0x2
    40f2:	0000                	unimp
    40f4:	4952                	lw	s2,20(sp)
    40f6:	4d204353          	.4byte	0x4d204353
    40fa:	5550                	lw	a2,44(a0)
    40fc:	5320                	lw	s0,96(a4)
    40fe:	6174                	.2byte	0x6174
    4100:	7472                	.2byte	0x7472
    4102:	7075                	c.lui	zero,0xffffd
    4104:	6320                	.2byte	0x6320
    4106:	0d65726f          	jal	tp,5b1dc <_end+0x4e424>
    410a:	000a                	c.slli	zero,0x2
    410c:	61657243          	.4byte	0x61657243
    4110:	6574                	.2byte	0x6574
    4112:	2064                	.2byte	0x2064
    4114:	7942                	.2byte	0x7942
    4116:	4d20                	lw	s0,88(a0)
    4118:	7a61                	lui	s4,0xffff8
    411a:	6d61                	lui	s10,0x18
    411c:	7261                	lui	tp,0xffff8
    411e:	32313373          	csrrc	t1,mhpmevent3,sp
    4122:	0a0d                	addi	s4,s4,3 # ffff8003 <_end+0xfffeb24b>
    4124:	0000                	unimp
    4126:	0000                	unimp
    4128:	614d                	addi	sp,sp,176
    412a:	6920656b          	.4byte	0x6920656b
    412e:	206e                	.2byte	0x206e
    4130:	3032                	.2byte	0x3032
    4132:	3232                	.2byte	0x3232
    4134:	0a0d                	addi	s4,s4,3
    4136:	0000                	unimp
    4138:	2049                	jal	41ba <stream_vscanf+0x5ce>
    413a:	6168                	.2byte	0x6168
    413c:	6574                	.2byte	0x6574
    413e:	7420                	.2byte	0x7420
    4140:	6968                	.2byte	0x6968
    4142:	65642073          	csrs	0x656,s0
    4146:	7562                	.2byte	0x7562
    4148:	72656767          	.4byte	0x72656767
    414c:	4c20                	lw	s0,88(s0)
    414e:	0a0d4c4f          	.4byte	0xa0d4c4f
    4152:	0000                	unimp
    4154:	6261                	lui	tp,0x18
    4156:	2074756f          	jal	a0,4bb5c <_end+0x3eda4>
    415a:	6f74                	.2byte	0x6f74
    415c:	6720                	.2byte	0x6720
    415e:	6e69206f          	j	96844 <_end+0x89a8c>
    4162:	6220                	.2byte	0x6220
    4164:	6261                	lui	tp,0x18
    4166:	0d79                	addi	s10,s10,30 # 1801e <_end+0xb266>
    4168:	000a                	c.slli	zero,0x2
    416a:	0000                	unimp
    416c:	6144                	.2byte	0x6144
    416e:	6174                	.2byte	0x6174
    4170:	5320                	lw	s0,96(a4)
    4172:	6f6c                	.2byte	0x6f6c
    4174:	2074                	.2byte	0x2074
    4176:	7055                	c.lui	zero,0xffff5
    4178:	6164                	.2byte	0x6164
    417a:	6574                	.2byte	0x6574
    417c:	0a0d                	addi	s4,s4,3
    417e:	0000                	unimp
    4180:	6144                	.2byte	0x6144
    4182:	6174                	.2byte	0x6174
    4184:	5320                	lw	s0,96(a4)
    4186:	6f6c                	.2byte	0x6f6c
    4188:	2074                	.2byte	0x2074
    418a:	6f64                	.2byte	0x6f64
    418c:	656e                	.2byte	0x656e
    418e:	0a0d                	addi	s4,s4,3
    4190:	0000                	unimp
    4192:	0000                	unimp
    4194:	31335b1b          	.4byte	0x31335b1b
    4198:	343b313b          	.4byte	0x343b313b
    419c:	636d                	lui	t1,0x1b
    419e:	7361                	lui	t1,0xffff8
    41a0:	2065                	jal	4248 <stream_vscanf+0x65c>
    41a2:	6572                	.2byte	0x6572
    41a4:	1b746573          	csrrsi	a0,0x1b7,8
    41a8:	0d6d305b          	.4byte	0xd6d305b
    41ac:	000a                	c.slli	zero,0x2
    41ae:	0000                	unimp
    41b0:	38335b1b          	.4byte	0x38335b1b
    41b4:	353b313b          	.4byte	0x353b313b
    41b8:	63656843          	.4byte	0x63656843
    41bc:	6f63206b          	.4byte	0x6f63206b
    41c0:	6564                	.2byte	0x6564
    41c2:	30252073          	csrs	medeleg,a0
    41c6:	342e                	.2byte	0x342e
    41c8:	1b58                	addi	a4,sp,436
    41ca:	0d6d305b          	.4byte	0xd6d305b
    41ce:	000a                	c.slli	zero,0x2
    41d0:	5041                	c.li	zero,-16
    41d2:	2046                	.2byte	0x2046
    41d4:	6572                	.2byte	0x6572
    41d6:	6461                	lui	s0,0x18
    41d8:	203a                	.2byte	0x203a
    41da:	6425                	lui	s0,0x9
    41dc:	202c                	.2byte	0x202c
    41de:	3025                	jal	3a06 <vbuf_printf+0x2c8>
    41e0:	342e                	.2byte	0x342e
    41e2:	2c78                	.2byte	0x2c78
    41e4:	2520                	.2byte	0x2520
    41e6:	2e30                	.2byte	0x2e30
    41e8:	7834                	.2byte	0x7834
    41ea:	202c                	.2byte	0x202c
    41ec:	6425                	lui	s0,0x9
    41ee:	0a0d                	addi	s4,s4,3
    41f0:	0000                	unimp
    41f2:	0000                	unimp
    41f4:	36335b1b          	.4byte	0x36335b1b
    41f8:	343b353b          	.4byte	0x343b353b
    41fc:	416d                	li	sp,27
    41fe:	4650                	lw	a2,12(a2)
    4200:	4620                	lw	s0,72(a2)
    4202:	4941                	li	s2,16
    4204:	444c                	lw	a1,12(s0)
    4206:	6420                	.2byte	0x6420
    4208:	7461                	lui	s0,0xffff8
    420a:	7361                	lui	t1,0xffff8
    420c:	6f6c                	.2byte	0x6f6c
    420e:	5f74                	lw	a3,124(a4)
    4210:	6572                	.2byte	0x6572
    4212:	6461                	lui	s0,0x18
    4214:	6320                	.2byte	0x6320
    4216:	6568                	.2byte	0x6568
    4218:	203f6b63          	bltu	t5,gp,442e <stream_vscanf+0x842>
    421c:	6164                	.2byte	0x6164
    421e:	6174                	.2byte	0x6174
    4220:	746f6c73          	csrrsi	s8,0x746,30
    4224:	2520                	.2byte	0x2520
    4226:	2c64                	.2byte	0x2c64
    4228:	6120                	.2byte	0x6120
    422a:	6464                	.2byte	0x6464
    422c:	6572                	.2byte	0x6572
    422e:	25207373          	csrrci	t1,0x252,0
    4232:	2e30                	.2byte	0x2e30
    4234:	5834                	lw	a3,112(s0)
    4236:	202c                	.2byte	0x202c
    4238:	7366666f          	jal	a2,6a96e <_end+0x5dbb6>
    423c:	7465                	lui	s0,0xffff9
    423e:	3025                	jal	3a66 <vbuf_printf+0x328>
    4240:	342e                	.2byte	0x342e
    4242:	2c58                	.2byte	0x2c58
    4244:	6c20                	.2byte	0x6c20
    4246:	6e65                	lui	t3,0x19
    4248:	25687467          	.4byte	0x25687467
    424c:	2e30                	.2byte	0x2e30
    424e:	5834                	lw	a3,112(s0)
    4250:	6d305b1b          	.4byte	0x6d305b1b
    4254:	0a0d                	addi	s4,s4,3
    4256:	0000                	unimp
    4258:	36335b1b          	.4byte	0x36335b1b
    425c:	343b353b          	.4byte	0x343b353b
    4260:	416d                	li	sp,27
    4262:	4650                	lw	a2,12(a2)
    4264:	4620                	lw	s0,72(a2)
    4266:	4941                	li	s2,16
    4268:	444c                	lw	a1,12(s0)
    426a:	6420                	.2byte	0x6420
    426c:	7461                	lui	s0,0xffff8
    426e:	7361                	lui	t1,0xffff8
    4270:	6f6c                	.2byte	0x6f6c
    4272:	5f74                	lw	a3,124(a4)
    4274:	6572                	.2byte	0x6572
    4276:	6461                	lui	s0,0x18
    4278:	6420                	.2byte	0x6420
    427a:	3f656e6f          	jal	t3,5a670 <_end+0x4d8b8>
    427e:	6420                	.2byte	0x6420
    4280:	7461                	lui	s0,0xffff8
    4282:	7361                	lui	t1,0xffff8
    4284:	6f6c                	.2byte	0x6f6c
    4286:	2074                	.2byte	0x2074
    4288:	6425                	lui	s0,0x9
    428a:	202c                	.2byte	0x202c
    428c:	6461                	lui	s0,0x18
    428e:	7264                	.2byte	0x7264
    4290:	7365                	lui	t1,0xffff9
    4292:	30252073          	csrs	medeleg,a0
    4296:	342e                	.2byte	0x342e
    4298:	2c58                	.2byte	0x2c58
    429a:	6f20                	.2byte	0x6f20
    429c:	6666                	.2byte	0x6666
    429e:	20746573          	csrrsi	a0,0x207,8
    42a2:	3025                	jal	3aca <vbuf_printf+0x38c>
    42a4:	342e                	.2byte	0x342e
    42a6:	2c58                	.2byte	0x2c58
    42a8:	6c20                	.2byte	0x6c20
    42aa:	6e65                	lui	t3,0x19
    42ac:	20687467          	.4byte	0x20687467
    42b0:	3025                	jal	3ad8 <vbuf_printf+0x39a>
    42b2:	342e                	.2byte	0x342e
    42b4:	2058                	.2byte	0x2058
    42b6:	7265                	lui	tp,0xffff9
    42b8:	6f72                	.2byte	0x6f72
    42ba:	2072                	.2byte	0x2072
    42bc:	3025                	jal	3ae4 <sprintf+0xa>
    42be:	342e                	.2byte	0x342e
    42c0:	1b58                	addi	a4,sp,436
    42c2:	0d6d305b          	.4byte	0xd6d305b
    42c6:	000a                	c.slli	zero,0x2
    42c8:	38335b1b          	.4byte	0x38335b1b
    42cc:	353b313b          	.4byte	0x353b313b
    42d0:	646d                	lui	s0,0x1b
    42d2:	1b656e6f          	jal	t3,5a488 <_end+0x4d6d0>
    42d6:	0d6d305b          	.4byte	0xd6d305b
    42da:	000a                	c.slli	zero,0x2
    42dc:	36335b1b          	.4byte	0x36335b1b
    42e0:	343b353b          	.4byte	0x343b353b
    42e4:	416d                	li	sp,27
    42e6:	4650                	lw	a2,12(a2)
    42e8:	4620                	lw	s0,72(a2)
    42ea:	4941                	li	s2,16
    42ec:	444c                	lw	a1,12(s0)
    42ee:	7220                	.2byte	0x7220
    42f0:	6165                	addi	sp,sp,112
    42f2:	5f64                	lw	s1,124(a4)
    42f4:	626c                	.2byte	0x626c
    42f6:	3f61                	jal	428e <stream_vscanf+0x6a2>
    42f8:	6c20                	.2byte	0x6c20
    42fa:	6e65                	lui	t3,0x19
    42fc:	20687467          	.4byte	0x20687467
    4300:	3025                	jal	3b28 <sscanf+0x14>
    4302:	342e                	.2byte	0x342e
    4304:	1b58                	addi	a4,sp,436
    4306:	0d6d305b          	.4byte	0xd6d305b
    430a:	000a                	c.slli	zero,0x2
    430c:	7325                	lui	t1,0xfffe9
    430e:	0a0d                	addi	s4,s4,3
    4310:	0000                	unimp
    4312:	0000                	unimp
    4314:	4946                	lw	s2,80(sp)
    4316:	454c                	lw	a1,12(a0)
    4318:	0000                	unimp
    431a:	0000                	unimp
    431c:	4946                	lw	s2,80(sp)
    431e:	454c                	lw	a1,12(a0)
    4320:	2520                	.2byte	0x2520
    4322:	732a                	.2byte	0x732a
    4324:	0000                	unimp
    4326:	0000                	unimp
    4328:	772e                	.2byte	0x772e
    432a:	7661                	lui	a2,0xffff8
    432c:	0000                	unimp
    432e:	0000                	unimp
    4330:	4942                	lw	s2,16(sp)
    4332:	414e                	lw	sp,208(sp)
    4334:	5952                	lw	s2,52(sp)
    4336:	0000                	unimp
    4338:	4f4d                	li	t5,19
    433a:	4f54                	lw	a3,28(a4)
    433c:	4f52                	lw	t5,20(sp)
    433e:	414c                	lw	a1,4(a0)
    4340:	0000                	unimp
    4342:	0000                	unimp
    4344:	45564157          	.4byte	0x45564157
    4348:	0000                	unimp
    434a:	0000                	unimp
    434c:	5254                	lw	a3,36(a2)
    434e:	4341                	li	t1,16
    4350:	6425204b          	.4byte	0x6425204b
    4354:	2520                	.2byte	0x2520
    4356:	732a                	.2byte	0x732a
    4358:	0000                	unimp
    435a:	0000                	unimp
    435c:	5250                	lw	a2,36(a2)
    435e:	4745                	li	a4,17
    4360:	5041                	c.li	zero,-16
    4362:	2520                	.2byte	0x2520
    4364:	3230                	.2byte	0x3230
    4366:	3a64                	.2byte	0x3a64
    4368:	3025                	jal	3b90 <buf_putchar+0x6>
    436a:	6432                	.2byte	0x6432
    436c:	253a                	.2byte	0x253a
    436e:	3230                	.2byte	0x3230
    4370:	0064                	addi	s1,sp,12
    4372:	0000                	unimp
    4374:	4f4d                	li	t5,19
    4376:	4544                	lw	s1,12(a0)
    4378:	2f31                	jal	4a94 <stream_vscanf+0xea8>
    437a:	3032                	.2byte	0x3032
    437c:	3834                	.2byte	0x3834
    437e:	0000                	unimp
    4380:	4f4d                	li	t5,19
    4382:	4544                	lw	s1,12(a0)
    4384:	2f31                	jal	4aa0 <stream_vscanf+0xeb4>
    4386:	3332                	.2byte	0x3332
    4388:	3235                	jal	3cb4 <stream_vscanf+0xc8>
    438a:	0000                	unimp
    438c:	5541                	li	a0,-16
    438e:	4944                	lw	s1,20(a0)
    4390:	0000004f          	.4byte	0x4f
    4394:	4e49                	li	t3,18
    4396:	4544                	lw	s1,12(a0)
    4398:	2058                	.2byte	0x2058
    439a:	3030                	.2byte	0x3030
    439c:	2520                	.2byte	0x2520
    439e:	3230                	.2byte	0x3230
    43a0:	3a64                	.2byte	0x3a64
    43a2:	3025                	jal	3bca <strstr+0x16>
    43a4:	6432                	.2byte	0x6432
    43a6:	253a                	.2byte	0x253a
    43a8:	3230                	.2byte	0x3230
    43aa:	0064                	addi	s1,sp,12
    43ac:	4e49                	li	t3,18
    43ae:	4544                	lw	s1,12(a0)
    43b0:	2058                	.2byte	0x2058
    43b2:	2030                	.2byte	0x2030
    43b4:	3025                	jal	3bdc <strstr+0x28>
    43b6:	6432                	.2byte	0x6432
    43b8:	253a                	.2byte	0x253a
    43ba:	3230                	.2byte	0x3230
    43bc:	3a64                	.2byte	0x3a64
    43be:	3025                	jal	3be6 <strstr+0x32>
    43c0:	6432                	.2byte	0x6432
    43c2:	0000                	unimp
    43c4:	4e49                	li	t3,18
    43c6:	4544                	lw	s1,12(a0)
    43c8:	2058                	.2byte	0x2058
    43ca:	3130                	.2byte	0x3130
    43cc:	2520                	.2byte	0x2520
    43ce:	3230                	.2byte	0x3230
    43d0:	3a64                	.2byte	0x3a64
    43d2:	3025                	jal	3bfa <stream_vscanf+0xe>
    43d4:	6432                	.2byte	0x6432
    43d6:	253a                	.2byte	0x253a
    43d8:	3230                	.2byte	0x3230
    43da:	0064                	addi	s1,sp,12
    43dc:	4e49                	li	t3,18
    43de:	4544                	lw	s1,12(a0)
    43e0:	2058                	.2byte	0x2058
    43e2:	2031                	jal	43ee <stream_vscanf+0x802>
    43e4:	3025                	jal	3c0c <stream_vscanf+0x20>
    43e6:	6432                	.2byte	0x6432
    43e8:	253a                	.2byte	0x253a
    43ea:	3230                	.2byte	0x3230
    43ec:	3a64                	.2byte	0x3a64
    43ee:	3025                	jal	3c16 <stream_vscanf+0x2a>
    43f0:	6432                	.2byte	0x6432
    43f2:	0000                	unimp
    43f4:	6e65706f          	j	5bada <_end+0x4ed22>
    43f8:	6465                	lui	s0,0x19
    43fa:	2520                	.2byte	0x2520
    43fc:	2075                	jal	44a8 <stream_vscanf+0x8bc>
    43fe:	6425                	lui	s0,0x9
    4400:	0d20                	addi	s0,sp,664
    4402:	000a                	c.slli	zero,0x2
    4404:	6e20                	.2byte	0x6e20
    4406:	6f20746f          	jal	s0,baf8 <cue+0x2a40>
    440a:	6570                	.2byte	0x6570
    440c:	656e                	.2byte	0x656e
    440e:	2064                	.2byte	0x2064
    4410:	7525                	lui	a0,0xfffe9
    4412:	2520                	.2byte	0x2520
    4414:	2075                	jal	44c0 <stream_vscanf+0x8d4>
    4416:	7525                	lui	a0,0xfffe9
    4418:	2520                	.2byte	0x2520
    441a:	0d75                	addi	s10,s10,29
    441c:	000a                	c.slli	zero,0x2
    441e:	0000                	unimp
    4420:	6f66                	.2byte	0x6f66
    4422:	3025206f          	j	56724 <_end+0x4996c>
    4426:	342e                	.2byte	0x342e
    4428:	2078                	.2byte	0x2078
    442a:	20746e63          	bltu	s0,t2,4646 <stream_vscanf+0xa5a>
    442e:	3025                	jal	3c56 <stream_vscanf+0x6a>
    4430:	342e                	.2byte	0x342e
    4432:	2c78                	.2byte	0x2c78
    4434:	2520                	.2byte	0x2520
    4436:	2e30                	.2byte	0x2e30
    4438:	7834                	.2byte	0x7834
    443a:	0d20                	addi	s0,sp,664
    443c:	000a                	c.slli	zero,0x2
    443e:	0000                	unimp
    4440:	6144                	.2byte	0x6144
    4442:	6174                	.2byte	0x6174
    4444:	746f6c73          	csrrsi	s8,0x746,30
    4448:	3020                	.2byte	0x3020
    444a:	2520                	.2byte	0x2520
    444c:	2064                	.2byte	0x2064
    444e:	6425                	lui	s0,0x9
    4450:	0d20                	addi	s0,sp,664
    4452:	000a                	c.slli	zero,0x2
    4454:	6144                	.2byte	0x6144
    4456:	6174                	.2byte	0x6174
    4458:	746f6c73          	csrrsi	s8,0x746,30
    445c:	3120                	.2byte	0x3120
    445e:	2520                	.2byte	0x2520
    4460:	2064                	.2byte	0x2064
    4462:	6425                	lui	s0,0x9
    4464:	0d20                	addi	s0,sp,664
    4466:	000a                	c.slli	zero,0x2
    4468:	6144                	.2byte	0x6144
    446a:	6174                	.2byte	0x6174
    446c:	746f6c73          	csrrsi	s8,0x746,30
    4470:	3220                	.2byte	0x3220
    4472:	2520                	.2byte	0x2520
    4474:	2064                	.2byte	0x2064
    4476:	6425                	lui	s0,0x9
    4478:	0d20                	addi	s0,sp,664
    447a:	000a                	c.slli	zero,0x2
    447c:	6144                	.2byte	0x6144
    447e:	6174                	.2byte	0x6174
    4480:	746f6c73          	csrrsi	s8,0x746,30
    4484:	3320                	.2byte	0x3320
    4486:	2520                	.2byte	0x2520
    4488:	2064                	.2byte	0x2064
    448a:	6425                	lui	s0,0x9
    448c:	0d20                	addi	s0,sp,664
    448e:	000a                	c.slli	zero,0x2
    4490:	6144                	.2byte	0x6144
    4492:	6174                	.2byte	0x6174
    4494:	746f6c73          	csrrsi	s8,0x746,30
    4498:	3920                	.2byte	0x3920
    449a:	2039                	jal	44a8 <stream_vscanf+0x8bc>
    449c:	6425                	lui	s0,0x9
    449e:	2520                	.2byte	0x2520
    44a0:	2064                	.2byte	0x2064
    44a2:	0a0d                	addi	s4,s4,3
    44a4:	0000                	unimp
    44a6:	0000                	unimp
    44a8:	6144                	.2byte	0x6144
    44aa:	6174                	.2byte	0x6174
    44ac:	746f6c73          	csrrsi	s8,0x746,30
    44b0:	3120                	.2byte	0x3120
    44b2:	3130                	.2byte	0x3130
    44b4:	2520                	.2byte	0x2520
    44b6:	2064                	.2byte	0x2064
    44b8:	6425                	lui	s0,0x9
    44ba:	0d20                	addi	s0,sp,664
    44bc:	000a                	c.slli	zero,0x2
    44be:	0000                	unimp
    44c0:	6f74                	.2byte	0x6f74
    44c2:	6e652e63          	.4byte	0x6e652e63
    44c6:	2064                	.2byte	0x2064
    44c8:	7525                	lui	a0,0xfffe9
    44ca:	2520                	.2byte	0x2520
    44cc:	0d75                	addi	s10,s10,29
    44ce:	000a                	c.slli	zero,0x2
    44d0:	32335b1b          	.4byte	0x32335b1b
    44d4:	506d                	c.li	zero,-5
    44d6:	44434543          	.4byte	0x44434543
    44da:	203a                	.2byte	0x203a
    44dc:	657a6973          	csrrsi	s2,0x657,20
    44e0:	3d20                	.2byte	0x3d20
    44e2:	2520                	.2byte	0x2520
    44e4:	2075                	jal	4590 <stream_vscanf+0x9a4>
    44e6:	7254                	.2byte	0x7254
    44e8:	6361                	lui	t1,0x18
    44ea:	203d206b          	.4byte	0x203d206b
    44ee:	7525                	lui	a0,0xfffe9
    44f0:	202c                	.2byte	0x202c
    44f2:	72617473          	csrrci	s0,mhpmevent6h,2
    44f6:	2074                	.2byte	0x2074
    44f8:	203d                	jal	4526 <stream_vscanf+0x93a>
    44fa:	7525                	lui	a0,0xfffe9
    44fc:	202c                	.2byte	0x202c
    44fe:	6e65                	lui	t3,0x19
    4500:	2064                	.2byte	0x2064
    4502:	203d                	jal	4530 <stream_vscanf+0x944>
    4504:	7525                	lui	a0,0xfffe9
    4506:	202c                	.2byte	0x202c
    4508:	7366666f          	jal	a2,6ac3e <_end+0x5de86>
    450c:	7465                	lui	s0,0xffff9
    450e:	3d20                	.2byte	0x3d20
    4510:	2520                	.2byte	0x2520
    4512:	2c75                	jal	47ce <stream_vscanf+0xbe2>
    4514:	7320                	.2byte	0x7320
    4516:	6365                	lui	t1,0x19
    4518:	6f74                	.2byte	0x6f74
    451a:	5f72                	lw	t5,60(sp)
    451c:	657a6973          	csrrsi	s2,0x657,20
    4520:	253d                	jal	4b4e <sector_list+0x7e>
    4522:	2c64                	.2byte	0x2c64
    4524:	7420                	.2byte	0x7420
    4526:	7079                	c.lui	zero,0xffffe
    4528:	2065                	jal	45d0 <stream_vscanf+0x9e4>
    452a:	203d                	jal	4558 <stream_vscanf+0x96c>
    452c:	7525                	lui	a0,0xfffe9
    452e:	202c                	.2byte	0x202c
    4530:	6164                	.2byte	0x6164
    4532:	6174                	.2byte	0x6174
    4534:	746f6c73          	csrrsi	s8,0x746,30
    4538:	3d20                	.2byte	0x3d20
    453a:	2520                	.2byte	0x2520
    453c:	2075                	jal	45e8 <stream_vscanf+0x9fc>
    453e:	6e65706f          	j	5bc24 <_end+0x4ee6c>
    4542:	2064                	.2byte	0x2064
    4544:	203d                	jal	4572 <stream_vscanf+0x986>
    4546:	7525                	lui	a0,0xfffe9
    4548:	6e20                	.2byte	0x6e20
    454a:	6d61                	lui	s10,0x18
    454c:	2065                	jal	45f4 <stream_vscanf+0xa08>
    454e:	203d                	jal	457c <stream_vscanf+0x990>
    4550:	7325                	lui	t1,0xfffe9
    4552:	0a0d                	addi	s4,s4,3
    4554:	6d305b1b          	.4byte	0x6d305b1b
    4558:	0000                	unimp
    455a:	0000                	unimp
    455c:	6d6d6f43          	.4byte	0x6d6d6f43
    4560:	6e61                	lui	t3,0x18
    4562:	2064                	.2byte	0x2064
    4564:	2030                	.2byte	0x2030
    4566:	2054                	.2byte	0x2054
    4568:	7525                	lui	a0,0xfffe9
    456a:	0d20                	addi	s0,sp,664
    456c:	000a                	c.slli	zero,0x2
    456e:	0000                	unimp
    4570:	6d6d6f43          	.4byte	0x6d6d6f43
    4574:	6e61                	lui	t3,0x18
    4576:	2064                	.2byte	0x2064
    4578:	2031                	jal	4584 <stream_vscanf+0x998>
    457a:	204d                	jal	461c <stream_vscanf+0xa30>
    457c:	3025                	jal	3da4 <stream_vscanf+0x1b8>
    457e:	342e                	.2byte	0x342e
    4580:	2078                	.2byte	0x2078
    4582:	30252053          	.4byte	0x30252053
    4586:	342e                	.2byte	0x342e
    4588:	2078                	.2byte	0x2078
    458a:	2046                	.2byte	0x2046
    458c:	3025                	jal	3db4 <stream_vscanf+0x1c8>
    458e:	342e                	.2byte	0x342e
    4590:	2078                	.2byte	0x2078
    4592:	4d20                	lw	s0,88(a0)
    4594:	2520                	.2byte	0x2520
    4596:	2e30                	.2byte	0x2e30
    4598:	7834                	.2byte	0x7834
    459a:	5320                	lw	s0,96(a4)
    459c:	2520                	.2byte	0x2520
    459e:	2e30                	.2byte	0x2e30
    45a0:	7834                	.2byte	0x7834
    45a2:	4620                	lw	s0,72(a2)
    45a4:	2520                	.2byte	0x2520
    45a6:	2e30                	.2byte	0x2e30
    45a8:	7834                	.2byte	0x7834
    45aa:	0a0d                	addi	s4,s4,3
    45ac:	0000                	unimp
    45ae:	0000                	unimp
    45b0:	6d6d6f43          	.4byte	0x6d6d6f43
    45b4:	6e61                	lui	t3,0x18
    45b6:	2064                	.2byte	0x2064
    45b8:	2032                	.2byte	0x2032
    45ba:	204d                	jal	465c <stream_vscanf+0xa70>
    45bc:	3025                	jal	3de4 <stream_vscanf+0x1f8>
    45be:	342e                	.2byte	0x342e
    45c0:	2078                	.2byte	0x2078
    45c2:	30252053          	.4byte	0x30252053
    45c6:	342e                	.2byte	0x342e
    45c8:	2078                	.2byte	0x2078
    45ca:	2046                	.2byte	0x2046
    45cc:	3025                	jal	3df4 <stream_vscanf+0x208>
    45ce:	342e                	.2byte	0x342e
    45d0:	2078                	.2byte	0x2078
    45d2:	4d20                	lw	s0,88(a0)
    45d4:	2520                	.2byte	0x2520
    45d6:	2e30                	.2byte	0x2e30
    45d8:	7834                	.2byte	0x7834
    45da:	5320                	lw	s0,96(a4)
    45dc:	2520                	.2byte	0x2520
    45de:	2e30                	.2byte	0x2e30
    45e0:	7834                	.2byte	0x7834
    45e2:	4620                	lw	s0,72(a2)
    45e4:	2520                	.2byte	0x2520
    45e6:	2e30                	.2byte	0x2e30
    45e8:	7834                	.2byte	0x7834
    45ea:	7320                	.2byte	0x7320
    45ec:	6174                	.2byte	0x6174
    45ee:	7472                	.2byte	0x7472
    45f0:	2520                	.2byte	0x2520
    45f2:	2064                	.2byte	0x2064
    45f4:	0a0d                	addi	s4,s4,3
    45f6:	0000                	unimp
    45f8:	1446                	slli	s0,s0,0x31
    45fa:	0000                	unimp
    45fc:	14f0                	addi	a2,sp,620
    45fe:	0000                	unimp
    4600:	1340                	addi	s0,sp,420
    4602:	0000                	unimp
    4604:	1418                	addi	a4,sp,544
    4606:	0000                	unimp
    4608:	1418                	addi	a4,sp,544
    460a:	0000                	unimp
    460c:	153c                	addi	a5,sp,680
    460e:	0000                	unimp
    4610:	13ca                	slli	t2,t2,0x32
    4612:	0000                	unimp
    4614:	424c                	lw	a1,4(a2)
    4616:	2041                	jal	4696 <stream_vscanf+0xaaa>
    4618:	4552                	lw	a0,20(sp)
    461a:	4441                	li	s0,16
    461c:	4e49                	li	t3,18
    461e:	30252047          	.4byte	0x30252047
    4622:	342e                	.2byte	0x342e
    4624:	2078                	.2byte	0x2078
    4626:	0a0d                	addi	s4,s4,3
    4628:	0000                	unimp
    462a:	0000                	unimp
    462c:	424c                	lw	a1,4(a2)
    462e:	2041                	jal	46ae <stream_vscanf+0xac2>
    4630:	4552                	lw	a0,20(sp)
    4632:	4441                	li	s0,16
    4634:	4e49                	li	t3,18
    4636:	64252047          	.4byte	0x64252047
    463a:	2520                	.2byte	0x2520
    463c:	0d64                	addi	s1,sp,668
    463e:	000a                	c.slli	zero,0x2
    4640:	7246                	.2byte	0x7246
    4642:	73206d6f          	jal	s10,ad74 <cue+0x1cbc>
    4646:	6365                	lui	t1,0x19
    4648:	6f74                	.2byte	0x6f74
    464a:	2072                	.2byte	0x2072
    464c:	6425                	lui	s0,0x9
    464e:	7420                	.2byte	0x7420
    4650:	6573206f          	j	374a6 <_end+0x2a6ee>
    4654:	726f7463          	bgeu	t5,t1,4d7c <charfont+0x194>
    4658:	2520                	.2byte	0x2520
    465a:	3a64                	.2byte	0x3a64
    465c:	000a                	c.slli	zero,0x2
    465e:	0000                	unimp
    4660:	6954                	.2byte	0x6954
    4662:	656d                	lui	a0,0x1b
    4664:	3d20                	.2byte	0x3d20
    4666:	2520                	.2byte	0x2520
    4668:	2064                	.2byte	0x2064
    466a:	696d                	lui	s2,0x1b
    466c:	6c6c                	.2byte	0x6c6c
    466e:	7369                	lui	t1,0xffffa
    4670:	6365                	lui	t1,0x19
    4672:	73646e6f          	jal	t3,4ada8 <_end+0x3dff0>
    4676:	000a                	c.slli	zero,0x2
    4678:	2d2d                	jal	4cb2 <charfont+0xca>
    467a:	2d2d                	jal	4cb4 <charfont+0xcc>
    467c:	2d2d                	jal	4cb6 <charfont+0xce>
    467e:	2d2d                	jal	4cb8 <charfont+0xd0>
    4680:	2d2d                	jal	4cba <charfont+0xd2>
    4682:	2d2d                	jal	4cbc <charfont+0xd4>
    4684:	4f4e                	lw	t5,208(sp)
    4686:	4620                	lw	s0,72(a2)
    4688:	4c49                	li	s8,18
    468a:	5345                	li	t1,-15
    468c:	2d2d                	jal	4cc6 <charfont+0xde>
    468e:	2d2d                	jal	4cc8 <charfont+0xe0>
    4690:	2d2d                	jal	4cca <charfont+0xe2>
    4692:	452d                	li	a0,11
    4694:	3030                	.2byte	0x3030
    4696:	0000                	unimp
    4698:	2020                	.2byte	0x2020
    469a:	2020                	.2byte	0x2020
    469c:	5020                	lw	s0,96(s0)
    469e:	656c                	.2byte	0x656c
    46a0:	7361                	lui	t1,0xffff8
    46a2:	2065                	jal	474a <stream_vscanf+0xb5e>
    46a4:	63656863          	bltu	a0,s6,4cd4 <charfont+0xec>
    46a8:	6874206b          	.4byte	0x6874206b
    46ac:	2065                	jal	4754 <stream_vscanf+0xb68>
    46ae:	534a                	lw	t1,176(sp)
    46b0:	20204e4f          	.4byte	0x20204e4f
    46b4:	2020                	.2byte	0x2020
    46b6:	0000                	unimp
    46b8:	2020                	.2byte	0x2020
    46ba:	2020                	.2byte	0x2020
    46bc:	6946                	.2byte	0x6946
    46be:	656c                	.2byte	0x656c
    46c0:	6f632073          	csrs	0x6f6,t1
    46c4:	6c75                	lui	s8,0x1d
    46c6:	2064                	.2byte	0x2064
    46c8:	6562                	.2byte	0x6562
    46ca:	6620                	.2byte	0x6620
    46cc:	646e756f          	jal	a0,ebd12 <_end+0xdef5a>
    46d0:	6920                	.2byte	0x6920
    46d2:	206e                	.2byte	0x206e
    46d4:	2020                	.2byte	0x2020
    46d6:	0000                	unimp
    46d8:	2020                	.2byte	0x2020
    46da:	2020                	.2byte	0x2020
    46dc:	2020                	.2byte	0x2020
    46de:	2020                	.2byte	0x2020
    46e0:	6874                	.2byte	0x6874
    46e2:	2065                	jal	478a <stream_vscanf+0xb9e>
    46e4:	5041                	c.li	zero,-16
    46e6:	2046                	.2byte	0x2046
    46e8:	72616553          	.4byte	0x72616553
    46ec:	202e6863          	bltu	t3,sp,48fc <stream_vscanf+0xd10>
    46f0:	2020                	.2byte	0x2020
    46f2:	2020                	.2byte	0x2020
    46f4:	2020                	.2byte	0x2020
    46f6:	0000                	unimp
    46f8:	4320                	lw	s0,64(a4)
    46fa:	6568                	.2byte	0x6568
    46fc:	44206b63          	bltu	zero,sp,4b52 <sector_list+0x82>
    4700:	7269                	lui	tp,0xffffa
    4702:	6365                	lui	t1,0x19
    4704:	6f74                	.2byte	0x6f74
    4706:	7972                	.2byte	0x7972
    4708:	4c20                	lw	s0,88(s0)
    470a:	7461636f          	jal	t1,1ae50 <_end+0xe098>
    470e:	6f69                	lui	t5,0x1a
    4710:	736e                	.2byte	0x736e
    4712:	6920                	.2byte	0x6920
    4714:	206e                	.2byte	0x206e
    4716:	0000                	unimp
    4718:	2020                	.2byte	0x2020
    471a:	2020                	.2byte	0x2020
    471c:	2020                	.2byte	0x2020
    471e:	2020                	.2byte	0x2020
    4720:	6854                	.2byte	0x6854
    4722:	2065                	jal	47ca <stream_vscanf+0xbde>
    4724:	534a                	lw	t1,176(sp)
    4726:	46204e4f          	.4byte	0x46204e4f
    472a:	6c69                	lui	s8,0x1a
    472c:	2065                	jal	47d4 <stream_vscanf+0xbe8>
    472e:	0909                	addi	s2,s2,2 # 1b002 <_end+0xe24a>
    4730:	0009                	c.nop	2
    4732:	0000                	unimp
    4734:	2020                	.2byte	0x2020
    4736:	4120                	lw	s0,64(a0)
    4738:	736c                	.2byte	0x736c
    473a:	6863206f          	j	36dc0 <_end+0x2a008>
    473e:	6365                	lui	t1,0x19
    4740:	6966206b          	.4byte	0x6966206b
    4744:	656c                	.2byte	0x656c
    4746:	6e20                	.2byte	0x6e20
    4748:	6d61                	lui	s10,0x18
    474a:	7365                	lui	t1,0xffff9
    474c:	6120                	.2byte	0x6120
    474e:	6572                	.2byte	0x6572
    4750:	2020                	.2byte	0x2020
    4752:	0000                	unimp
    4754:	2020                	.2byte	0x2020
    4756:	2020                	.2byte	0x2020
    4758:	6220                	.2byte	0x6220
    475a:	6c65                	lui	s8,0x19
    475c:	3120776f          	jal	a4,ba6e <cue+0x29b6>
    4760:	3030                	.2byte	0x3030
    4762:	4320                	lw	s0,64(a4)
    4764:	6168                	.2byte	0x6168
    4766:	7272                	.2byte	0x7272
    4768:	6361                	lui	t1,0x18
    476a:	6f74                	.2byte	0x6f74
    476c:	7372                	.2byte	0x7372
    476e:	2020                	.2byte	0x2020
    4770:	2020                	.2byte	0x2020
    4772:	0000                	unimp
    4774:	2020                	.2byte	0x2020
    4776:	2020                	.2byte	0x2020
    4778:	2020                	.2byte	0x2020
    477a:	2020                	.2byte	0x2020
    477c:	6420                	.2byte	0x6420
    477e:	7461                	lui	s0,0xffff8
    4780:	7361                	lui	t1,0xffff8
    4782:	6f6c                	.2byte	0x6f6c
    4784:	2074                	.2byte	0x2074
    4786:	6425                	lui	s0,0x9
    4788:	2020                	.2byte	0x2020
    478a:	2020                	.2byte	0x2020
    478c:	2020                	.2byte	0x2020
    478e:	2020                	.2byte	0x2020
    4790:	0000                	unimp
    4792:	0000                	unimp
    4794:	2d2d                	jal	4dce <charfont+0x1e6>
    4796:	2d2d                	jal	4dd0 <charfont+0x1e8>
    4798:	2d2d                	jal	4dd2 <charfont+0x1ea>
    479a:	2d2d                	jal	4dd4 <charfont+0x1ec>
    479c:	2d2d                	jal	4dd6 <charfont+0x1ee>
    479e:	2d2d                	jal	4dd8 <charfont+0x1f0>
    47a0:	2d2d                	jal	4dda <charfont+0x1f2>
    47a2:	2d2d                	jal	4ddc <charfont+0x1f4>
    47a4:	2d2d                	jal	4dde <charfont+0x1f6>
    47a6:	2d2d                	jal	4de0 <charfont+0x1f8>
    47a8:	2d2d                	jal	4de2 <charfont+0x1fa>
    47aa:	2d2d                	jal	4de4 <charfont+0x1fc>
    47ac:	2d2d                	jal	4de6 <charfont+0x1fe>
    47ae:	2d2d                	jal	4de8 <charfont+0x200>
    47b0:	2d2d                	jal	4dea <charfont+0x202>
    47b2:	0000                	unimp
    47b4:	6544                	.2byte	0x6544
    47b6:	616c                	.2byte	0x616c
    47b8:	3a79                	jal	4156 <stream_vscanf+0x56a>
    47ba:	2520                	.2byte	0x2520
    47bc:	0064                	addi	s1,sp,12
    47be:	0000                	unimp
    47c0:	2054                	.2byte	0x2054
    47c2:	3a4d                	jal	4174 <stream_vscanf+0x588>
    47c4:	203a2053          	.4byte	0x203a2053
    47c8:	6425                	lui	s0,0x9
    47ca:	2520                	.2byte	0x2520
    47cc:	2064                	.2byte	0x2064
    47ce:	6425                	lui	s0,0x9
    47d0:	0000                	unimp
    47d2:	0000                	unimp
    47d4:	2d2d                	jal	4e0e <charfont+0x226>
    47d6:	2d2d                	jal	4e10 <charfont+0x228>
    47d8:	2d2d                	jal	4e12 <charfont+0x22a>
    47da:	442d                	li	s0,11
    47dc:	7461                	lui	s0,0xffff8
    47de:	7361                	lui	t1,0xffff8
    47e0:	6f6c                	.2byte	0x6f6c
    47e2:	2074                	.2byte	0x2074
    47e4:	7245                	lui	tp,0xffff1
    47e6:	6f72                	.2byte	0x6f72
    47e8:	2d72                	.2byte	0x2d72
    47ea:	2d2d                	jal	4e24 <charfont+0x23c>
    47ec:	252d                	jal	4e16 <charfont+0x22e>
    47ee:	0064                	addi	s1,sp,12
    47f0:	2020                	.2byte	0x2020
    47f2:	2020                	.2byte	0x2020
    47f4:	5020                	lw	s0,96(s0)
    47f6:	656c                	.2byte	0x656c
    47f8:	7361                	lui	t1,0xffff8
    47fa:	2065                	jal	48a2 <stream_vscanf+0xcb6>
    47fc:	63656863          	bltu	a0,s6,4e2c <charfont+0x244>
    4800:	6874206b          	.4byte	0x6874206b
    4804:	2065                	jal	48ac <stream_vscanf+0xcc0>
    4806:	6966                	.2byte	0x6966
    4808:	656c                	.2byte	0x656c
    480a:	2020                	.2byte	0x2020
    480c:	0020                	addi	s0,sp,8
    480e:	0000                	unimp
    4810:	2020                	.2byte	0x2020
    4812:	2020                	.2byte	0x2020
    4814:	7320                	.2byte	0x7320
    4816:	7a69                	lui	s4,0xffffa
    4818:	2065                	jal	48c0 <stream_vscanf+0xcd4>
    481a:	7420726f          	jal	tp,bf5c <cue+0x2ea4>
    481e:	6568                	.2byte	0x6568
    4820:	6320                	.2byte	0x6320
    4822:	6575                	lui	a0,0x1d
    4824:	7420                	.2byte	0x7420
    4826:	6d69                	lui	s10,0x1a
    4828:	7365                	lui	t1,0xffff9
    482a:	2020                	.2byte	0x2020
    482c:	0020                	addi	s0,sp,8
    482e:	0000                	unimp
    4830:	2049                	jal	48b2 <stream_vscanf+0xcc6>
    4832:	70617263          	bgeu	sp,t1,4f36 <charfont+0x34e>
    4836:	6570                	.2byte	0x6570
    4838:	2064                	.2byte	0x2064
    483a:	796d                	lui	s2,0xffffb
    483c:	666c6573          	csrrsi	a0,0x666,24
    4840:	0000                	unimp
    4842:	0000                	unimp
    4844:	2ff6                	.2byte	0x2ff6
    4846:	0000                	unimp
    4848:	2efa                	.2byte	0x2efa
    484a:	0000                	unimp
    484c:	2efa                	.2byte	0x2efa
    484e:	0000                	unimp
    4850:	2fee                	.2byte	0x2fee
    4852:	0000                	unimp
    4854:	2efa                	.2byte	0x2efa
    4856:	0000                	unimp
    4858:	2efa                	.2byte	0x2efa
    485a:	0000                	unimp
    485c:	2efa                	.2byte	0x2efa
    485e:	0000                	unimp
    4860:	2efa                	.2byte	0x2efa
    4862:	0000                	unimp
    4864:	2efa                	.2byte	0x2efa
    4866:	0000                	unimp
    4868:	2efa                	.2byte	0x2efa
    486a:	0000                	unimp
    486c:	2efa                	.2byte	0x2efa
    486e:	0000                	unimp
    4870:	2fe6                	.2byte	0x2fe6
    4872:	0000                	unimp
    4874:	2efa                	.2byte	0x2efa
    4876:	0000                	unimp
    4878:	2fde                	.2byte	0x2fde
    487a:	0000                	unimp
    487c:	2efa                	.2byte	0x2efa
    487e:	0000                	unimp
    4880:	2efa                	.2byte	0x2efa
    4882:	0000                	unimp
    4884:	2fd6                	.2byte	0x2fd6
    4886:	0000                	unimp
    4888:	3130                	.2byte	0x3130
    488a:	3332                	.2byte	0x3332
    488c:	3534                	.2byte	0x3534
    488e:	3736                	.2byte	0x3736
    4890:	3938                	.2byte	0x3938
    4892:	4241                	li	tp,16
    4894:	46454443          	.4byte	0x46454443
    4898:	0000                	unimp
    489a:	0000                	unimp
    489c:	3130                	.2byte	0x3130
    489e:	3332                	.2byte	0x3332
    48a0:	3534                	.2byte	0x3534
    48a2:	3736                	.2byte	0x3736
    48a4:	3938                	.2byte	0x3938
    48a6:	6261                	lui	tp,0x18
    48a8:	66656463          	bltu	a0,t1,4f10 <charfont+0x328>
    48ac:	0000                	unimp
    48ae:	0000                	unimp
    48b0:	380e                	.2byte	0x380e
    48b2:	0000                	unimp
    48b4:	3a72                	.2byte	0x3a72
    48b6:	0000                	unimp
    48b8:	3790                	.2byte	0x3790
    48ba:	0000                	unimp
    48bc:	3790                	.2byte	0x3790
    48be:	0000                	unimp
    48c0:	3790                	.2byte	0x3790
    48c2:	0000                	unimp
    48c4:	3790                	.2byte	0x3790
    48c6:	0000                	unimp
    48c8:	3790                	.2byte	0x3790
    48ca:	0000                	unimp
    48cc:	3790                	.2byte	0x3790
    48ce:	0000                	unimp
    48d0:	3790                	.2byte	0x3790
    48d2:	0000                	unimp
    48d4:	3a88                	.2byte	0x3a88
    48d6:	0000                	unimp
    48d8:	3790                	.2byte	0x3790
    48da:	0000                	unimp
    48dc:	3790                	.2byte	0x3790
    48de:	0000                	unimp
    48e0:	3790                	.2byte	0x3790
    48e2:	0000                	unimp
    48e4:	3a48                	.2byte	0x3a48
    48e6:	0000                	unimp
    48e8:	3790                	.2byte	0x3790
    48ea:	0000                	unimp
    48ec:	3790                	.2byte	0x3790
    48ee:	0000                	unimp
    48f0:	382a                	.2byte	0x382a
    48f2:	0000                	unimp
    48f4:	3790                	.2byte	0x3790
    48f6:	0000                	unimp
    48f8:	3a6e                	.2byte	0x3a6e
    48fa:	0000                	unimp
    48fc:	3790                	.2byte	0x3790
    48fe:	0000                	unimp
    4900:	3790                	.2byte	0x3790
    4902:	0000                	unimp
    4904:	3a48                	.2byte	0x3a48
    4906:	0000                	unimp
    4908:	3930                	.2byte	0x3930
    490a:	0000                	unimp
    490c:	3790                	.2byte	0x3790
    490e:	0000                	unimp
    4910:	3790                	.2byte	0x3790
    4912:	0000                	unimp
    4914:	3790                	.2byte	0x3790
    4916:	0000                	unimp
    4918:	3790                	.2byte	0x3790
    491a:	0000                	unimp
    491c:	3790                	.2byte	0x3790
    491e:	0000                	unimp
    4920:	3790                	.2byte	0x3790
    4922:	0000                	unimp
    4924:	3790                	.2byte	0x3790
    4926:	0000                	unimp
    4928:	3928                	.2byte	0x3928
    492a:	0000                	unimp
    492c:	3ab0                	.2byte	0x3ab0
    492e:	0000                	unimp
    4930:	3790                	.2byte	0x3790
    4932:	0000                	unimp
    4934:	3790                	.2byte	0x3790
    4936:	0000                	unimp
    4938:	3790                	.2byte	0x3790
    493a:	0000                	unimp
    493c:	3790                	.2byte	0x3790
    493e:	0000                	unimp
    4940:	3790                	.2byte	0x3790
    4942:	0000                	unimp
    4944:	3790                	.2byte	0x3790
    4946:	0000                	unimp
    4948:	3790                	.2byte	0x3790
    494a:	0000                	unimp
    494c:	3790                	.2byte	0x3790
    494e:	0000                	unimp
    4950:	3790                	.2byte	0x3790
    4952:	0000                	unimp
    4954:	3790                	.2byte	0x3790
    4956:	0000                	unimp
    4958:	3790                	.2byte	0x3790
    495a:	0000                	unimp
    495c:	3790                	.2byte	0x3790
    495e:	0000                	unimp
    4960:	3790                	.2byte	0x3790
    4962:	0000                	unimp
    4964:	3790                	.2byte	0x3790
    4966:	0000                	unimp
    4968:	3790                	.2byte	0x3790
    496a:	0000                	unimp
    496c:	3790                	.2byte	0x3790
    496e:	0000                	unimp
    4970:	3790                	.2byte	0x3790
    4972:	0000                	unimp
    4974:	3790                	.2byte	0x3790
    4976:	0000                	unimp
    4978:	3790                	.2byte	0x3790
    497a:	0000                	unimp
    497c:	3790                	.2byte	0x3790
    497e:	0000                	unimp
    4980:	3790                	.2byte	0x3790
    4982:	0000                	unimp
    4984:	3790                	.2byte	0x3790
    4986:	0000                	unimp
    4988:	3790                	.2byte	0x3790
    498a:	0000                	unimp
    498c:	3790                	.2byte	0x3790
    498e:	0000                	unimp
    4990:	3790                	.2byte	0x3790
    4992:	0000                	unimp
    4994:	3790                	.2byte	0x3790
    4996:	0000                	unimp
    4998:	3790                	.2byte	0x3790
    499a:	0000                	unimp
    499c:	3790                	.2byte	0x3790
    499e:	0000                	unimp
    49a0:	3790                	.2byte	0x3790
    49a2:	0000                	unimp
    49a4:	3790                	.2byte	0x3790
    49a6:	0000                	unimp
    49a8:	3790                	.2byte	0x3790
    49aa:	0000                	unimp
    49ac:	3790                	.2byte	0x3790
    49ae:	0000                	unimp
    49b0:	3790                	.2byte	0x3790
    49b2:	0000                	unimp
    49b4:	3790                	.2byte	0x3790
    49b6:	0000                	unimp
    49b8:	3790                	.2byte	0x3790
    49ba:	0000                	unimp
    49bc:	3790                	.2byte	0x3790
    49be:	0000                	unimp
    49c0:	3790                	.2byte	0x3790
    49c2:	0000                	unimp
    49c4:	3790                	.2byte	0x3790
    49c6:	0000                	unimp
    49c8:	3790                	.2byte	0x3790
    49ca:	0000                	unimp
    49cc:	3790                	.2byte	0x3790
    49ce:	0000                	unimp
    49d0:	3790                	.2byte	0x3790
    49d2:	0000                	unimp
    49d4:	3790                	.2byte	0x3790
    49d6:	0000                	unimp
    49d8:	3790                	.2byte	0x3790
    49da:	0000                	unimp
    49dc:	3790                	.2byte	0x3790
    49de:	0000                	unimp
    49e0:	3790                	.2byte	0x3790
    49e2:	0000                	unimp
    49e4:	3a8c                	.2byte	0x3a8c
    49e6:	0000                	unimp
    49e8:	3790                	.2byte	0x3790
    49ea:	0000                	unimp
    49ec:	3790                	.2byte	0x3790
    49ee:	0000                	unimp
    49f0:	3790                	.2byte	0x3790
    49f2:	0000                	unimp
    49f4:	3790                	.2byte	0x3790
    49f6:	0000                	unimp
    49f8:	3790                	.2byte	0x3790
    49fa:	0000                	unimp
    49fc:	3790                	.2byte	0x3790
    49fe:	0000                	unimp
    4a00:	380e                	.2byte	0x380e
    4a02:	0000                	unimp
    4a04:	3a72                	.2byte	0x3a72
    4a06:	0000                	unimp
    4a08:	3790                	.2byte	0x3790
    4a0a:	0000                	unimp
    4a0c:	3790                	.2byte	0x3790
    4a0e:	0000                	unimp
    4a10:	3790                	.2byte	0x3790
    4a12:	0000                	unimp
    4a14:	3790                	.2byte	0x3790
    4a16:	0000                	unimp
    4a18:	3790                	.2byte	0x3790
    4a1a:	0000                	unimp
    4a1c:	3790                	.2byte	0x3790
    4a1e:	0000                	unimp
    4a20:	3790                	.2byte	0x3790
    4a22:	0000                	unimp
    4a24:	3a88                	.2byte	0x3a88
    4a26:	0000                	unimp
    4a28:	3790                	.2byte	0x3790
    4a2a:	0000                	unimp
    4a2c:	3790                	.2byte	0x3790
    4a2e:	0000                	unimp
    4a30:	3790                	.2byte	0x3790
    4a32:	0000                	unimp
    4a34:	3a48                	.2byte	0x3a48
    4a36:	0000                	unimp
    4a38:	3790                	.2byte	0x3790
    4a3a:	0000                	unimp
    4a3c:	3790                	.2byte	0x3790
    4a3e:	0000                	unimp
    4a40:	382a                	.2byte	0x382a
    4a42:	0000                	unimp
    4a44:	3790                	.2byte	0x3790
    4a46:	0000                	unimp
    4a48:	3a6e                	.2byte	0x3a6e
    4a4a:	0000                	unimp
    4a4c:	3790                	.2byte	0x3790
    4a4e:	0000                	unimp
    4a50:	3790                	.2byte	0x3790
    4a52:	0000                	unimp
    4a54:	3a48                	.2byte	0x3a48
    4a56:	0000                	unimp
    4a58:	3dae                	.2byte	0x3dae
    4a5a:	0000                	unimp
    4a5c:	3d4e                	.2byte	0x3d4e
    4a5e:	0000                	unimp
    4a60:	3d4e                	.2byte	0x3d4e
    4a62:	0000                	unimp
    4a64:	3d4e                	.2byte	0x3d4e
    4a66:	0000                	unimp
    4a68:	3d4e                	.2byte	0x3d4e
    4a6a:	0000                	unimp
    4a6c:	3d4e                	.2byte	0x3d4e
    4a6e:	0000                	unimp
    4a70:	3d4e                	.2byte	0x3d4e
    4a72:	0000                	unimp
    4a74:	3d4e                	.2byte	0x3d4e
    4a76:	0000                	unimp
    4a78:	3faa                	.2byte	0x3faa
    4a7a:	0000                	unimp
    4a7c:	4012                	.2byte	0x4012
    4a7e:	0000                	unimp
    4a80:	3d4e                	.2byte	0x3d4e
    4a82:	0000                	unimp
    4a84:	3d4e                	.2byte	0x3d4e
    4a86:	0000                	unimp
    4a88:	3d4e                	.2byte	0x3d4e
    4a8a:	0000                	unimp
    4a8c:	3d4e                	.2byte	0x3d4e
    4a8e:	0000                	unimp
    4a90:	3d4e                	.2byte	0x3d4e
    4a92:	0000                	unimp
    4a94:	3d4e                	.2byte	0x3d4e
    4a96:	0000                	unimp
    4a98:	3d4e                	.2byte	0x3d4e
    4a9a:	0000                	unimp
    4a9c:	3d4e                	.2byte	0x3d4e
    4a9e:	0000                	unimp
    4aa0:	3d4e                	.2byte	0x3d4e
    4aa2:	0000                	unimp
    4aa4:	3d4e                	.2byte	0x3d4e
    4aa6:	0000                	unimp
    4aa8:	400e                	.2byte	0x400e
    4aaa:	0000                	unimp
    4aac:	3d4e                	.2byte	0x3d4e
    4aae:	0000                	unimp
    4ab0:	3d4e                	.2byte	0x3d4e
    4ab2:	0000                	unimp
    4ab4:	3d4e                	.2byte	0x3d4e
    4ab6:	0000                	unimp
    4ab8:	3dae                	.2byte	0x3dae
    4aba:	0000                	unimp
    4abc:	3d4e                	.2byte	0x3d4e
    4abe:	0000                	unimp
    4ac0:	3d4e                	.2byte	0x3d4e
    4ac2:	0000                	unimp
    4ac4:	3d4e                	.2byte	0x3d4e
    4ac6:	0000                	unimp
    4ac8:	3d4e                	.2byte	0x3d4e
    4aca:	0000                	unimp
    4acc:	3ed4                	.2byte	0x3ed4
	...
